
;CodeVisionAVR C Compiler V2.05.3 Standard
;(C) Copyright 1998-2011 Pavel Haiduc, HP InfoTech s.r.l.
;http://www.hpinfotech.com

;Chip type                : ATmega128
;Program type             : Application
;Clock frequency          : 16.000000 MHz
;Memory model             : Small
;Optimize for             : Size
;(s)printf features       : int, width
;(s)scanf features        : int, width
;External RAM size        : 0
;Data Stack size          : 1024 byte(s)
;Heap size                : 0 byte(s)
;Promote 'char' to 'int'  : Yes
;'char' is unsigned       : Yes
;8 bit enums              : Yes
;Global 'const' stored in FLASH     : No
;Enhanced function parameter passing: Yes
;Enhanced core instructions         : On
;Smart register allocation          : On
;Automatic register allocation      : On

	#pragma AVRPART ADMIN PART_NAME ATmega128
	#pragma AVRPART MEMORY PROG_FLASH 131072
	#pragma AVRPART MEMORY EEPROM 4096
	#pragma AVRPART MEMORY INT_SRAM SIZE 4351
	#pragma AVRPART MEMORY INT_SRAM START_ADDR 0x100

	#define CALL_SUPPORTED 1

	.LISTMAC
	.EQU UDRE=0x5
	.EQU RXC=0x7
	.EQU USR=0xB
	.EQU UDR=0xC
	.EQU SPSR=0xE
	.EQU SPDR=0xF
	.EQU EERE=0x0
	.EQU EEWE=0x1
	.EQU EEMWE=0x2
	.EQU EECR=0x1C
	.EQU EEDR=0x1D
	.EQU EEARL=0x1E
	.EQU EEARH=0x1F
	.EQU WDTCR=0x21
	.EQU MCUCR=0x35
	.EQU RAMPZ=0x3B
	.EQU SPL=0x3D
	.EQU SPH=0x3E
	.EQU SREG=0x3F
	.EQU XMCRA=0x6D
	.EQU XMCRB=0x6C

	.DEF R0X0=R0
	.DEF R0X1=R1
	.DEF R0X2=R2
	.DEF R0X3=R3
	.DEF R0X4=R4
	.DEF R0X5=R5
	.DEF R0X6=R6
	.DEF R0X7=R7
	.DEF R0X8=R8
	.DEF R0X9=R9
	.DEF R0XA=R10
	.DEF R0XB=R11
	.DEF R0XC=R12
	.DEF R0XD=R13
	.DEF R0XE=R14
	.DEF R0XF=R15
	.DEF R0X10=R16
	.DEF R0X11=R17
	.DEF R0X12=R18
	.DEF R0X13=R19
	.DEF R0X14=R20
	.DEF R0X15=R21
	.DEF R0X16=R22
	.DEF R0X17=R23
	.DEF R0X18=R24
	.DEF R0X19=R25
	.DEF R0X1A=R26
	.DEF R0X1B=R27
	.DEF R0X1C=R28
	.DEF R0X1D=R29
	.DEF R0X1E=R30
	.DEF R0X1F=R31

	.EQU __SRAM_START=0x0100
	.EQU __SRAM_END=0x10FF
	.EQU __DSTACK_SIZE=0x0400
	.EQU __HEAP_SIZE=0x0000
	.EQU __CLEAR_SRAM_SIZE=__SRAM_END-__SRAM_START+1

	.MACRO __CPD1N
	CPI  R30,LOW(@0)
	LDI  R26,HIGH(@0)
	CPC  R31,R26
	LDI  R26,BYTE3(@0)
	CPC  R22,R26
	LDI  R26,BYTE4(@0)
	CPC  R23,R26
	.ENDM

	.MACRO __CPD2N
	CPI  R26,LOW(@0)
	LDI  R30,HIGH(@0)
	CPC  R27,R30
	LDI  R30,BYTE3(@0)
	CPC  R24,R30
	LDI  R30,BYTE4(@0)
	CPC  R25,R30
	.ENDM

	.MACRO __CPWRR
	CP   R@0,R@2
	CPC  R@1,R@3
	.ENDM

	.MACRO __CPWRN
	CPI  R@0,LOW(@2)
	LDI  R30,HIGH(@2)
	CPC  R@1,R30
	.ENDM

	.MACRO __ADDB1MN
	SUBI R30,LOW(-@0-(@1))
	.ENDM

	.MACRO __ADDB2MN
	SUBI R26,LOW(-@0-(@1))
	.ENDM

	.MACRO __ADDW1MN
	SUBI R30,LOW(-@0-(@1))
	SBCI R31,HIGH(-@0-(@1))
	.ENDM

	.MACRO __ADDW2MN
	SUBI R26,LOW(-@0-(@1))
	SBCI R27,HIGH(-@0-(@1))
	.ENDM

	.MACRO __ADDW1FN
	SUBI R30,LOW(-2*@0-(@1))
	SBCI R31,HIGH(-2*@0-(@1))
	.ENDM

	.MACRO __ADDD1FN
	SUBI R30,LOW(-2*@0-(@1))
	SBCI R31,HIGH(-2*@0-(@1))
	SBCI R22,BYTE3(-2*@0-(@1))
	.ENDM

	.MACRO __ADDD1N
	SUBI R30,LOW(-@0)
	SBCI R31,HIGH(-@0)
	SBCI R22,BYTE3(-@0)
	SBCI R23,BYTE4(-@0)
	.ENDM

	.MACRO __ADDD2N
	SUBI R26,LOW(-@0)
	SBCI R27,HIGH(-@0)
	SBCI R24,BYTE3(-@0)
	SBCI R25,BYTE4(-@0)
	.ENDM

	.MACRO __SUBD1N
	SUBI R30,LOW(@0)
	SBCI R31,HIGH(@0)
	SBCI R22,BYTE3(@0)
	SBCI R23,BYTE4(@0)
	.ENDM

	.MACRO __SUBD2N
	SUBI R26,LOW(@0)
	SBCI R27,HIGH(@0)
	SBCI R24,BYTE3(@0)
	SBCI R25,BYTE4(@0)
	.ENDM

	.MACRO __ANDBMNN
	LDS  R30,@0+(@1)
	ANDI R30,LOW(@2)
	STS  @0+(@1),R30
	.ENDM

	.MACRO __ANDWMNN
	LDS  R30,@0+(@1)
	ANDI R30,LOW(@2)
	STS  @0+(@1),R30
	LDS  R30,@0+(@1)+1
	ANDI R30,HIGH(@2)
	STS  @0+(@1)+1,R30
	.ENDM

	.MACRO __ANDD1N
	ANDI R30,LOW(@0)
	ANDI R31,HIGH(@0)
	ANDI R22,BYTE3(@0)
	ANDI R23,BYTE4(@0)
	.ENDM

	.MACRO __ANDD2N
	ANDI R26,LOW(@0)
	ANDI R27,HIGH(@0)
	ANDI R24,BYTE3(@0)
	ANDI R25,BYTE4(@0)
	.ENDM

	.MACRO __ORBMNN
	LDS  R30,@0+(@1)
	ORI  R30,LOW(@2)
	STS  @0+(@1),R30
	.ENDM

	.MACRO __ORWMNN
	LDS  R30,@0+(@1)
	ORI  R30,LOW(@2)
	STS  @0+(@1),R30
	LDS  R30,@0+(@1)+1
	ORI  R30,HIGH(@2)
	STS  @0+(@1)+1,R30
	.ENDM

	.MACRO __ORD1N
	ORI  R30,LOW(@0)
	ORI  R31,HIGH(@0)
	ORI  R22,BYTE3(@0)
	ORI  R23,BYTE4(@0)
	.ENDM

	.MACRO __ORD2N
	ORI  R26,LOW(@0)
	ORI  R27,HIGH(@0)
	ORI  R24,BYTE3(@0)
	ORI  R25,BYTE4(@0)
	.ENDM

	.MACRO __DELAY_USB
	LDI  R24,LOW(@0)
__DELAY_USB_LOOP:
	DEC  R24
	BRNE __DELAY_USB_LOOP
	.ENDM

	.MACRO __DELAY_USW
	LDI  R24,LOW(@0)
	LDI  R25,HIGH(@0)
__DELAY_USW_LOOP:
	SBIW R24,1
	BRNE __DELAY_USW_LOOP
	.ENDM

	.MACRO __GETD1S
	LDD  R30,Y+@0
	LDD  R31,Y+@0+1
	LDD  R22,Y+@0+2
	LDD  R23,Y+@0+3
	.ENDM

	.MACRO __GETD2S
	LDD  R26,Y+@0
	LDD  R27,Y+@0+1
	LDD  R24,Y+@0+2
	LDD  R25,Y+@0+3
	.ENDM

	.MACRO __PUTD1S
	STD  Y+@0,R30
	STD  Y+@0+1,R31
	STD  Y+@0+2,R22
	STD  Y+@0+3,R23
	.ENDM

	.MACRO __PUTD2S
	STD  Y+@0,R26
	STD  Y+@0+1,R27
	STD  Y+@0+2,R24
	STD  Y+@0+3,R25
	.ENDM

	.MACRO __PUTDZ2
	STD  Z+@0,R26
	STD  Z+@0+1,R27
	STD  Z+@0+2,R24
	STD  Z+@0+3,R25
	.ENDM

	.MACRO __CLRD1S
	STD  Y+@0,R30
	STD  Y+@0+1,R30
	STD  Y+@0+2,R30
	STD  Y+@0+3,R30
	.ENDM

	.MACRO __POINTB1MN
	LDI  R30,LOW(@0+(@1))
	.ENDM

	.MACRO __POINTW1MN
	LDI  R30,LOW(@0+(@1))
	LDI  R31,HIGH(@0+(@1))
	.ENDM

	.MACRO __POINTD1M
	LDI  R30,LOW(@0)
	LDI  R31,HIGH(@0)
	LDI  R22,BYTE3(@0)
	LDI  R23,BYTE4(@0)
	.ENDM

	.MACRO __POINTW1FN
	LDI  R30,LOW(2*@0+(@1))
	LDI  R31,HIGH(2*@0+(@1))
	.ENDM

	.MACRO __POINTD1FN
	LDI  R30,LOW(2*@0+(@1))
	LDI  R31,HIGH(2*@0+(@1))
	LDI  R22,BYTE3(2*@0+(@1))
	LDI  R23,BYTE4(2*@0+(@1))
	.ENDM

	.MACRO __POINTB2MN
	LDI  R26,LOW(@0+(@1))
	.ENDM

	.MACRO __POINTW2MN
	LDI  R26,LOW(@0+(@1))
	LDI  R27,HIGH(@0+(@1))
	.ENDM

	.MACRO __POINTW2FN
	LDI  R26,LOW(2*@0+(@1))
	LDI  R27,HIGH(2*@0+(@1))
	.ENDM

	.MACRO __POINTD2FN
	LDI  R26,LOW(2*@0+(@1))
	LDI  R27,HIGH(2*@0+(@1))
	LDI  R24,BYTE3(2*@0+(@1))
	LDI  R25,BYTE4(2*@0+(@1))
	.ENDM

	.MACRO __POINTBRM
	LDI  R@0,LOW(@1)
	.ENDM

	.MACRO __POINTWRM
	LDI  R@0,LOW(@2)
	LDI  R@1,HIGH(@2)
	.ENDM

	.MACRO __POINTBRMN
	LDI  R@0,LOW(@1+(@2))
	.ENDM

	.MACRO __POINTWRMN
	LDI  R@0,LOW(@2+(@3))
	LDI  R@1,HIGH(@2+(@3))
	.ENDM

	.MACRO __POINTWRFN
	LDI  R@0,LOW(@2*2+(@3))
	LDI  R@1,HIGH(@2*2+(@3))
	.ENDM

	.MACRO __GETD1N
	LDI  R30,LOW(@0)
	LDI  R31,HIGH(@0)
	LDI  R22,BYTE3(@0)
	LDI  R23,BYTE4(@0)
	.ENDM

	.MACRO __GETD2N
	LDI  R26,LOW(@0)
	LDI  R27,HIGH(@0)
	LDI  R24,BYTE3(@0)
	LDI  R25,BYTE4(@0)
	.ENDM

	.MACRO __GETB1MN
	LDS  R30,@0+(@1)
	.ENDM

	.MACRO __GETB1HMN
	LDS  R31,@0+(@1)
	.ENDM

	.MACRO __GETW1MN
	LDS  R30,@0+(@1)
	LDS  R31,@0+(@1)+1
	.ENDM

	.MACRO __GETD1MN
	LDS  R30,@0+(@1)
	LDS  R31,@0+(@1)+1
	LDS  R22,@0+(@1)+2
	LDS  R23,@0+(@1)+3
	.ENDM

	.MACRO __GETBRMN
	LDS  R@0,@1+(@2)
	.ENDM

	.MACRO __GETWRMN
	LDS  R@0,@2+(@3)
	LDS  R@1,@2+(@3)+1
	.ENDM

	.MACRO __GETWRZ
	LDD  R@0,Z+@2
	LDD  R@1,Z+@2+1
	.ENDM

	.MACRO __GETD2Z
	LDD  R26,Z+@0
	LDD  R27,Z+@0+1
	LDD  R24,Z+@0+2
	LDD  R25,Z+@0+3
	.ENDM

	.MACRO __GETB2MN
	LDS  R26,@0+(@1)
	.ENDM

	.MACRO __GETW2MN
	LDS  R26,@0+(@1)
	LDS  R27,@0+(@1)+1
	.ENDM

	.MACRO __GETD2MN
	LDS  R26,@0+(@1)
	LDS  R27,@0+(@1)+1
	LDS  R24,@0+(@1)+2
	LDS  R25,@0+(@1)+3
	.ENDM

	.MACRO __PUTB1MN
	STS  @0+(@1),R30
	.ENDM

	.MACRO __PUTW1MN
	STS  @0+(@1),R30
	STS  @0+(@1)+1,R31
	.ENDM

	.MACRO __PUTD1MN
	STS  @0+(@1),R30
	STS  @0+(@1)+1,R31
	STS  @0+(@1)+2,R22
	STS  @0+(@1)+3,R23
	.ENDM

	.MACRO __PUTB1EN
	LDI  R26,LOW(@0+(@1))
	LDI  R27,HIGH(@0+(@1))
	CALL __EEPROMWRB
	.ENDM

	.MACRO __PUTW1EN
	LDI  R26,LOW(@0+(@1))
	LDI  R27,HIGH(@0+(@1))
	CALL __EEPROMWRW
	.ENDM

	.MACRO __PUTD1EN
	LDI  R26,LOW(@0+(@1))
	LDI  R27,HIGH(@0+(@1))
	CALL __EEPROMWRD
	.ENDM

	.MACRO __PUTBR0MN
	STS  @0+(@1),R0
	.ENDM

	.MACRO __PUTBMRN
	STS  @0+(@1),R@2
	.ENDM

	.MACRO __PUTWMRN
	STS  @0+(@1),R@2
	STS  @0+(@1)+1,R@3
	.ENDM

	.MACRO __PUTBZR
	STD  Z+@1,R@0
	.ENDM

	.MACRO __PUTWZR
	STD  Z+@2,R@0
	STD  Z+@2+1,R@1
	.ENDM

	.MACRO __GETW1R
	MOV  R30,R@0
	MOV  R31,R@1
	.ENDM

	.MACRO __GETW2R
	MOV  R26,R@0
	MOV  R27,R@1
	.ENDM

	.MACRO __GETWRN
	LDI  R@0,LOW(@2)
	LDI  R@1,HIGH(@2)
	.ENDM

	.MACRO __PUTW1R
	MOV  R@0,R30
	MOV  R@1,R31
	.ENDM

	.MACRO __PUTW2R
	MOV  R@0,R26
	MOV  R@1,R27
	.ENDM

	.MACRO __ADDWRN
	SUBI R@0,LOW(-@2)
	SBCI R@1,HIGH(-@2)
	.ENDM

	.MACRO __ADDWRR
	ADD  R@0,R@2
	ADC  R@1,R@3
	.ENDM

	.MACRO __SUBWRN
	SUBI R@0,LOW(@2)
	SBCI R@1,HIGH(@2)
	.ENDM

	.MACRO __SUBWRR
	SUB  R@0,R@2
	SBC  R@1,R@3
	.ENDM

	.MACRO __ANDWRN
	ANDI R@0,LOW(@2)
	ANDI R@1,HIGH(@2)
	.ENDM

	.MACRO __ANDWRR
	AND  R@0,R@2
	AND  R@1,R@3
	.ENDM

	.MACRO __ORWRN
	ORI  R@0,LOW(@2)
	ORI  R@1,HIGH(@2)
	.ENDM

	.MACRO __ORWRR
	OR   R@0,R@2
	OR   R@1,R@3
	.ENDM

	.MACRO __EORWRR
	EOR  R@0,R@2
	EOR  R@1,R@3
	.ENDM

	.MACRO __GETWRS
	LDD  R@0,Y+@2
	LDD  R@1,Y+@2+1
	.ENDM

	.MACRO __PUTBSR
	STD  Y+@1,R@0
	.ENDM

	.MACRO __PUTWSR
	STD  Y+@2,R@0
	STD  Y+@2+1,R@1
	.ENDM

	.MACRO __MOVEWRR
	MOV  R@0,R@2
	MOV  R@1,R@3
	.ENDM

	.MACRO __INWR
	IN   R@0,@2
	IN   R@1,@2+1
	.ENDM

	.MACRO __OUTWR
	OUT  @2+1,R@1
	OUT  @2,R@0
	.ENDM

	.MACRO __CALL1MN
	LDS  R30,@0+(@1)
	LDS  R31,@0+(@1)+1
	ICALL
	.ENDM

	.MACRO __CALL1FN
	LDI  R30,LOW(2*@0+(@1))
	LDI  R31,HIGH(2*@0+(@1))
	CALL __GETW1PF
	ICALL
	.ENDM

	.MACRO __CALL2EN
	LDI  R26,LOW(@0+(@1))
	LDI  R27,HIGH(@0+(@1))
	CALL __EEPROMRDW
	ICALL
	.ENDM

	.MACRO __GETW1STACK
	IN   R26,SPL
	IN   R27,SPH
	ADIW R26,@0+1
	LD   R30,X+
	LD   R31,X
	.ENDM

	.MACRO __GETD1STACK
	IN   R26,SPL
	IN   R27,SPH
	ADIW R26,@0+1
	LD   R30,X+
	LD   R31,X+
	LD   R22,X
	.ENDM

	.MACRO __NBST
	BST  R@0,@1
	IN   R30,SREG
	LDI  R31,0x40
	EOR  R30,R31
	OUT  SREG,R30
	.ENDM


	.MACRO __PUTB1SN
	LDD  R26,Y+@0
	LDD  R27,Y+@0+1
	SUBI R26,LOW(-@1)
	SBCI R27,HIGH(-@1)
	ST   X,R30
	.ENDM

	.MACRO __PUTW1SN
	LDD  R26,Y+@0
	LDD  R27,Y+@0+1
	SUBI R26,LOW(-@1)
	SBCI R27,HIGH(-@1)
	ST   X+,R30
	ST   X,R31
	.ENDM

	.MACRO __PUTD1SN
	LDD  R26,Y+@0
	LDD  R27,Y+@0+1
	SUBI R26,LOW(-@1)
	SBCI R27,HIGH(-@1)
	CALL __PUTDP1
	.ENDM

	.MACRO __PUTB1SNS
	LDD  R26,Y+@0
	LDD  R27,Y+@0+1
	ADIW R26,@1
	ST   X,R30
	.ENDM

	.MACRO __PUTW1SNS
	LDD  R26,Y+@0
	LDD  R27,Y+@0+1
	ADIW R26,@1
	ST   X+,R30
	ST   X,R31
	.ENDM

	.MACRO __PUTD1SNS
	LDD  R26,Y+@0
	LDD  R27,Y+@0+1
	ADIW R26,@1
	CALL __PUTDP1
	.ENDM

	.MACRO __PUTB1PMN
	LDS  R26,@0
	LDS  R27,@0+1
	SUBI R26,LOW(-@1)
	SBCI R27,HIGH(-@1)
	ST   X,R30
	.ENDM

	.MACRO __PUTW1PMN
	LDS  R26,@0
	LDS  R27,@0+1
	SUBI R26,LOW(-@1)
	SBCI R27,HIGH(-@1)
	ST   X+,R30
	ST   X,R31
	.ENDM

	.MACRO __PUTD1PMN
	LDS  R26,@0
	LDS  R27,@0+1
	SUBI R26,LOW(-@1)
	SBCI R27,HIGH(-@1)
	CALL __PUTDP1
	.ENDM

	.MACRO __PUTB1PMNS
	LDS  R26,@0
	LDS  R27,@0+1
	ADIW R26,@1
	ST   X,R30
	.ENDM

	.MACRO __PUTW1PMNS
	LDS  R26,@0
	LDS  R27,@0+1
	ADIW R26,@1
	ST   X+,R30
	ST   X,R31
	.ENDM

	.MACRO __PUTD1PMNS
	LDS  R26,@0
	LDS  R27,@0+1
	ADIW R26,@1
	CALL __PUTDP1
	.ENDM

	.MACRO __PUTB1RN
	MOVW R26,R@0
	SUBI R26,LOW(-@1)
	SBCI R27,HIGH(-@1)
	ST   X,R30
	.ENDM

	.MACRO __PUTW1RN
	MOVW R26,R@0
	SUBI R26,LOW(-@1)
	SBCI R27,HIGH(-@1)
	ST   X+,R30
	ST   X,R31
	.ENDM

	.MACRO __PUTD1RN
	MOVW R26,R@0
	SUBI R26,LOW(-@1)
	SBCI R27,HIGH(-@1)
	CALL __PUTDP1
	.ENDM

	.MACRO __PUTB1RNS
	MOVW R26,R@0
	ADIW R26,@1
	ST   X,R30
	.ENDM

	.MACRO __PUTW1RNS
	MOVW R26,R@0
	ADIW R26,@1
	ST   X+,R30
	ST   X,R31
	.ENDM

	.MACRO __PUTD1RNS
	MOVW R26,R@0
	ADIW R26,@1
	CALL __PUTDP1
	.ENDM

	.MACRO __PUTB1RON
	MOV  R26,R@0
	MOV  R27,R@1
	SUBI R26,LOW(-@2)
	SBCI R27,HIGH(-@2)
	ST   X,R30
	.ENDM

	.MACRO __PUTW1RON
	MOV  R26,R@0
	MOV  R27,R@1
	SUBI R26,LOW(-@2)
	SBCI R27,HIGH(-@2)
	ST   X+,R30
	ST   X,R31
	.ENDM

	.MACRO __PUTD1RON
	MOV  R26,R@0
	MOV  R27,R@1
	SUBI R26,LOW(-@2)
	SBCI R27,HIGH(-@2)
	CALL __PUTDP1
	.ENDM

	.MACRO __PUTB1RONS
	MOV  R26,R@0
	MOV  R27,R@1
	ADIW R26,@2
	ST   X,R30
	.ENDM

	.MACRO __PUTW1RONS
	MOV  R26,R@0
	MOV  R27,R@1
	ADIW R26,@2
	ST   X+,R30
	ST   X,R31
	.ENDM

	.MACRO __PUTD1RONS
	MOV  R26,R@0
	MOV  R27,R@1
	ADIW R26,@2
	CALL __PUTDP1
	.ENDM


	.MACRO __GETB1SX
	MOVW R30,R28
	SUBI R30,LOW(-@0)
	SBCI R31,HIGH(-@0)
	LD   R30,Z
	.ENDM

	.MACRO __GETB1HSX
	MOVW R30,R28
	SUBI R30,LOW(-@0)
	SBCI R31,HIGH(-@0)
	LD   R31,Z
	.ENDM

	.MACRO __GETW1SX
	MOVW R30,R28
	SUBI R30,LOW(-@0)
	SBCI R31,HIGH(-@0)
	LD   R0,Z+
	LD   R31,Z
	MOV  R30,R0
	.ENDM

	.MACRO __GETD1SX
	MOVW R30,R28
	SUBI R30,LOW(-@0)
	SBCI R31,HIGH(-@0)
	LD   R0,Z+
	LD   R1,Z+
	LD   R22,Z+
	LD   R23,Z
	MOVW R30,R0
	.ENDM

	.MACRO __GETB2SX
	MOVW R26,R28
	SUBI R26,LOW(-@0)
	SBCI R27,HIGH(-@0)
	LD   R26,X
	.ENDM

	.MACRO __GETW2SX
	MOVW R26,R28
	SUBI R26,LOW(-@0)
	SBCI R27,HIGH(-@0)
	LD   R0,X+
	LD   R27,X
	MOV  R26,R0
	.ENDM

	.MACRO __GETD2SX
	MOVW R26,R28
	SUBI R26,LOW(-@0)
	SBCI R27,HIGH(-@0)
	LD   R0,X+
	LD   R1,X+
	LD   R24,X+
	LD   R25,X
	MOVW R26,R0
	.ENDM

	.MACRO __GETBRSX
	MOVW R30,R28
	SUBI R30,LOW(-@1)
	SBCI R31,HIGH(-@1)
	LD   R@0,Z
	.ENDM

	.MACRO __GETWRSX
	MOVW R30,R28
	SUBI R30,LOW(-@2)
	SBCI R31,HIGH(-@2)
	LD   R@0,Z+
	LD   R@1,Z
	.ENDM

	.MACRO __GETBRSX2
	MOVW R26,R28
	SUBI R26,LOW(-@1)
	SBCI R27,HIGH(-@1)
	LD   R@0,X
	.ENDM

	.MACRO __GETWRSX2
	MOVW R26,R28
	SUBI R26,LOW(-@2)
	SBCI R27,HIGH(-@2)
	LD   R@0,X+
	LD   R@1,X
	.ENDM

	.MACRO __LSLW8SX
	MOVW R30,R28
	SUBI R30,LOW(-@0)
	SBCI R31,HIGH(-@0)
	LD   R31,Z
	CLR  R30
	.ENDM

	.MACRO __PUTB1SX
	MOVW R26,R28
	SUBI R26,LOW(-@0)
	SBCI R27,HIGH(-@0)
	ST   X,R30
	.ENDM

	.MACRO __PUTW1SX
	MOVW R26,R28
	SUBI R26,LOW(-@0)
	SBCI R27,HIGH(-@0)
	ST   X+,R30
	ST   X,R31
	.ENDM

	.MACRO __PUTD1SX
	MOVW R26,R28
	SUBI R26,LOW(-@0)
	SBCI R27,HIGH(-@0)
	ST   X+,R30
	ST   X+,R31
	ST   X+,R22
	ST   X,R23
	.ENDM

	.MACRO __CLRW1SX
	MOVW R26,R28
	SUBI R26,LOW(-@0)
	SBCI R27,HIGH(-@0)
	ST   X+,R30
	ST   X,R30
	.ENDM

	.MACRO __CLRD1SX
	MOVW R26,R28
	SUBI R26,LOW(-@0)
	SBCI R27,HIGH(-@0)
	ST   X+,R30
	ST   X+,R30
	ST   X+,R30
	ST   X,R30
	.ENDM

	.MACRO __PUTB2SX
	MOVW R30,R28
	SUBI R30,LOW(-@0)
	SBCI R31,HIGH(-@0)
	ST   Z,R26
	.ENDM

	.MACRO __PUTW2SX
	MOVW R30,R28
	SUBI R30,LOW(-@0)
	SBCI R31,HIGH(-@0)
	ST   Z+,R26
	ST   Z,R27
	.ENDM

	.MACRO __PUTD2SX
	MOVW R30,R28
	SUBI R30,LOW(-@0)
	SBCI R31,HIGH(-@0)
	ST   Z+,R26
	ST   Z+,R27
	ST   Z+,R24
	ST   Z,R25
	.ENDM

	.MACRO __PUTBSRX
	MOVW R30,R28
	SUBI R30,LOW(-@1)
	SBCI R31,HIGH(-@1)
	ST   Z,R@0
	.ENDM

	.MACRO __PUTWSRX
	MOVW R30,R28
	SUBI R30,LOW(-@2)
	SBCI R31,HIGH(-@2)
	ST   Z+,R@0
	ST   Z,R@1
	.ENDM

	.MACRO __PUTB1SNX
	MOVW R26,R28
	SUBI R26,LOW(-@0)
	SBCI R27,HIGH(-@0)
	LD   R0,X+
	LD   R27,X
	MOV  R26,R0
	SUBI R26,LOW(-@1)
	SBCI R27,HIGH(-@1)
	ST   X,R30
	.ENDM

	.MACRO __PUTW1SNX
	MOVW R26,R28
	SUBI R26,LOW(-@0)
	SBCI R27,HIGH(-@0)
	LD   R0,X+
	LD   R27,X
	MOV  R26,R0
	SUBI R26,LOW(-@1)
	SBCI R27,HIGH(-@1)
	ST   X+,R30
	ST   X,R31
	.ENDM

	.MACRO __PUTD1SNX
	MOVW R26,R28
	SUBI R26,LOW(-@0)
	SBCI R27,HIGH(-@0)
	LD   R0,X+
	LD   R27,X
	MOV  R26,R0
	SUBI R26,LOW(-@1)
	SBCI R27,HIGH(-@1)
	ST   X+,R30
	ST   X+,R31
	ST   X+,R22
	ST   X,R23
	.ENDM

	.MACRO __MULBRR
	MULS R@0,R@1
	MOVW R30,R0
	.ENDM

	.MACRO __MULBRRU
	MUL  R@0,R@1
	MOVW R30,R0
	.ENDM

	.MACRO __MULBRR0
	MULS R@0,R@1
	.ENDM

	.MACRO __MULBRRU0
	MUL  R@0,R@1
	.ENDM

	.MACRO __MULBNWRU
	LDI  R26,@2
	MUL  R26,R@0
	MOVW R30,R0
	MUL  R26,R@1
	ADD  R31,R0
	.ENDM

	.CSEG
	.ORG 0x00

;START OF CODE MARKER
__START_OF_CODE:

;INTERRUPT VECTORS
	JMP  __RESET
	JMP  0x00
	JMP  0x00
	JMP  0x00
	JMP  0x00
	JMP  0x00
	JMP  0x00
	JMP  _ext_int6_isr
	JMP  _ext_int7_isr
	JMP  _timer2_comp_isr
	JMP  0x00
	JMP  _timer1_capt_isr
	JMP  0x00
	JMP  0x00
	JMP  _timer1_ovf_isr
	JMP  0x00
	JMP  0x00
	JMP  0x00
	JMP  0x00
	JMP  0x00
	JMP  0x00
	JMP  0x00
	JMP  0x00
	JMP  0x00
	JMP  0x00
	JMP  0x00
	JMP  0x00
	JMP  0x00
	JMP  0x00
	JMP  0x00
	JMP  0x00
	JMP  0x00
	JMP  0x00
	JMP  0x00
	JMP  0x00

;REGISTER BIT VARIABLES INITIALIZATION
__REG_BIT_VARS:
	.DW  0x0000

_0x90:
	.DB  0xA,0xD7,0x23,0x3C
_0x91:
	.DB  0xA,0xD7,0x23,0x3C
_0x92:
	.DB  0xA,0xD7,0x23,0x3C
_0x93:
	.DB  0xA,0xD7,0x23,0x3C
_0x98:
	.DB  0xA,0xD7,0x23,0x3C
_0x99:
	.DB  0xA,0xD7,0x23,0x3C
_0x9A:
	.DB  0xA,0xD7,0x23,0x3C
_0x9B:
	.DB  0xA,0xD7,0x23,0x3C
_0x0:
	.DB  0x49,0x4D,0x55,0x20,0x54,0x65,0x73,0x74
	.DB  0x20,0x4F,0x4B,0x20,0x3E,0x3E,0x3E,0x3E
	.DB  0x0,0x57,0x61,0x69,0x74,0x20,0x34,0x20
	.DB  0x47,0x79,0x72,0x6F,0x73,0x63,0x6F,0x70
	.DB  0x65,0x0,0x49,0x4D,0x55,0x20,0x54,0x65
	.DB  0x73,0x74,0x20,0x46,0x61,0x69,0x6C,0x20
	.DB  0x3E,0x3E,0x0,0x43,0x68,0x65,0x63,0x6B
	.DB  0x20,0x48,0x61,0x72,0x64,0x77,0x61,0x72
	.DB  0x65,0x21,0x21,0x0,0x47,0x79,0x72,0x6F
	.DB  0x20,0x43,0x61,0x6C,0x6C,0x69,0x62,0x72
	.DB  0x61,0x74,0x65,0x64,0x0,0x3E,0x3E,0x4B
	.DB  0x61,0x6C,0x6D,0x61,0x6E,0x20,0x46,0x69
	.DB  0x6C,0x74,0x65,0x72,0x3E,0x0,0x50,0x69
	.DB  0x74,0x63,0x68,0x3A,0x0
_0x2020060:
	.DB  0x1
_0x2020000:
	.DB  0x2D,0x4E,0x41,0x4E,0x0,0x49,0x4E,0x46
	.DB  0x0

__GLOBAL_INI_TBL:
	.DW  0x01
	.DW  0x02
	.DW  __REG_BIT_VARS*2

	.DW  0x04
	.DW  _P_00_S000002F000
	.DW  _0x98*2

	.DW  0x04
	.DW  _P_01_S000002F000
	.DW  _0x99*2

	.DW  0x04
	.DW  _P_10_S000002F000
	.DW  _0x9A*2

	.DW  0x04
	.DW  _P_11_S000002F000
	.DW  _0x9B*2

	.DW  0x01
	.DW  __seed_G101
	.DW  _0x2020060*2

_0xFFFFFFFF:
	.DW  0

__RESET:
	CLI
	CLR  R30
	OUT  EECR,R30

;INTERRUPT VECTORS ARE PLACED
;AT THE START OF FLASH
	LDI  R31,1
	OUT  MCUCR,R31
	OUT  MCUCR,R30
	STS  XMCRB,R30

;DISABLE WATCHDOG
	LDI  R31,0x18
	OUT  WDTCR,R31
	OUT  WDTCR,R30

;CLEAR R2-R14
	LDI  R24,(14-2)+1
	LDI  R26,2
	CLR  R27
__CLEAR_REG:
	ST   X+,R30
	DEC  R24
	BRNE __CLEAR_REG

;CLEAR SRAM
	LDI  R24,LOW(__CLEAR_SRAM_SIZE)
	LDI  R25,HIGH(__CLEAR_SRAM_SIZE)
	LDI  R26,LOW(__SRAM_START)
	LDI  R27,HIGH(__SRAM_START)
__CLEAR_SRAM:
	ST   X+,R30
	SBIW R24,1
	BRNE __CLEAR_SRAM

;GLOBAL VARIABLES INITIALIZATION
	LDI  R30,LOW(__GLOBAL_INI_TBL*2)
	LDI  R31,HIGH(__GLOBAL_INI_TBL*2)
__GLOBAL_INI_NEXT:
	LPM  R24,Z+
	LPM  R25,Z+
	SBIW R24,0
	BREQ __GLOBAL_INI_END
	LPM  R26,Z+
	LPM  R27,Z+
	LPM  R0,Z+
	LPM  R1,Z+
	MOVW R22,R30
	MOVW R30,R0
__GLOBAL_INI_LOOP:
	LPM  R0,Z+
	ST   X+,R0
	SBIW R24,1
	BRNE __GLOBAL_INI_LOOP
	MOVW R30,R22
	RJMP __GLOBAL_INI_NEXT
__GLOBAL_INI_END:

	OUT  RAMPZ,R24

;HARDWARE STACK POINTER INITIALIZATION
	LDI  R30,LOW(__SRAM_END-__HEAP_SIZE)
	OUT  SPL,R30
	LDI  R30,HIGH(__SRAM_END-__HEAP_SIZE)
	OUT  SPH,R30

;DATA STACK POINTER INITIALIZATION
	LDI  R28,LOW(__SRAM_START+__DSTACK_SIZE)
	LDI  R29,HIGH(__SRAM_START+__DSTACK_SIZE)

	JMP  _main

	.ESEG
	.ORG 0

	.DSEG
	.ORG 0x500

	.CSEG
;/*****************************************************
;This program was produced by the
;CodeWizardAVR V2.05.3 Standard
;Automatic Program Generator
;© Copyright 1998-2011 Pavel Haiduc, HP InfoTech s.r.l.
;http://www.hpinfotech.com
;
;Project :
;Version :
;Date    : 11/4/2019
;Author  : unknown
;Company :
;Comments:
;
;
;Chip type               : ATmega128
;Program type            : Application
;AVR Core Clock frequency: 16.000000 MHz
;Memory model            : Small
;External RAM size       : 0
;Data Stack size         : 1024
;*****************************************************/
;
;#include <mega128.h>
	#ifndef __SLEEP_DEFINED__
	#define __SLEEP_DEFINED__
	.EQU __se_bit=0x20
	.EQU __sm_mask=0x1C
	.EQU __sm_powerdown=0x10
	.EQU __sm_powersave=0x18
	.EQU __sm_standby=0x14
	.EQU __sm_ext_standby=0x1C
	.EQU __sm_adc_noise_red=0x08
	.SET power_ctrl_reg=mcucr
	#endif
;#include <mem.h>
;#include <math.h>
;#include <delay.h>
;#include <stdint.h>
;#include "adroit.h"
;#include "adroit_LCD.h"

	.CSEG
_LCD_Init_Cmd:
	ST   -Y,R26
;	xData -> Y+0
	LD   R30,Y
	ANDI R30,LOW(0xF0)
	ORI  R30,4
	CALL SUBOPT_0x0
	RJMP _0x2080006
_LCD_Perintah:
	ST   -Y,R26
;	xData -> Y+0
	CBI  0x1B,0
	LD   R30,Y
	ANDI R30,LOW(0xF0)
	ORI  R30,LOW(0xC)
	CALL SUBOPT_0x0
	CALL SUBOPT_0x1
	ORI  R30,LOW(0xC)
	CALL SUBOPT_0x0
	__DELAY_USW 2800
	SBI  0x1B,2
	RJMP _0x2080006
_LCD_Data:
	ST   -Y,R26
;	xData -> Y+0
	SBI  0x1B,0
	LD   R30,Y
	ANDI R30,LOW(0xF0)
	ORI  R30,LOW(0xD)
	CALL SUBOPT_0x0
	CALL SUBOPT_0x1
	ORI  R30,LOW(0xD)
	CALL SUBOPT_0x0
	__DELAY_USB 213
	SBI  0x1B,2
	RJMP _0x2080006
_LCD_Init:
	CALL SUBOPT_0x2
	LDI  R26,LOW(48)
	RCALL _LCD_Init_Cmd
	LDI  R26,LOW(5)
	CALL SUBOPT_0x3
	CALL SUBOPT_0x3
	CALL SUBOPT_0x4
	LDI  R26,LOW(32)
	RCALL _LCD_Init_Cmd
	LDI  R26,LOW(40)
	RCALL _LCD_Perintah
	LDI  R26,LOW(16)
	RCALL _LCD_Perintah
	LDI  R26,LOW(12)
	RCALL _LCD_Perintah
	LDI  R26,LOW(6)
	RCALL _LCD_Perintah
	LDI  R26,LOW(1)
	RCALL _LCD_Perintah
	RET
_LCD_GotoXY:
	ST   -Y,R26
	ST   -Y,R17
;	x -> Y+2
;	y -> Y+1
;	baris -> R17
	LDD  R30,Y+1
	CPI  R30,0
	BRNE _0x27
	LDD  R26,Y+2
	SUBI R26,-LOW(128)
	RJMP _0xB7
_0x27:
	LDD  R26,Y+2
	SUBI R26,-LOW(192)
_0xB7:
	RCALL _LCD_Perintah
	LDD  R17,Y+0
	RJMP _0x2080009
_LCD_TextF:
	ST   -Y,R27
	ST   -Y,R26
;	*text -> Y+0
_0x29:
	LD   R30,Y
	LDD  R31,Y+1
	LPM  R30,Z
	CPI  R30,0
	BREQ _0x2B
	LD   R30,Y
	LDD  R31,Y+1
	LPM  R26,Z
	RCALL _LCD_Data
	LD   R30,Y
	LDD  R31,Y+1
	ADIW R30,1
	ST   Y,R30
	STD  Y+1,R31
	RJMP _0x29
_0x2B:
	RJMP _0x2080003
;	*text -> Y+0
_LCD_TulisF:
	ST   -Y,R27
	ST   -Y,R26
;	Baris -> Y+2
;	*text -> Y+0
	LDI  R30,LOW(0)
	ST   -Y,R30
	LDD  R26,Y+3
	RCALL _LCD_GotoXY
	LD   R26,Y
	LDD  R27,Y+1
	RCALL _LCD_TextF
	RJMP _0x2080009
_LCD_Hapus:
	LDI  R26,LOW(1)
	RCALL _LCD_Perintah
	__DELAY_USB 5
	RET
;	Baris -> Y+1
;	i -> R17
;	Baris -> Y+1
;	i -> R17
;	Baris -> Y+2
;	i -> R17
;	j -> R16
_LCD_TulisKiri:
	ST   -Y,R27
	ST   -Y,R26
	ST   -Y,R17
;	Baris -> Y+3
;	*text -> Y+1
;	i -> R17
	LDI  R30,LOW(0)
	ST   -Y,R30
	LDD  R26,Y+4
	RCALL _LCD_GotoXY
	LDI  R17,LOW(0)
_0x39:
	CPI  R17,16
	BRSH _0x3A
	MOV  R30,R17
	LDI  R31,0
	LDD  R26,Y+1
	LDD  R27,Y+1+1
	ADD  R30,R26
	ADC  R31,R27
	LPM  R26,Z
	RCALL _LCD_Data
	CALL SUBOPT_0x2
	SUBI R17,-1
	RJMP _0x39
_0x3A:
	RJMP _0x2080008
;	Baris -> Y+4
;	*text -> Y+2
;	i -> R17
;	j -> R16
;	Baris -> Y+4
;	*text -> Y+2
;	i -> R17
;	j -> R16
;	Baris -> Y+4
;	*text -> Y+2
;	i -> R17
;	j -> R16
_LCD_Angka4:
	ST   -Y,R27
	ST   -Y,R26
;	x -> Y+0
	LDD  R26,Y+1
	TST  R26
	BRPL _0x44
	LD   R30,Y
	LDD  R31,Y+1
	LDI  R26,LOW(65535)
	LDI  R27,HIGH(65535)
	CALL __MULW12
	ST   Y,R30
	STD  Y+1,R31
	LDI  R26,LOW(45)
	RCALL _LCD_Data
_0x44:
	LD   R26,Y
	LDD  R27,Y+1
	LDI  R30,LOW(1000)
	LDI  R31,HIGH(1000)
	CALL SUBOPT_0x5
	LDI  R30,LOW(1000)
	LDI  R31,HIGH(1000)
	CALL __MODW21
	MOVW R26,R30
	LDI  R30,LOW(100)
	LDI  R31,HIGH(100)
	CALL SUBOPT_0x5
	CALL SUBOPT_0x6
	CALL SUBOPT_0x5
	CALL SUBOPT_0x7
	RJMP _0x2080003
;	x -> Y+0
;	x -> Y+0
_LCD_uByte:
	ST   -Y,R26
;	x -> Y+0
	LD   R26,Y
	LDI  R27,0
	LDI  R30,LOW(100)
	LDI  R31,HIGH(100)
	CALL SUBOPT_0x8
	CALL SUBOPT_0x6
	CALL SUBOPT_0x8
	CALL SUBOPT_0x7
	RJMP _0x2080006
;	x -> Y+1
;	i -> R17
_LCD_Float:
	ST   -Y,R26
	SBIW R28,4
	ST   -Y,R17
;	x -> Y+6
;	presisi -> Y+5
;	i -> R17
;	y -> Y+1
	LDD  R26,Y+9
	TST  R26
	BRPL _0x4C
	CALL SUBOPT_0x9
	__GETD1N 0xBF800000
	CALL __MULF12
	__PUTD1S 6
	LDI  R26,LOW(45)
	RCALL _LCD_Data
_0x4C:
	CALL SUBOPT_0x9
	__GETD1N 0x437F0000
	CALL __CMPF12
	BREQ PC+4
	BRCS PC+3
	JMP  _0x4D
	CALL SUBOPT_0xA
	MOV  R26,R30
	RCALL _LCD_uByte
	CALL SUBOPT_0xA
	LDI  R31,0
	CALL SUBOPT_0x9
	CALL SUBOPT_0xB
	RJMP _0xB9
_0x4D:
	CALL SUBOPT_0xA
	MOVW R26,R30
	RCALL _LCD_Angka4
	CALL SUBOPT_0xA
	CALL SUBOPT_0x9
	CLR  R22
	CLR  R23
	CALL __CDF1
_0xB9:
	CALL __SWAPD12
	CALL SUBOPT_0xC
	LDI  R26,LOW(46)
	RCALL _LCD_Data
	LDI  R17,LOW(0)
_0x50:
	LDD  R30,Y+5
	CP   R17,R30
	BRSH _0x51
	__GETD2S 1
	__GETD1N 0x41200000
	CALL __MULF12
	__PUTD1S 1
	CALL SUBOPT_0xD
	SUBI R30,-LOW(48)
	MOV  R26,R30
	RCALL _LCD_Data
	CALL SUBOPT_0xD
	LDI  R31,0
	__GETD2S 1
	CALL SUBOPT_0xB
	CALL __SWAPD12
	CALL SUBOPT_0xC
	SUBI R17,-1
	RJMP _0x50
_0x51:
	LDD  R17,Y+0
	ADIW R28,10
	RET
;#include "adroit_MPU6050.h"
_I2C_Init:
	LDI  R30,LOW(0)
	STS  113,R30
	LDI  R30,LOW(72)
	STS  112,R30
	RET
_I2C_Start:
	ST   -Y,R26
	ST   -Y,R17
;	address -> Y+1
;	twst -> R17
	LDI  R30,LOW(164)
	STS  116,R30
_0x52:
	LDS  R30,116
	ANDI R30,LOW(0x80)
	BREQ _0x52
	CALL SUBOPT_0xE
	CPI  R17,8
	BREQ _0x56
	CPI  R17,16
	BRNE _0x57
_0x56:
	RJMP _0x55
_0x57:
	LDI  R30,LOW(1)
	LDD  R17,Y+0
	RJMP _0x2080003
_0x55:
	CALL SUBOPT_0xF
_0x58:
	LDS  R30,116
	ANDI R30,LOW(0x80)
	BREQ _0x58
	CALL SUBOPT_0xE
	CPI  R17,24
	BREQ _0x5C
	CPI  R17,64
	BRNE _0x5D
_0x5C:
	RJMP _0x5B
_0x5D:
	LDI  R30,LOW(1)
	LDD  R17,Y+0
	RJMP _0x2080003
_0x5B:
	LDI  R30,LOW(0)
	LDD  R17,Y+0
	RJMP _0x2080003
;	address -> Y+1
;	twst -> R17
;	address -> Y+0
_I2C_Stop:
	LDI  R30,LOW(148)
	STS  116,R30
_0x70:
	LDS  R30,116
	ANDI R30,LOW(0x10)
	BRNE _0x70
	RET
_I2C_Write:
	ST   -Y,R26
	ST   -Y,R17
;	data -> Y+1
;	twst -> R17
	CALL SUBOPT_0xF
_0x73:
	LDS  R30,116
	ANDI R30,LOW(0x80)
	BREQ _0x73
	CALL SUBOPT_0xE
	CPI  R17,40
	BREQ _0x76
	LDI  R30,LOW(1)
	LDD  R17,Y+0
	RJMP _0x2080003
_0x76:
	LDI  R30,LOW(0)
	LDD  R17,Y+0
	RJMP _0x2080003
_I2C_ReadAck:
	LDI  R30,LOW(196)
	STS  116,R30
_0x77:
	LDS  R30,116
	ANDI R30,LOW(0x80)
	BREQ _0x77
	RJMP _0x208000A
_I2C_ReadNak:
	LDI  R30,LOW(132)
	STS  116,R30
_0x7A:
	LDS  R30,116
	ANDI R30,LOW(0x80)
	BREQ _0x7A
_0x208000A:
	LDS  R30,115
	RET
_MPU6050ReadBytes:
	ST   -Y,R27
	ST   -Y,R26
	ST   -Y,R17
;	regAddr -> Y+4
;	length -> Y+3
;	*data -> Y+1
;	i -> R17
	LDD  R26,Y+3
	CPI  R26,LOW(0x1)
	BRLO _0x7D
	LDI  R26,LOW(208)
	RCALL _I2C_Start
	LDD  R26,Y+4
	CALL SUBOPT_0x10
	LDD  R30,Y+3
	SUBI R30,LOW(1)
	STD  Y+3,R30
	LDD  R17,Y+3
_0x7F:
	CPI  R17,0
	BRLT _0x80
	CPI  R17,0
	BRNE _0x81
	CALL SUBOPT_0x11
	PUSH R31
	PUSH R30
	RCALL _I2C_ReadNak
	POP  R26
	POP  R27
	RJMP _0xBA
_0x81:
	CALL SUBOPT_0x11
	PUSH R31
	PUSH R30
	RCALL _I2C_ReadAck
	POP  R26
	POP  R27
_0xBA:
	ST   X,R30
	SUBI R17,1
	RJMP _0x7F
_0x80:
	RCALL _I2C_Stop
_0x7D:
	LDD  R17,Y+0
	ADIW R28,5
	RET
_MPU6050ReadByte:
	ST   -Y,R27
	ST   -Y,R26
;	regAddr -> Y+2
;	*data -> Y+0
	LDI  R26,LOW(208)
	RCALL _I2C_Start
	LDD  R26,Y+2
	CALL SUBOPT_0x10
	RCALL _I2C_ReadNak
	LD   R26,Y
	LDD  R27,Y+1
	ST   X,R30
	RCALL _I2C_Stop
	LDI  R30,LOW(1)
_0x2080009:
	ADIW R28,3
	RET
_MPU6050WriteByte:
	ST   -Y,R26
;	regAddr -> Y+1
;	data -> Y+0
	LDI  R26,LOW(208)
	RCALL _I2C_Start
	LDD  R26,Y+1
	RCALL _I2C_Write
	LD   R26,Y
	RCALL _I2C_Write
	RCALL _I2C_Stop
	RJMP _0x2080003
;	regAddr -> Y+4
;	length -> Y+3
;	*data -> Y+1
;	i -> R17
_mpu6050_readBits:
	ST   -Y,R27
	ST   -Y,R26
	ST   -Y,R17
;	regAddr -> Y+5
;	bitStart -> Y+4
;	length -> Y+3
;	*data -> Y+1
;	count -> R17
	LDI  R17,0
	LDD  R26,Y+3
	CPI  R26,LOW(0x1)
	BRLO _0x87
	SBIW R28,1
;	regAddr -> Y+6
;	bitStart -> Y+5
;	length -> Y+4
;	*data -> Y+2
;	b -> Y+0
	LDD  R30,Y+6
	ST   -Y,R30
	MOVW R26,R28
	ADIW R26,1
	RCALL _MPU6050ReadByte
	MOV  R17,R30
	CPI  R30,0
	BREQ _0x88
	SBIW R28,1
;	regAddr -> Y+7
;	bitStart -> Y+6
;	length -> Y+5
;	*data -> Y+3
;	b -> Y+1
;	mask -> Y+0
	LDD  R30,Y+5
	LDI  R26,LOW(1)
	CALL __LSLB12
	SUBI R30,LOW(1)
	MOV  R0,R30
	LDD  R26,Y+5
	LDD  R30,Y+6
	CALL SUBOPT_0x12
	LD   R30,Y
	LDD  R26,Y+1
	AND  R30,R26
	STD  Y+1,R30
	LDD  R26,Y+5
	LDD  R30,Y+6
	SUB  R30,R26
	SUBI R30,-LOW(1)
	LDD  R26,Y+1
	CALL __LSRB12
	STD  Y+1,R30
	LDD  R26,Y+3
	LDD  R27,Y+3+1
	ST   X,R30
	ADIW R28,1
_0x88:
	ADIW R28,1
_0x87:
	MOV  R30,R17
	LDD  R17,Y+0
	RJMP _0x2080005
;	regAddr -> Y+5
;	bitNum -> Y+4
;	*data -> Y+2
;	b -> R17
;	count -> R16
_mpu6050_writeBits:
	ST   -Y,R26
;	regAddr -> Y+3
;	bitStart -> Y+2
;	length -> Y+1
;	data -> Y+0
	LDD  R26,Y+1
	CPI  R26,LOW(0x1)
	BRLO _0x89
	SBIW R28,1
	LDI  R30,LOW(0)
	ST   Y,R30
;	regAddr -> Y+4
;	bitStart -> Y+3
;	length -> Y+2
;	data -> Y+1
;	b -> Y+0
	LDD  R30,Y+4
	ST   -Y,R30
	MOVW R26,R28
	ADIW R26,1
	RCALL _MPU6050ReadByte
	CPI  R30,0
	BREQ _0x8A
	SBIW R28,1
;	regAddr -> Y+5
;	bitStart -> Y+4
;	length -> Y+3
;	data -> Y+2
;	b -> Y+1
;	mask -> Y+0
	LDD  R30,Y+3
	LDI  R26,LOW(1)
	CALL __LSLB12
	SUBI R30,LOW(1)
	MOV  R0,R30
	LDD  R26,Y+3
	LDD  R30,Y+4
	CALL SUBOPT_0x12
	LDD  R26,Y+3
	LDD  R30,Y+4
	SUB  R30,R26
	SUBI R30,-LOW(1)
	LDD  R26,Y+2
	CALL __LSLB12
	STD  Y+2,R30
	LD   R30,Y
	LDD  R26,Y+2
	AND  R30,R26
	STD  Y+2,R30
	LD   R30,Y
	COM  R30
	LDD  R26,Y+1
	AND  R30,R26
	STD  Y+1,R30
	LDD  R30,Y+2
	LDD  R26,Y+1
	OR   R30,R26
	STD  Y+1,R30
	LDD  R30,Y+5
	ST   -Y,R30
	LDD  R26,Y+2
	RCALL _MPU6050WriteByte
	ADIW R28,1
_0x8A:
	ADIW R28,1
_0x89:
	RJMP _0x2080007
_mpu6050_writeBit:
	ST   -Y,R26
	ST   -Y,R17
;	regAddr -> Y+3
;	bitNum -> Y+2
;	data -> Y+1
;	b -> R17
	LDD  R30,Y+3
	ST   -Y,R30
	IN   R26,SPL
	IN   R27,SPH
	PUSH R17
	RCALL _MPU6050ReadByte
	POP  R17
	LDD  R26,Y+1
	CPI  R26,LOW(0x0)
	BREQ _0x8B
	LDD  R30,Y+2
	LDI  R26,LOW(1)
	LDI  R27,HIGH(1)
	CALL __LSLW12
	OR   R30,R17
	RJMP _0x8C
_0x8B:
	LDD  R30,Y+2
	LDI  R26,LOW(1)
	LDI  R27,HIGH(1)
	CALL __LSLW12
	COM  R30
	COM  R31
	MOV  R26,R17
	LDI  R27,0
	AND  R30,R26
	AND  R31,R27
_0x8C:
	MOV  R17,R30
	LDD  R30,Y+3
	ST   -Y,R30
	MOV  R26,R17
	RCALL _MPU6050WriteByte
_0x2080008:
	LDD  R17,Y+0
_0x2080007:
	ADIW R28,4
	RET
_MPU6050_SleepDisabled:
	LDI  R30,LOW(107)
	ST   -Y,R30
	LDI  R30,LOW(6)
	ST   -Y,R30
	LDI  R26,LOW(0)
	RCALL _mpu6050_writeBit
	RET
_MPU6050_TestConnection:
	SBIW R28,1
;	buffer -> Y+0
	LDI  R30,LOW(117)
	ST   -Y,R30
	LDI  R30,LOW(6)
	ST   -Y,R30
	ST   -Y,R30
	MOVW R26,R28
	ADIW R26,3
	RCALL _mpu6050_readBits
	LD   R26,Y
	CPI  R26,LOW(0x34)
	BRNE _0x8E
	LDI  R30,LOW(1)
	RJMP _0x2080006
_0x8E:
	LDI  R30,LOW(0)
_0x2080006:
	ADIW R28,1
	RET
_MPU6050_Init:
	CALL SUBOPT_0x2
	RCALL _MPU6050_SleepDisabled
	LDI  R26,LOW(10)
	CALL SUBOPT_0x4
	LDI  R30,LOW(107)
	ST   -Y,R30
	LDI  R30,LOW(2)
	ST   -Y,R30
	LDI  R30,LOW(3)
	ST   -Y,R30
	LDI  R26,LOW(1)
	RCALL _mpu6050_writeBits
	LDI  R30,LOW(26)
	ST   -Y,R30
	LDI  R30,LOW(2)
	ST   -Y,R30
	LDI  R30,LOW(3)
	ST   -Y,R30
	LDI  R26,LOW(3)
	RCALL _mpu6050_writeBits
	LDI  R30,LOW(25)
	ST   -Y,R30
	LDI  R26,LOW(9)
	RCALL _MPU6050WriteByte
	LDI  R30,LOW(27)
	ST   -Y,R30
	LDI  R30,LOW(4)
	ST   -Y,R30
	LDI  R30,LOW(2)
	ST   -Y,R30
	LDI  R26,LOW(2)
	RCALL _mpu6050_writeBits
	LDI  R30,LOW(28)
	ST   -Y,R30
	LDI  R30,LOW(4)
	ST   -Y,R30
	LDI  R30,LOW(2)
	ST   -Y,R30
	LDI  R26,LOW(0)
	RCALL _mpu6050_writeBits
	RET
_BacaAccelerometer:
	SBIW R28,6
;	buffer -> Y+0
	LDI  R30,LOW(59)
	CALL SUBOPT_0x13
	STS  _Ax,R30
	STS  _Ax+1,R31
	LDD  R30,Y+2
	LDD  R31,Y+2+1
	STS  _Ay,R30
	STS  _Ay+1,R31
	LD   R30,Y
	LDD  R31,Y+1
	STS  _Az,R30
	STS  _Az+1,R31
	RJMP _0x2080005
_BacaGyroScope:
	SBIW R28,6
;	buffer -> Y+0
	LDI  R30,LOW(67)
	CALL SUBOPT_0x13
	STS  _Gx,R30
	STS  _Gx+1,R31
	LDD  R30,Y+2
	LDD  R31,Y+2+1
	STS  _Gy,R30
	STS  _Gy+1,R31
	LD   R30,Y
	LDD  R31,Y+1
	STS  _Gz,R30
	STS  _Gz+1,R31
_0x2080005:
	ADIW R28,6
	RET
_invSqrt:
	CALL __PUTPARD2
	SBIW R28,12
;	x -> Y+12
;	halfx -> Y+8
;	y -> Y+4
;	i -> Y+0
	__GETD1S 12
	__GETD2N 0x3F000000
	CALL SUBOPT_0x14
	__GETD1S 12
	CALL SUBOPT_0x15
	CALL SUBOPT_0x16
	CALL __ASRD1
	__GETD2N 0x5F3759DF
	CALL __SUBD21
	CALL __PUTD2S0
	CALL SUBOPT_0x17
	CALL SUBOPT_0x15
	CALL SUBOPT_0x18
	CALL SUBOPT_0x19
	__GETD2N 0x3FC00000
	CALL SUBOPT_0x1A
	CALL SUBOPT_0x19
	CALL SUBOPT_0x15
	RJMP _0x2080004
;	x -> Y+2
;	*i -> R16,R17

	.DSEG

	.CSEG

	.DSEG

	.CSEG

	.DSEG

	.CSEG

	.DSEG

	.CSEG
;	K_0 -> Y+8
;	K_1 -> Y+4
;	buffer -> Y+0
_HitungKalmanPitch:

	.DSEG

	.CSEG

	.DSEG

	.CSEG

	.DSEG

	.CSEG

	.DSEG

	.CSEG
	SBIW R28,16
;	K_0 -> Y+12
;	K_1 -> Y+8
;	buffer -> Y+4
;	AccPitch -> Y+0
	CALL SUBOPT_0x1B
	CALL SUBOPT_0x1C
	__PUTD1S 4
	CALL SUBOPT_0x1D
	CALL SUBOPT_0x1E
	CALL __SUBF12
	CALL SUBOPT_0x1F
	CALL __SUBF12
	__GETD2N 0x3A83126F
	CALL __ADDF12
	CALL SUBOPT_0x1C
	CALL SUBOPT_0x20
	CALL __ADDF12
	CALL SUBOPT_0x21
	__GETD2S 4
	CALL SUBOPT_0x22
	CALL __SUBF12
	CALL SUBOPT_0x23
	__GETD2S 4
	LDS  R30,_P_10_S000002F000
	LDS  R31,_P_10_S000002F000+1
	LDS  R22,_P_10_S000002F000+2
	LDS  R23,_P_10_S000002F000+3
	CALL __SUBF12
	CALL SUBOPT_0x24
	CALL SUBOPT_0x1B
	__GETD2N 0x377BA882
	CALL __ADDF12
	CALL SUBOPT_0x25
	CALL SUBOPT_0x26
	__GETD2N 0x3CF5C28F
	CALL __ADDF12
	CALL SUBOPT_0x27
	CALL SUBOPT_0x15
	CALL SUBOPT_0x20
	CALL __MULF12
	__PUTD1S 12
	CALL SUBOPT_0x1E
	CALL SUBOPT_0x1D
	CALL SUBOPT_0x14
	LDS  R30,_Gy
	LDS  R31,_Gy+1
	CALL SUBOPT_0xB
	CALL SUBOPT_0x28
	CALL __SUBF12
	__GETD2N 0x391FD80A
	CALL SUBOPT_0x29
	LDS  R26,_Az+1
	TST  R26
	BRPL _0x9C
	CALL SUBOPT_0x2A
	PUSH R23
	PUSH R22
	PUSH R31
	PUSH R30
	CALL SUBOPT_0x2B
	MOVW R26,R30
	MOVW R24,R22
	CALL SUBOPT_0x2B
	CALL __MULF12
	PUSH R23
	PUSH R22
	PUSH R31
	PUSH R30
	CALL SUBOPT_0x2C
	CALL SUBOPT_0x2D
	CALL __MULF12
	POP  R26
	POP  R27
	POP  R24
	POP  R25
	CALL SUBOPT_0x2E
	POP  R26
	POP  R27
	POP  R24
	POP  R25
	CALL SUBOPT_0x2F
	RJMP _0xBC
_0x9C:
	LDS  R26,_Ax
	LDS  R27,_Ax+1
	CALL __CPW02
	BRGE _0x9E
	CALL SUBOPT_0x2B
	PUSH R23
	PUSH R22
	PUSH R31
	PUSH R30
	CALL SUBOPT_0x2A
	MOVW R26,R30
	MOVW R24,R22
	CALL SUBOPT_0x2A
	CALL __MULF12
	PUSH R23
	PUSH R22
	PUSH R31
	PUSH R30
	CALL SUBOPT_0x2C
	CALL SUBOPT_0x2D
	CALL __MULF12
	POP  R26
	POP  R27
	POP  R24
	POP  R25
	CALL SUBOPT_0x2E
	POP  R26
	POP  R27
	POP  R24
	POP  R25
	CALL SUBOPT_0x2F
	__GETD2N 0x42B40000
	CALL __ADDF12
	RJMP _0xBC
_0x9E:
	CALL SUBOPT_0x2B
	PUSH R23
	PUSH R22
	PUSH R31
	PUSH R30
	CALL SUBOPT_0x2A
	MOVW R26,R30
	MOVW R24,R22
	CALL SUBOPT_0x2A
	CALL __MULF12
	PUSH R23
	PUSH R22
	PUSH R31
	PUSH R30
	CALL SUBOPT_0x2C
	CALL SUBOPT_0x2D
	CALL __MULF12
	POP  R26
	POP  R27
	POP  R24
	POP  R25
	CALL SUBOPT_0x2E
	POP  R26
	POP  R27
	POP  R24
	POP  R25
	CALL SUBOPT_0x2F
	__GETD2N 0xC2B40000
	CALL SUBOPT_0x1A
_0xBC:
	CALL __PUTD1S0
	LDS  R26,_Pitch
	LDS  R27,_Pitch+1
	LDS  R24,_Pitch+2
	LDS  R25,_Pitch+3
	CALL SUBOPT_0x17
	CALL __SUBF12
	CALL SUBOPT_0x15
	CALL SUBOPT_0x30
	CALL SUBOPT_0x29
	CALL SUBOPT_0x1E
	CALL SUBOPT_0x18
	CALL SUBOPT_0x28
	CALL SUBOPT_0x31
	CALL SUBOPT_0x26
	CALL SUBOPT_0x30
	CALL __MULF12
	CALL SUBOPT_0x20
	CALL SUBOPT_0x1A
	CALL SUBOPT_0x21
	CALL SUBOPT_0x22
	CALL SUBOPT_0x30
	CALL __MULF12
	CALL SUBOPT_0x1F
	CALL SUBOPT_0x1A
	CALL SUBOPT_0x23
	CALL SUBOPT_0x26
	CALL SUBOPT_0x18
	CALL SUBOPT_0x1D
	CALL SUBOPT_0x1A
	CALL SUBOPT_0x24
	CALL SUBOPT_0x22
	CALL SUBOPT_0x18
	LDS  R26,_P_11_S000002F000
	LDS  R27,_P_11_S000002F000+1
	LDS  R24,_P_11_S000002F000+2
	LDS  R25,_P_11_S000002F000+3
	CALL SUBOPT_0x1A
	CALL SUBOPT_0x25
_0x2080004:
	ADIW R28,16
	RET
_KalibrasiGyroScope:
	ST   -Y,R17
;	i -> R17
	LDI  R30,LOW(0)
	STS  _GxOffset,R30
	STS  _GxOffset+1,R30
	STS  _GxOffset+2,R30
	STS  _GxOffset+3,R30
	STS  _GyOffset,R30
	STS  _GyOffset+1,R30
	STS  _GyOffset+2,R30
	STS  _GyOffset+3,R30
	STS  _GzOffset,R30
	STS  _GzOffset+1,R30
	STS  _GzOffset+2,R30
	STS  _GzOffset+3,R30
	LDI  R17,LOW(0)
_0xA1:
	CPI  R17,100
	BRSH _0xA2
	RCALL _BacaGyroScope
	LDS  R30,_Gx
	LDS  R31,_Gx+1
	CALL SUBOPT_0x32
	CALL SUBOPT_0xB
	CALL __ADDF12
	CALL SUBOPT_0x33
	LDS  R30,_Gy
	LDS  R31,_Gy+1
	CALL SUBOPT_0x28
	CALL SUBOPT_0xB
	CALL SUBOPT_0x31
	LDS  R30,_Gz
	LDS  R31,_Gz+1
	CALL SUBOPT_0x34
	CALL SUBOPT_0xB
	CALL __ADDF12
	CALL SUBOPT_0x35
	LDI  R26,LOW(1)
	CALL SUBOPT_0x4
	SUBI R17,-1
	RJMP _0xA1
_0xA2:
	CALL SUBOPT_0x32
	CALL SUBOPT_0x36
	CALL SUBOPT_0x33
	CALL SUBOPT_0x28
	CALL SUBOPT_0x36
	STS  _GyOffset,R30
	STS  _GyOffset+1,R31
	STS  _GyOffset+2,R22
	STS  _GyOffset+3,R23
	CALL SUBOPT_0x34
	CALL SUBOPT_0x36
	CALL SUBOPT_0x35
	LD   R17,Y+
	RET
;#include "adroit_i2c.h"
;#include "adroit_buzzer.h"
_BuzzerOff:
	LDI  R30,LOW(0)
	OUT  0x33,R30
	CBI  0x18,4
	OUT  0x30,R30
	RET
_FBuzzer:
	ST   -Y,R27
	ST   -Y,R26
;	x -> Y+0
	LD   R26,Y
	LDD  R27,Y+1
	CPI  R26,LOW(0x7D)
	LDI  R30,HIGH(0x7D)
	CPC  R27,R30
	BRLO _0xA6
	CPI  R26,LOW(0x2711)
	LDI  R30,HIGH(0x2711)
	CPC  R27,R30
	BRLO _0xA7
_0xA6:
	RJMP _0xA5
_0xA7:
	LD   R26,Y
	LDD  R27,Y+1
	CPI  R26,LOW(0x7D0)
	LDI  R30,HIGH(0x7D0)
	CPC  R27,R30
	BRLO _0xA8
	LDI  R30,LOW(26)
	CALL SUBOPT_0x37
	__GETD2N 0x7A120
	CALL __DIVD21
	OUT  0x31,R30
_0xA8:
	LD   R26,Y
	LDD  R27,Y+1
	CPI  R26,LOW(0x3E8)
	LDI  R30,HIGH(0x3E8)
	CPC  R27,R30
	BRLO _0xA9
	LDI  R30,LOW(27)
	CALL SUBOPT_0x37
	__GETD2N 0x3D090
	CALL __DIVD21
	RJMP _0xBD
_0xA9:
	LD   R26,Y
	LDD  R27,Y+1
	CPI  R26,LOW(0x1F4)
	LDI  R30,HIGH(0x1F4)
	CPC  R27,R30
	BRLO _0xAB
	LDI  R30,LOW(28)
	CALL SUBOPT_0x37
	__GETD2N 0x1E848
	CALL __DIVD21
	RJMP _0xBD
_0xAB:
	LD   R26,Y
	LDD  R27,Y+1
	CPI  R26,LOW(0xFA)
	LDI  R30,HIGH(0xFA)
	CPC  R27,R30
	BRLO _0xAD
	LDI  R30,LOW(29)
	CALL SUBOPT_0x37
	__GETD2N 0x107AC
	CALL __DIVD21
	RJMP _0xBD
_0xAD:
	LDI  R30,LOW(30)
	OUT  0x33,R30
	LDI  R30,LOW(0)
	OUT  0x32,R30
	LD   R30,Y
	LDD  R31,Y+1
	LDI  R26,LOW(33750)
	LDI  R27,HIGH(33750)
	CALL __DIVW21U
_0xBD:
	OUT  0x31,R30
	RJMP _0xAF
_0xA5:
	RCALL _BuzzerOff
_0xAF:
_0x2080003:
	ADIW R28,2
	RET
_Buzzer:
	ST   -Y,R27
	ST   -Y,R26
;	Frek -> Y+2
;	Tempo -> Y+0
	LDD  R26,Y+2
	LDD  R27,Y+2+1
	RCALL _FBuzzer
	LD   R26,Y
	LDD  R27,Y+1
	CALL _delay_ms
	RCALL _BuzzerOff
	RJMP _0x2080001
_Nada1:
	CALL SUBOPT_0x38
	CALL SUBOPT_0x39
	CALL SUBOPT_0x3A
	CALL SUBOPT_0x3B
	CALL SUBOPT_0x39
	LDI  R30,LOW(2000)
	LDI  R31,HIGH(2000)
	ST   -Y,R31
	ST   -Y,R30
	LDI  R26,LOW(50)
	RJMP _0x2080002
_Nada2:
	CALL SUBOPT_0x3A
	CALL SUBOPT_0x39
	LDI  R30,LOW(2500)
	LDI  R31,HIGH(2500)
	CALL SUBOPT_0x3C
	CALL SUBOPT_0x38
	CALL SUBOPT_0x3B
	LDI  R26,LOW(50)
	RJMP _0x2080002
_Nada3:
	CALL SUBOPT_0x3A
	CALL SUBOPT_0x3D
	CALL SUBOPT_0x38
	LDI  R26,LOW(150)
	LDI  R27,0
	RCALL _Buzzer
	LDI  R30,LOW(500)
	LDI  R31,HIGH(500)
	ST   -Y,R31
	ST   -Y,R30
	LDI  R26,LOW(20)
	LDI  R27,0
	RCALL _Buzzer
	CALL SUBOPT_0x3A
	CALL SUBOPT_0x39
	LDI  R30,LOW(2000)
	LDI  R31,HIGH(2000)
	ST   -Y,R31
	ST   -Y,R30
	LDI  R26,LOW(50)
	RJMP _0x2080002
_Nada4:
	LDI  R30,LOW(2000)
	LDI  R31,HIGH(2000)
	CALL SUBOPT_0x3C
	CALL SUBOPT_0x3A
	CALL SUBOPT_0x3D
	LDI  R30,LOW(3500)
	LDI  R31,HIGH(3500)
	ST   -Y,R31
	ST   -Y,R30
	CALL SUBOPT_0x3B
	LDI  R26,LOW(100)
_0x2080002:
	LDI  R27,0
	RCALL _Buzzer
	RET
;#include "adroit_global.h"
;
;bit IMU_Start;		// flag untuk start IMU pada interupsi timer setiap 5 ms
;volatile int16_t Ax, Ay, Az, Gx, Gy, Gz;
;volatile float GxOffset, GyOffset, GzOffset;	// offset dari gyroscope
;volatile float Roll, Pitch, Yaw;
;
;// External Interrupt 6 service routine
;interrupt [EXT_INT6] void ext_int6_isr(void)
; 0000 002B {
_ext_int6_isr:
; 0000 002C // Place your code here
; 0000 002D 
; 0000 002E }
	RETI
;
;// External Interrupt 7 service routine
;interrupt [EXT_INT7] void ext_int7_isr(void)
; 0000 0032 {
_ext_int7_isr:
; 0000 0033 // Place your code here
; 0000 0034 
; 0000 0035 }
	RETI
;
;// Timer1 overflow interrupt service routine
;interrupt [TIM1_OVF] void timer1_ovf_isr(void)
; 0000 0039 {
_timer1_ovf_isr:
	ST   -Y,R0
	ST   -Y,R1
	ST   -Y,R15
	ST   -Y,R22
	ST   -Y,R23
	ST   -Y,R24
	ST   -Y,R25
	ST   -Y,R26
	ST   -Y,R27
	ST   -Y,R30
	ST   -Y,R31
	IN   R30,SREG
	ST   -Y,R30
; 0000 003A // Place your code here
; 0000 003B if(IMU_Start==1)
	SBRS R2,2
	RJMP _0xB0
; 0000 003C     {   	BacaAccelerometer();	// membaca data accelerometer
	RCALL _BacaAccelerometer
; 0000 003D      	BacaGyroScope(); 	// membaca data gyroscope
	RCALL _BacaGyroScope
; 0000 003E 	    	HitungKalmanPitch(); 	// memanggil fungsi perhitungan kalma sudut pitch
	RCALL _HitungKalmanPitch
; 0000 003F     }
; 0000 0040 }
_0xB0:
	LD   R30,Y+
	OUT  SREG,R30
	LD   R31,Y+
	LD   R30,Y+
	LD   R27,Y+
	LD   R26,Y+
	LD   R25,Y+
	LD   R24,Y+
	LD   R23,Y+
	LD   R22,Y+
	LD   R15,Y+
	LD   R1,Y+
	LD   R0,Y+
	RETI
;
;// Timer1 input capture interrupt service routine
;interrupt [TIM1_CAPT] void timer1_capt_isr(void)
; 0000 0044 {
_timer1_capt_isr:
; 0000 0045 // Place your code here
; 0000 0046 
; 0000 0047 }
	RETI
;
;// Timer2 output compare interrupt service routine
;interrupt [TIM2_COMP] void timer2_comp_isr(void)
; 0000 004B {
_timer2_comp_isr:
; 0000 004C // Place your code here
; 0000 004D 
; 0000 004E }
	RETI
;
;// Declare your global variables here
;
;void main(void)
; 0000 0053 {
_main:
; 0000 0054 // Declare your local variables here
; 0000 0055 unsigned char data1, data2;	int Jarak;
; 0000 0056 
; 0000 0057 // Input/Output Ports initialization
; 0000 0058 // Port A initialization
; 0000 0059 // Func7=Out Func6=Out Func5=Out Func4=Out Func3=Out Func2=Out Func1=Out Func0=Out
; 0000 005A // State7=0 State6=0 State5=0 State4=0 State3=0 State2=0 State1=0 State0=0
; 0000 005B PORTA=0x00;
;	data1 -> R17
;	data2 -> R16
;	Jarak -> R18,R19
	LDI  R30,LOW(0)
	OUT  0x1B,R30
; 0000 005C DDRA=0xFF;
	LDI  R30,LOW(255)
	OUT  0x1A,R30
; 0000 005D 
; 0000 005E // Port B initialization
; 0000 005F // Func7=Out Func6=Out Func5=Out Func4=Out Func3=Out Func2=In Func1=In Func0=In
; 0000 0060 // State7=0 State6=0 State5=0 State4=0 State3=0 State2=P State1=T State0=P
; 0000 0061 PORTB=0x05;
	LDI  R30,LOW(5)
	OUT  0x18,R30
; 0000 0062 DDRB=0xF8;
	LDI  R30,LOW(248)
	OUT  0x17,R30
; 0000 0063 
; 0000 0064 // Port C initialization
; 0000 0065 // Func7=Out Func6=Out Func5=Out Func4=Out Func3=In Func2=In Func1=In Func0=In
; 0000 0066 // State7=0 State6=0 State5=0 State4=0 State3=P State2=P State1=P State0=P
; 0000 0067 PORTC=0x0F;
	LDI  R30,LOW(15)
	OUT  0x15,R30
; 0000 0068 DDRC=0xF0;
	LDI  R30,LOW(240)
	OUT  0x14,R30
; 0000 0069 
; 0000 006A // Port D initialization
; 0000 006B // Func7=Out Func6=Out Func5=Out Func4=Out Func3=In Func2=In Func1=In Func0=In
; 0000 006C // State7=0 State6=0 State5=0 State4=0 State3=T State2=T State1=T State0=T
; 0000 006D PORTD=0x00;
	LDI  R30,LOW(0)
	OUT  0x12,R30
; 0000 006E DDRD=0xF0;
	LDI  R30,LOW(240)
	OUT  0x11,R30
; 0000 006F 
; 0000 0070 // Port E initialization
; 0000 0071 // Func7=In Func6=In Func5=Out Func4=Out Func3=Out Func2=Out Func1=In Func0=In
; 0000 0072 // State7=P State6=P State5=0 State4=0 State3=0 State2=0 State1=T State0=T
; 0000 0073 PORTE=0xC0;
	LDI  R30,LOW(192)
	OUT  0x3,R30
; 0000 0074 DDRE=0x3C;
	LDI  R30,LOW(60)
	OUT  0x2,R30
; 0000 0075 
; 0000 0076 // Port F initialization
; 0000 0077 // Func7=In Func6=In Func5=In Func4=In Func3=In Func2=In Func1=In Func0=In
; 0000 0078 // State7=T State6=T State5=T State4=T State3=T State2=T State1=T State0=T
; 0000 0079 PORTF=0x00;
	LDI  R30,LOW(0)
	STS  98,R30
; 0000 007A DDRF=0x00;
	STS  97,R30
; 0000 007B 
; 0000 007C // Port G initialization
; 0000 007D // Func4=In Func3=In Func2=In Func1=In Func0=In
; 0000 007E // State4=T State3=P State2=P State1=P State0=P
; 0000 007F PORTG=0x0F;
	LDI  R30,LOW(15)
	STS  101,R30
; 0000 0080 DDRG=0x00;
	LDI  R30,LOW(0)
	STS  100,R30
; 0000 0081 
; 0000 0082 // Timer/Counter 0 initialization
; 0000 0083 // Clock source: System Clock
; 0000 0084 // Clock value: 250.000 kHz
; 0000 0085 // Mode: CTC top=OCR0
; 0000 0086 // OC0 output: Toggle on compare match
; 0000 0087 ASSR=0x00;
	OUT  0x30,R30
; 0000 0088 TCCR0=0x1C;
	LDI  R30,LOW(28)
	OUT  0x33,R30
; 0000 0089 TCNT0=0x00;
	LDI  R30,LOW(0)
	OUT  0x32,R30
; 0000 008A OCR0=0x00;
	OUT  0x31,R30
; 0000 008B 
; 0000 008C // Timer/Counter 1 initialization
; 0000 008D // Clock source: System Clock
; 0000 008E // Clock value: 2000.000 kHz
; 0000 008F // Mode: Ph. & fr. cor. PWM top=ICR1
; 0000 0090 // OC1A output: Non-Inv.
; 0000 0091 // OC1B output: Non-Inv.
; 0000 0092 // OC1C output: Non-Inv.
; 0000 0093 // Noise Canceler: Off
; 0000 0094 // Input Capture on Falling Edge
; 0000 0095 // Timer1 Overflow Interrupt: On
; 0000 0096 // Input Capture Interrupt: On
; 0000 0097 // Compare A Match Interrupt: Off
; 0000 0098 // Compare B Match Interrupt: Off
; 0000 0099 // Compare C Match Interrupt: Off
; 0000 009A TCCR1A=0xA8;
	LDI  R30,LOW(168)
	OUT  0x2F,R30
; 0000 009B TCCR1B=0x12;
	LDI  R30,LOW(18)
	OUT  0x2E,R30
; 0000 009C TCNT1H=0x00;
	LDI  R30,LOW(0)
	OUT  0x2D,R30
; 0000 009D TCNT1L=0x00;
	OUT  0x2C,R30
; 0000 009E ICR1H=0x13;
	LDI  R30,LOW(19)
	OUT  0x27,R30
; 0000 009F ICR1L=0x87;
	LDI  R30,LOW(135)
	OUT  0x26,R30
; 0000 00A0 OCR1AH=0x00;
	LDI  R30,LOW(0)
	OUT  0x2B,R30
; 0000 00A1 OCR1AL=0x00;
	OUT  0x2A,R30
; 0000 00A2 OCR1BH=0x00;
	OUT  0x29,R30
; 0000 00A3 OCR1BL=0x00;
	OUT  0x28,R30
; 0000 00A4 OCR1CH=0x00;
	STS  121,R30
; 0000 00A5 OCR1CL=0x00;
	STS  120,R30
; 0000 00A6 
; 0000 00A7 // Timer/Counter 2 initialization
; 0000 00A8 // Clock source: System Clock
; 0000 00A9 // Clock value: 250.000 kHz
; 0000 00AA // Mode: CTC top=OCR2
; 0000 00AB // OC2 output: Disconnected
; 0000 00AC TCCR2=0x0B;
	LDI  R30,LOW(11)
	OUT  0x25,R30
; 0000 00AD TCNT2=0x00;
	LDI  R30,LOW(0)
	OUT  0x24,R30
; 0000 00AE OCR2=0xF9;
	LDI  R30,LOW(249)
	OUT  0x23,R30
; 0000 00AF 
; 0000 00B0 // Timer/Counter 3 initialization
; 0000 00B1 // Clock source: System Clock
; 0000 00B2 // Clock value: 16000.000 kHz
; 0000 00B3 // Mode: Ph. correct PWM top=ICR3
; 0000 00B4 // OC3A output: Inverted
; 0000 00B5 // OC3B output: Inverted
; 0000 00B6 // OC3C output: Discon.
; 0000 00B7 // Noise Canceler: Off
; 0000 00B8 // Input Capture on Falling Edge
; 0000 00B9 // Timer3 Overflow Interrupt: Off
; 0000 00BA // Input Capture Interrupt: Off
; 0000 00BB // Compare A Match Interrupt: Off
; 0000 00BC // Compare B Match Interrupt: Off
; 0000 00BD // Compare C Match Interrupt: Off
; 0000 00BE TCCR3A=0xF2;
	LDI  R30,LOW(242)
	STS  139,R30
; 0000 00BF TCCR3B=0x11;
	LDI  R30,LOW(17)
	STS  138,R30
; 0000 00C0 TCNT3H=0x00;
	LDI  R30,LOW(0)
	STS  137,R30
; 0000 00C1 TCNT3L=0x00;
	STS  136,R30
; 0000 00C2 ICR3H=0x01;
	LDI  R30,LOW(1)
	STS  129,R30
; 0000 00C3 ICR3L=0x90;
	LDI  R30,LOW(144)
	STS  128,R30
; 0000 00C4 OCR3AH=0x00;
	LDI  R30,LOW(0)
	STS  135,R30
; 0000 00C5 OCR3AL=0x00;
	STS  134,R30
; 0000 00C6 OCR3BH=0x00;
	STS  133,R30
; 0000 00C7 OCR3BL=0x00;
	STS  132,R30
; 0000 00C8 OCR3CH=0x00;
	STS  131,R30
; 0000 00C9 OCR3CL=0xC8;
	LDI  R30,LOW(200)
	STS  130,R30
; 0000 00CA 
; 0000 00CB // External Interrupt(s) initialization
; 0000 00CC // INT0: Off
; 0000 00CD // INT1: Off
; 0000 00CE // INT2: Off
; 0000 00CF // INT3: Off
; 0000 00D0 // INT4: Off
; 0000 00D1 // INT5: Off
; 0000 00D2 // INT6: On
; 0000 00D3 // INT6 Mode: Any change
; 0000 00D4 // INT7: On
; 0000 00D5 // INT7 Mode: Any change
; 0000 00D6 EICRA=0x00;
	LDI  R30,LOW(0)
	STS  106,R30
; 0000 00D7 EICRB=0x50;
	LDI  R30,LOW(80)
	OUT  0x3A,R30
; 0000 00D8 EIMSK=0xC0;
	LDI  R30,LOW(192)
	OUT  0x39,R30
; 0000 00D9 EIFR=0xC0;
	OUT  0x38,R30
; 0000 00DA 
; 0000 00DB // Timer(s)/Counter(s) Interrupt(s) initialization
; 0000 00DC TIMSK=0xA4;
	LDI  R30,LOW(164)
	OUT  0x37,R30
; 0000 00DD 
; 0000 00DE ETIMSK=0x00;
	LDI  R30,LOW(0)
	STS  125,R30
; 0000 00DF 
; 0000 00E0 // USART0 initialization
; 0000 00E1 // USART0 disabled
; 0000 00E2 UCSR0B=0x00;
	OUT  0xA,R30
; 0000 00E3 
; 0000 00E4 // USART1 initialization
; 0000 00E5 // USART1 disabled
; 0000 00E6 UCSR1B=0x00;
	STS  154,R30
; 0000 00E7 
; 0000 00E8 // Analog Comparator initialization
; 0000 00E9 // Analog Comparator: Off
; 0000 00EA // Analog Comparator Input Capture by Timer/Counter 1: Off
; 0000 00EB ACSR=0x80;
	LDI  R30,LOW(128)
	OUT  0x8,R30
; 0000 00EC SFIOR=0x00;
	LDI  R30,LOW(0)
	OUT  0x20,R30
; 0000 00ED 
; 0000 00EE // ADC initialization
; 0000 00EF // ADC disabled
; 0000 00F0 ADCSRA=0x00;
	OUT  0x6,R30
; 0000 00F1 
; 0000 00F2 // SPI initialization
; 0000 00F3 // SPI disabled
; 0000 00F4 SPCR=0x00;
	OUT  0xD,R30
; 0000 00F5 
; 0000 00F6 // TWI initialization
; 0000 00F7 // TWI disabled
; 0000 00F8 TWCR=0x00;
	STS  116,R30
; 0000 00F9 
; 0000 00FA // Global enable interrupts
; 0000 00FB #asm("sei")
	sei
; 0000 00FC 
; 0000 00FD IMU_Start = 0;
	CLT
	BLD  R2,2
; 0000 00FE LCD_Init();
	RCALL _LCD_Init
; 0000 00FF I2C_Init();
	RCALL _I2C_Init
; 0000 0100 delay_ms(100);
	LDI  R26,LOW(100)
	CALL SUBOPT_0x4
; 0000 0101        	MPU6050_Init();
	RCALL _MPU6050_Init
; 0000 0102        	//LCD_BackLight = 1;
; 0000 0103        	if (MPU6050_TestConnection())
	RCALL _MPU6050_TestConnection
	CPI  R30,0
	BREQ _0xB1
; 0000 0104             {   LCD_TulisKiri(0,"IMU Test OK >>>>");
	LDI  R30,LOW(0)
	ST   -Y,R30
	__POINTW2FN _0x0,0
	RCALL _LCD_TulisKiri
; 0000 0105                 LCD_TulisKiri(1,"Wait 4 Gyroscope");
	LDI  R30,LOW(1)
	ST   -Y,R30
	__POINTW2FN _0x0,17
	RCALL _LCD_TulisKiri
; 0000 0106                 Nada1();
	RCALL _Nada1
; 0000 0107             }
; 0000 0108        	else
	RJMP _0xB2
_0xB1:
; 0000 0109             {   LCD_TulisKiri(0,"IMU Test Fail >>");
	LDI  R30,LOW(0)
	ST   -Y,R30
	__POINTW2FN _0x0,34
	RCALL _LCD_TulisKiri
; 0000 010A                 LCD_TulisKiri(1,"Check Hardware!!");
	LDI  R30,LOW(1)
	ST   -Y,R30
	__POINTW2FN _0x0,51
	RCALL _LCD_TulisKiri
; 0000 010B                 Nada2();
	RCALL _Nada2
; 0000 010C             }
_0xB2:
; 0000 010D        	delay_ms(800);
	LDI  R26,LOW(800)
	LDI  R27,HIGH(800)
	CALL _delay_ms
; 0000 010E        	KalibrasiGyroScope();
	RCALL _KalibrasiGyroScope
; 0000 010F 	Roll = 0; 	Pitch = 0; Yaw = 0;	// sudut awal putaran di nolkan
	LDI  R30,LOW(0)
	STS  _Roll,R30
	STS  _Roll+1,R30
	STS  _Roll+2,R30
	STS  _Roll+3,R30
	STS  _Pitch,R30
	STS  _Pitch+1,R30
	STS  _Pitch+2,R30
	STS  _Pitch+3,R30
	STS  _Yaw,R30
	STS  _Yaw+1,R30
	STS  _Yaw+2,R30
	STS  _Yaw+3,R30
; 0000 0110        	LCD_TulisF(1,"Gyro Callibrated");
	LDI  R30,LOW(1)
	ST   -Y,R30
	__POINTW2FN _0x0,68
	RCALL _LCD_TulisF
; 0000 0111 Nada3();	Nada4();
	RCALL _Nada3
	RCALL _Nada4
; 0000 0112 
; 0000 0113 LCD_Hapus();
	RCALL _LCD_Hapus
; 0000 0114 LCD_TulisF(0, ">>Kalman Filter>");
	LDI  R30,LOW(0)
	ST   -Y,R30
	__POINTW2FN _0x0,85
	RCALL _LCD_TulisF
; 0000 0115 LCD_TulisF(1, "Pitch:");
	LDI  R30,LOW(1)
	ST   -Y,R30
	__POINTW2FN _0x0,102
	RCALL _LCD_TulisF
; 0000 0116 IMU_Start = 1;	// Start pembacaan imu pada interupsi timer 1 setiap 5 ms sekali
	SET
	BLD  R2,2
; 0000 0117 while(1)
_0xB3:
; 0000 0118 {	LCD_GotoXY(6,1);
	LDI  R30,LOW(6)
	ST   -Y,R30
	LDI  R26,LOW(1)
	RCALL _LCD_GotoXY
; 0000 0119 LCD_Float(Pitch,3);	LCD_Data(' ');	// menampilkan data mentah gyro sumbu z
	LDS  R30,_Pitch
	LDS  R31,_Pitch+1
	LDS  R22,_Pitch+2
	LDS  R23,_Pitch+3
	CALL __PUTPARD1
	LDI  R26,LOW(3)
	RCALL _LCD_Float
	LDI  R26,LOW(32)
	RCALL _LCD_Data
; 0000 011A 	delay_ms(10);
	LDI  R26,LOW(10)
	CALL SUBOPT_0x4
; 0000 011B }
	RJMP _0xB3
; 0000 011C }
_0xB6:
	RJMP _0xB6

	.CSEG
_xatan:
	CALL __PUTPARD2
	SBIW R28,4
	CALL SUBOPT_0x1E
	CALL SUBOPT_0x19
	CALL SUBOPT_0x16
	__GETD2N 0x40CBD065
	CALL SUBOPT_0x3E
	CALL SUBOPT_0x19
	PUSH R23
	PUSH R22
	PUSH R31
	PUSH R30
	CALL SUBOPT_0x17
	__GETD2N 0x41296D00
	CALL __ADDF12
	CALL SUBOPT_0x3F
	CALL SUBOPT_0x3E
	POP  R26
	POP  R27
	POP  R24
	POP  R25
	CALL __DIVF21
	ADIW R28,8
	RET
_yatan:
	CALL __PUTPARD2
	CALL SUBOPT_0x3F
	__GETD1N 0x3ED413CD
	CALL __CMPF12
	BRSH _0x2000020
	CALL SUBOPT_0x3F
	RCALL _xatan
	RJMP _0x2080001
_0x2000020:
	CALL SUBOPT_0x3F
	__GETD1N 0x401A827A
	CALL __CMPF12
	BREQ PC+2
	BRCC PC+3
	JMP  _0x2000021
	CALL SUBOPT_0x17
	CALL SUBOPT_0x27
	MOVW R26,R30
	MOVW R24,R22
	RCALL _xatan
	__GETD2N 0x3FC90FDB
	CALL SUBOPT_0x1A
	RJMP _0x2080001
_0x2000021:
	CALL SUBOPT_0x40
	CALL __SUBF12
	PUSH R23
	PUSH R22
	PUSH R31
	PUSH R30
	CALL SUBOPT_0x40
	CALL __ADDF12
	POP  R26
	POP  R27
	POP  R24
	POP  R25
	CALL __DIVF21
	MOVW R26,R30
	MOVW R24,R22
	RCALL _xatan
	__GETD2N 0x3F490FDB
	CALL __ADDF12
	RJMP _0x2080001
_atan:
	CALL __PUTPARD2
	LDD  R26,Y+3
	TST  R26
	BRMI _0x200002C
	CALL SUBOPT_0x3F
	RCALL _yatan
	RJMP _0x2080001
_0x200002C:
	CALL SUBOPT_0x17
	CALL __ANEGF1
	MOVW R26,R30
	MOVW R24,R22
	RCALL _yatan
	CALL __ANEGF1
_0x2080001:
	ADIW R28,4
	RET

	.CSEG

	.DSEG

	.CSEG

	.CSEG

	.CSEG

	.DSEG
_Ax:
	.BYTE 0x2
_Ay:
	.BYTE 0x2
_Az:
	.BYTE 0x2
_Gx:
	.BYTE 0x2
_Gy:
	.BYTE 0x2
_Gz:
	.BYTE 0x2
_GxOffset:
	.BYTE 0x4
_GyOffset:
	.BYTE 0x4
_GzOffset:
	.BYTE 0x4
_Roll:
	.BYTE 0x4
_Pitch:
	.BYTE 0x4
_Yaw:
	.BYTE 0x4
_AccRoll:
	.BYTE 0x4
_P_00_S000002F000:
	.BYTE 0x4
_P_01_S000002F000:
	.BYTE 0x4
_P_10_S000002F000:
	.BYTE 0x4
_P_11_S000002F000:
	.BYTE 0x4
__seed_G101:
	.BYTE 0x4

	.CSEG
;OPTIMIZER ADDED SUBROUTINE, CALLED 5 TIMES, CODE SIZE REDUCTION:9 WORDS
SUBOPT_0x0:
	OUT  0x1B,R30
	__DELAY_USB 5
	CBI  0x1B,2
	RET

;OPTIMIZER ADDED SUBROUTINE, CALLED 2 TIMES, CODE SIZE REDUCTION:1 WORDS
SUBOPT_0x1:
	__DELAY_USB 27
	LD   R30,Y
	SWAP R30
	ANDI R30,0xF0
	RET

;OPTIMIZER ADDED SUBROUTINE, CALLED 3 TIMES, CODE SIZE REDUCTION:5 WORDS
SUBOPT_0x2:
	LDI  R26,LOW(50)
	LDI  R27,0
	JMP  _delay_ms

;OPTIMIZER ADDED SUBROUTINE, CALLED 2 TIMES, CODE SIZE REDUCTION:4 WORDS
SUBOPT_0x3:
	LDI  R27,0
	CALL _delay_ms
	LDI  R26,LOW(48)
	CALL _LCD_Init_Cmd
	LDI  R26,LOW(1)
	RET

;OPTIMIZER ADDED SUBROUTINE, CALLED 5 TIMES, CODE SIZE REDUCTION:9 WORDS
SUBOPT_0x4:
	LDI  R27,0
	JMP  _delay_ms

;OPTIMIZER ADDED SUBROUTINE, CALLED 3 TIMES, CODE SIZE REDUCTION:9 WORDS
SUBOPT_0x5:
	CALL __DIVW21
	SUBI R30,-LOW(48)
	MOV  R26,R30
	CALL _LCD_Data
	LD   R26,Y
	LDD  R27,Y+1
	RET

;OPTIMIZER ADDED SUBROUTINE, CALLED 2 TIMES, CODE SIZE REDUCTION:2 WORDS
SUBOPT_0x6:
	LDI  R30,LOW(100)
	LDI  R31,HIGH(100)
	CALL __MODW21
	MOVW R26,R30
	LDI  R30,LOW(10)
	LDI  R31,HIGH(10)
	RET

;OPTIMIZER ADDED SUBROUTINE, CALLED 2 TIMES, CODE SIZE REDUCTION:3 WORDS
SUBOPT_0x7:
	LDI  R30,LOW(10)
	LDI  R31,HIGH(10)
	CALL __MODW21
	SUBI R30,-LOW(48)
	MOV  R26,R30
	JMP  _LCD_Data

;OPTIMIZER ADDED SUBROUTINE, CALLED 2 TIMES, CODE SIZE REDUCTION:3 WORDS
SUBOPT_0x8:
	CALL __DIVW21
	SUBI R30,-LOW(48)
	MOV  R26,R30
	CALL _LCD_Data
	LD   R26,Y
	CLR  R27
	RET

;OPTIMIZER ADDED SUBROUTINE, CALLED 4 TIMES, CODE SIZE REDUCTION:3 WORDS
SUBOPT_0x9:
	__GETD2S 6
	RET

;OPTIMIZER ADDED SUBROUTINE, CALLED 4 TIMES, CODE SIZE REDUCTION:9 WORDS
SUBOPT_0xA:
	__GETD1S 6
	CALL __CFD1U
	RET

;OPTIMIZER ADDED SUBROUTINE, CALLED 21 TIMES, CODE SIZE REDUCTION:37 WORDS
SUBOPT_0xB:
	CALL __CWD1
	CALL __CDF1
	RET

;OPTIMIZER ADDED SUBROUTINE, CALLED 2 TIMES, CODE SIZE REDUCTION:1 WORDS
SUBOPT_0xC:
	CALL __SUBF12
	__PUTD1S 1
	RET

;OPTIMIZER ADDED SUBROUTINE, CALLED 2 TIMES, CODE SIZE REDUCTION:1 WORDS
SUBOPT_0xD:
	__GETD1S 1
	CALL __CFD1U
	RET

;OPTIMIZER ADDED SUBROUTINE, CALLED 3 TIMES, CODE SIZE REDUCTION:1 WORDS
SUBOPT_0xE:
	LDS  R30,113
	ANDI R30,LOW(0xF8)
	MOV  R17,R30
	RET

;OPTIMIZER ADDED SUBROUTINE, CALLED 2 TIMES, CODE SIZE REDUCTION:1 WORDS
SUBOPT_0xF:
	LDD  R30,Y+1
	STS  115,R30
	LDI  R30,LOW(132)
	STS  116,R30
	RET

;OPTIMIZER ADDED SUBROUTINE, CALLED 2 TIMES, CODE SIZE REDUCTION:3 WORDS
SUBOPT_0x10:
	CALL _I2C_Write
	__DELAY_USB 27
	LDI  R26,LOW(209)
	JMP  _I2C_Start

;OPTIMIZER ADDED SUBROUTINE, CALLED 2 TIMES, CODE SIZE REDUCTION:3 WORDS
SUBOPT_0x11:
	MOV  R30,R17
	LDD  R26,Y+1
	LDD  R27,Y+1+1
	LDI  R31,0
	ADD  R30,R26
	ADC  R31,R27
	RET

;OPTIMIZER ADDED SUBROUTINE, CALLED 2 TIMES, CODE SIZE REDUCTION:1 WORDS
SUBOPT_0x12:
	SUB  R30,R26
	SUBI R30,-LOW(1)
	MOV  R26,R0
	CALL __LSLB12
	ST   Y,R30
	RET

;OPTIMIZER ADDED SUBROUTINE, CALLED 2 TIMES, CODE SIZE REDUCTION:4 WORDS
SUBOPT_0x13:
	ST   -Y,R30
	LDI  R30,LOW(6)
	ST   -Y,R30
	MOVW R26,R28
	ADIW R26,2
	CALL _MPU6050ReadBytes
	LDD  R30,Y+4
	LDD  R31,Y+4+1
	RET

;OPTIMIZER ADDED SUBROUTINE, CALLED 2 TIMES, CODE SIZE REDUCTION:1 WORDS
SUBOPT_0x14:
	CALL __MULF12
	__PUTD1S 8
	RET

;OPTIMIZER ADDED SUBROUTINE, CALLED 5 TIMES, CODE SIZE REDUCTION:21 WORDS
SUBOPT_0x15:
	__PUTD1S 4
	RET

;OPTIMIZER ADDED SUBROUTINE, CALLED 2 TIMES, CODE SIZE REDUCTION:3 WORDS
SUBOPT_0x16:
	CALL __PUTD1S0
	RET

;OPTIMIZER ADDED SUBROUTINE, CALLED 7 TIMES, CODE SIZE REDUCTION:9 WORDS
SUBOPT_0x17:
	CALL __GETD1S0
	RET

;OPTIMIZER ADDED SUBROUTINE, CALLED 4 TIMES, CODE SIZE REDUCTION:9 WORDS
SUBOPT_0x18:
	__GETD2S 8
	CALL __MULF12
	RET

;OPTIMIZER ADDED SUBROUTINE, CALLED 4 TIMES, CODE SIZE REDUCTION:9 WORDS
SUBOPT_0x19:
	__GETD2S 4
	CALL __MULF12
	RET

;OPTIMIZER ADDED SUBROUTINE, CALLED 7 TIMES, CODE SIZE REDUCTION:9 WORDS
SUBOPT_0x1A:
	CALL __SWAPD12
	CALL __SUBF12
	RET

;OPTIMIZER ADDED SUBROUTINE, CALLED 2 TIMES, CODE SIZE REDUCTION:3 WORDS
SUBOPT_0x1B:
	LDS  R30,_P_11_S000002F000
	LDS  R31,_P_11_S000002F000+1
	LDS  R22,_P_11_S000002F000+2
	LDS  R23,_P_11_S000002F000+3
	RET

;OPTIMIZER ADDED SUBROUTINE, CALLED 2 TIMES, CODE SIZE REDUCTION:1 WORDS
SUBOPT_0x1C:
	__GETD2N 0x3BA3D70A
	CALL __MULF12
	RET

;OPTIMIZER ADDED SUBROUTINE, CALLED 3 TIMES, CODE SIZE REDUCTION:9 WORDS
SUBOPT_0x1D:
	LDS  R26,_P_10_S000002F000
	LDS  R27,_P_10_S000002F000+1
	LDS  R24,_P_10_S000002F000+2
	LDS  R25,_P_10_S000002F000+3
	RET

;OPTIMIZER ADDED SUBROUTINE, CALLED 4 TIMES, CODE SIZE REDUCTION:3 WORDS
SUBOPT_0x1E:
	__GETD1S 4
	RET

;OPTIMIZER ADDED SUBROUTINE, CALLED 2 TIMES, CODE SIZE REDUCTION:3 WORDS
SUBOPT_0x1F:
	LDS  R26,_P_01_S000002F000
	LDS  R27,_P_01_S000002F000+1
	LDS  R24,_P_01_S000002F000+2
	LDS  R25,_P_01_S000002F000+3
	RET

;OPTIMIZER ADDED SUBROUTINE, CALLED 3 TIMES, CODE SIZE REDUCTION:9 WORDS
SUBOPT_0x20:
	LDS  R26,_P_00_S000002F000
	LDS  R27,_P_00_S000002F000+1
	LDS  R24,_P_00_S000002F000+2
	LDS  R25,_P_00_S000002F000+3
	RET

;OPTIMIZER ADDED SUBROUTINE, CALLED 2 TIMES, CODE SIZE REDUCTION:3 WORDS
SUBOPT_0x21:
	STS  _P_00_S000002F000,R30
	STS  _P_00_S000002F000+1,R31
	STS  _P_00_S000002F000+2,R22
	STS  _P_00_S000002F000+3,R23
	RET

;OPTIMIZER ADDED SUBROUTINE, CALLED 3 TIMES, CODE SIZE REDUCTION:9 WORDS
SUBOPT_0x22:
	LDS  R30,_P_01_S000002F000
	LDS  R31,_P_01_S000002F000+1
	LDS  R22,_P_01_S000002F000+2
	LDS  R23,_P_01_S000002F000+3
	RET

;OPTIMIZER ADDED SUBROUTINE, CALLED 2 TIMES, CODE SIZE REDUCTION:3 WORDS
SUBOPT_0x23:
	STS  _P_01_S000002F000,R30
	STS  _P_01_S000002F000+1,R31
	STS  _P_01_S000002F000+2,R22
	STS  _P_01_S000002F000+3,R23
	RET

;OPTIMIZER ADDED SUBROUTINE, CALLED 2 TIMES, CODE SIZE REDUCTION:3 WORDS
SUBOPT_0x24:
	STS  _P_10_S000002F000,R30
	STS  _P_10_S000002F000+1,R31
	STS  _P_10_S000002F000+2,R22
	STS  _P_10_S000002F000+3,R23
	RET

;OPTIMIZER ADDED SUBROUTINE, CALLED 2 TIMES, CODE SIZE REDUCTION:3 WORDS
SUBOPT_0x25:
	STS  _P_11_S000002F000,R30
	STS  _P_11_S000002F000+1,R31
	STS  _P_11_S000002F000+2,R22
	STS  _P_11_S000002F000+3,R23
	RET

;OPTIMIZER ADDED SUBROUTINE, CALLED 3 TIMES, CODE SIZE REDUCTION:9 WORDS
SUBOPT_0x26:
	LDS  R30,_P_00_S000002F000
	LDS  R31,_P_00_S000002F000+1
	LDS  R22,_P_00_S000002F000+2
	LDS  R23,_P_00_S000002F000+3
	RET

;OPTIMIZER ADDED SUBROUTINE, CALLED 2 TIMES, CODE SIZE REDUCTION:1 WORDS
SUBOPT_0x27:
	__GETD2N 0x3F800000
	CALL __DIVF21
	RET

;OPTIMIZER ADDED SUBROUTINE, CALLED 4 TIMES, CODE SIZE REDUCTION:15 WORDS
SUBOPT_0x28:
	LDS  R26,_GyOffset
	LDS  R27,_GyOffset+1
	LDS  R24,_GyOffset+2
	LDS  R25,_GyOffset+3
	RET

;OPTIMIZER ADDED SUBROUTINE, CALLED 2 TIMES, CODE SIZE REDUCTION:15 WORDS
SUBOPT_0x29:
	CALL __MULF12
	LDS  R26,_Pitch
	LDS  R27,_Pitch+1
	LDS  R24,_Pitch+2
	LDS  R25,_Pitch+3
	CALL __ADDF12
	STS  _Pitch,R30
	STS  _Pitch+1,R31
	STS  _Pitch+2,R22
	STS  _Pitch+3,R23
	RET

;OPTIMIZER ADDED SUBROUTINE, CALLED 5 TIMES, CODE SIZE REDUCTION:13 WORDS
SUBOPT_0x2A:
	LDS  R30,_Ax
	LDS  R31,_Ax+1
	RJMP SUBOPT_0xB

;OPTIMIZER ADDED SUBROUTINE, CALLED 4 TIMES, CODE SIZE REDUCTION:9 WORDS
SUBOPT_0x2B:
	LDS  R30,_Az
	LDS  R31,_Az+1
	RJMP SUBOPT_0xB

;OPTIMIZER ADDED SUBROUTINE, CALLED 6 TIMES, CODE SIZE REDUCTION:17 WORDS
SUBOPT_0x2C:
	LDS  R30,_Ay
	LDS  R31,_Ay+1
	RJMP SUBOPT_0xB

;OPTIMIZER ADDED SUBROUTINE, CALLED 3 TIMES, CODE SIZE REDUCTION:1 WORDS
SUBOPT_0x2D:
	MOVW R26,R30
	MOVW R24,R22
	RJMP SUBOPT_0x2C

;OPTIMIZER ADDED SUBROUTINE, CALLED 3 TIMES, CODE SIZE REDUCTION:5 WORDS
SUBOPT_0x2E:
	CALL __ADDF12
	MOVW R26,R30
	MOVW R24,R22
	JMP  _invSqrt

;OPTIMIZER ADDED SUBROUTINE, CALLED 3 TIMES, CODE SIZE REDUCTION:17 WORDS
SUBOPT_0x2F:
	CALL __MULF12
	MOVW R26,R30
	MOVW R24,R22
	CALL _atan
	__GETD2N 0x42652EE1
	CALL __MULF12
	RET

;OPTIMIZER ADDED SUBROUTINE, CALLED 3 TIMES, CODE SIZE REDUCTION:1 WORDS
SUBOPT_0x30:
	__GETD2S 12
	RET

;OPTIMIZER ADDED SUBROUTINE, CALLED 2 TIMES, CODE SIZE REDUCTION:5 WORDS
SUBOPT_0x31:
	CALL __ADDF12
	STS  _GyOffset,R30
	STS  _GyOffset+1,R31
	STS  _GyOffset+2,R22
	STS  _GyOffset+3,R23
	RET

;OPTIMIZER ADDED SUBROUTINE, CALLED 2 TIMES, CODE SIZE REDUCTION:3 WORDS
SUBOPT_0x32:
	LDS  R26,_GxOffset
	LDS  R27,_GxOffset+1
	LDS  R24,_GxOffset+2
	LDS  R25,_GxOffset+3
	RET

;OPTIMIZER ADDED SUBROUTINE, CALLED 2 TIMES, CODE SIZE REDUCTION:3 WORDS
SUBOPT_0x33:
	STS  _GxOffset,R30
	STS  _GxOffset+1,R31
	STS  _GxOffset+2,R22
	STS  _GxOffset+3,R23
	RET

;OPTIMIZER ADDED SUBROUTINE, CALLED 2 TIMES, CODE SIZE REDUCTION:3 WORDS
SUBOPT_0x34:
	LDS  R26,_GzOffset
	LDS  R27,_GzOffset+1
	LDS  R24,_GzOffset+2
	LDS  R25,_GzOffset+3
	RET

;OPTIMIZER ADDED SUBROUTINE, CALLED 2 TIMES, CODE SIZE REDUCTION:3 WORDS
SUBOPT_0x35:
	STS  _GzOffset,R30
	STS  _GzOffset+1,R31
	STS  _GzOffset+2,R22
	STS  _GzOffset+3,R23
	RET

;OPTIMIZER ADDED SUBROUTINE, CALLED 3 TIMES, CODE SIZE REDUCTION:5 WORDS
SUBOPT_0x36:
	__GETD1N 0x3C23D70A
	CALL __MULF12
	RET

;OPTIMIZER ADDED SUBROUTINE, CALLED 4 TIMES, CODE SIZE REDUCTION:12 WORDS
SUBOPT_0x37:
	OUT  0x33,R30
	LDI  R30,LOW(0)
	OUT  0x32,R30
	LD   R30,Y
	LDD  R31,Y+1
	CLR  R22
	CLR  R23
	RET

;OPTIMIZER ADDED SUBROUTINE, CALLED 3 TIMES, CODE SIZE REDUCTION:1 WORDS
SUBOPT_0x38:
	LDI  R30,LOW(1000)
	LDI  R31,HIGH(1000)
	ST   -Y,R31
	ST   -Y,R30
	RET

;OPTIMIZER ADDED SUBROUTINE, CALLED 4 TIMES, CODE SIZE REDUCTION:39 WORDS
SUBOPT_0x39:
	LDI  R26,LOW(100)
	LDI  R27,0
	CALL _Buzzer
	LDI  R30,LOW(500)
	LDI  R31,HIGH(500)
	ST   -Y,R31
	ST   -Y,R30
	LDI  R26,LOW(20)
	LDI  R27,0
	JMP  _Buzzer

;OPTIMIZER ADDED SUBROUTINE, CALLED 8 TIMES, CODE SIZE REDUCTION:11 WORDS
SUBOPT_0x3A:
	LDI  R30,LOW(3000)
	LDI  R31,HIGH(3000)
	ST   -Y,R31
	ST   -Y,R30
	RET

;OPTIMIZER ADDED SUBROUTINE, CALLED 3 TIMES, CODE SIZE REDUCTION:29 WORDS
SUBOPT_0x3B:
	LDI  R26,LOW(50)
	LDI  R27,0
	CALL _Buzzer
	LDI  R30,LOW(500)
	LDI  R31,HIGH(500)
	ST   -Y,R31
	ST   -Y,R30
	LDI  R26,LOW(20)
	LDI  R27,0
	CALL _Buzzer
	RJMP SUBOPT_0x3A

;OPTIMIZER ADDED SUBROUTINE, CALLED 2 TIMES, CODE SIZE REDUCTION:13 WORDS
SUBOPT_0x3C:
	ST   -Y,R31
	ST   -Y,R30
	LDI  R26,LOW(150)
	LDI  R27,0
	CALL _Buzzer
	LDI  R30,LOW(500)
	LDI  R31,HIGH(500)
	ST   -Y,R31
	ST   -Y,R30
	LDI  R26,LOW(20)
	LDI  R27,0
	JMP  _Buzzer

;OPTIMIZER ADDED SUBROUTINE, CALLED 2 TIMES, CODE SIZE REDUCTION:11 WORDS
SUBOPT_0x3D:
	LDI  R26,LOW(50)
	LDI  R27,0
	CALL _Buzzer
	LDI  R30,LOW(500)
	LDI  R31,HIGH(500)
	ST   -Y,R31
	ST   -Y,R30
	LDI  R26,LOW(20)
	LDI  R27,0
	JMP  _Buzzer

;OPTIMIZER ADDED SUBROUTINE, CALLED 2 TIMES, CODE SIZE REDUCTION:3 WORDS
SUBOPT_0x3E:
	CALL __MULF12
	__GETD2N 0x414A8F4E
	CALL __ADDF12
	RET

;OPTIMIZER ADDED SUBROUTINE, CALLED 5 TIMES, CODE SIZE REDUCTION:5 WORDS
SUBOPT_0x3F:
	CALL __GETD2S0
	RET

;OPTIMIZER ADDED SUBROUTINE, CALLED 2 TIMES, CODE SIZE REDUCTION:1 WORDS
SUBOPT_0x40:
	RCALL SUBOPT_0x17
	__GETD2N 0x3F800000
	RET


	.CSEG
_delay_ms:
	adiw r26,0
	breq __delay_ms1
__delay_ms0:
	__DELAY_USW 0xFA0
	wdr
	sbiw r26,1
	brne __delay_ms0
__delay_ms1:
	ret

__ANEGF1:
	SBIW R30,0
	SBCI R22,0
	SBCI R23,0
	BREQ __ANEGF10
	SUBI R23,0x80
__ANEGF10:
	RET

__ROUND_REPACK:
	TST  R21
	BRPL __REPACK
	CPI  R21,0x80
	BRNE __ROUND_REPACK0
	SBRS R30,0
	RJMP __REPACK
__ROUND_REPACK0:
	ADIW R30,1
	ADC  R22,R25
	ADC  R23,R25
	BRVS __REPACK1

__REPACK:
	LDI  R21,0x80
	EOR  R21,R23
	BRNE __REPACK0
	PUSH R21
	RJMP __ZERORES
__REPACK0:
	CPI  R21,0xFF
	BREQ __REPACK1
	LSL  R22
	LSL  R0
	ROR  R21
	ROR  R22
	MOV  R23,R21
	RET
__REPACK1:
	PUSH R21
	TST  R0
	BRMI __REPACK2
	RJMP __MAXRES
__REPACK2:
	RJMP __MINRES

__UNPACK:
	LDI  R21,0x80
	MOV  R1,R25
	AND  R1,R21
	LSL  R24
	ROL  R25
	EOR  R25,R21
	LSL  R21
	ROR  R24

__UNPACK1:
	LDI  R21,0x80
	MOV  R0,R23
	AND  R0,R21
	LSL  R22
	ROL  R23
	EOR  R23,R21
	LSL  R21
	ROR  R22
	RET

__CFD1U:
	SET
	RJMP __CFD1U0
__CFD1:
	CLT
__CFD1U0:
	PUSH R21
	RCALL __UNPACK1
	CPI  R23,0x80
	BRLO __CFD10
	CPI  R23,0xFF
	BRCC __CFD10
	RJMP __ZERORES
__CFD10:
	LDI  R21,22
	SUB  R21,R23
	BRPL __CFD11
	NEG  R21
	CPI  R21,8
	BRTC __CFD19
	CPI  R21,9
__CFD19:
	BRLO __CFD17
	SER  R30
	SER  R31
	SER  R22
	LDI  R23,0x7F
	BLD  R23,7
	RJMP __CFD15
__CFD17:
	CLR  R23
	TST  R21
	BREQ __CFD15
__CFD18:
	LSL  R30
	ROL  R31
	ROL  R22
	ROL  R23
	DEC  R21
	BRNE __CFD18
	RJMP __CFD15
__CFD11:
	CLR  R23
__CFD12:
	CPI  R21,8
	BRLO __CFD13
	MOV  R30,R31
	MOV  R31,R22
	MOV  R22,R23
	SUBI R21,8
	RJMP __CFD12
__CFD13:
	TST  R21
	BREQ __CFD15
__CFD14:
	LSR  R23
	ROR  R22
	ROR  R31
	ROR  R30
	DEC  R21
	BRNE __CFD14
__CFD15:
	TST  R0
	BRPL __CFD16
	RCALL __ANEGD1
__CFD16:
	POP  R21
	RET

__CDF1U:
	SET
	RJMP __CDF1U0
__CDF1:
	CLT
__CDF1U0:
	SBIW R30,0
	SBCI R22,0
	SBCI R23,0
	BREQ __CDF10
	CLR  R0
	BRTS __CDF11
	TST  R23
	BRPL __CDF11
	COM  R0
	RCALL __ANEGD1
__CDF11:
	MOV  R1,R23
	LDI  R23,30
	TST  R1
__CDF12:
	BRMI __CDF13
	DEC  R23
	LSL  R30
	ROL  R31
	ROL  R22
	ROL  R1
	RJMP __CDF12
__CDF13:
	MOV  R30,R31
	MOV  R31,R22
	MOV  R22,R1
	PUSH R21
	RCALL __REPACK
	POP  R21
__CDF10:
	RET

__SWAPACC:
	PUSH R20
	MOVW R20,R30
	MOVW R30,R26
	MOVW R26,R20
	MOVW R20,R22
	MOVW R22,R24
	MOVW R24,R20
	MOV  R20,R0
	MOV  R0,R1
	MOV  R1,R20
	POP  R20
	RET

__UADD12:
	ADD  R30,R26
	ADC  R31,R27
	ADC  R22,R24
	RET

__NEGMAN1:
	COM  R30
	COM  R31
	COM  R22
	SUBI R30,-1
	SBCI R31,-1
	SBCI R22,-1
	RET

__SUBF12:
	PUSH R21
	RCALL __UNPACK
	CPI  R25,0x80
	BREQ __ADDF129
	LDI  R21,0x80
	EOR  R1,R21

	RJMP __ADDF120

__ADDF12:
	PUSH R21
	RCALL __UNPACK
	CPI  R25,0x80
	BREQ __ADDF129

__ADDF120:
	CPI  R23,0x80
	BREQ __ADDF128
__ADDF121:
	MOV  R21,R23
	SUB  R21,R25
	BRVS __ADDF1211
	BRPL __ADDF122
	RCALL __SWAPACC
	RJMP __ADDF121
__ADDF122:
	CPI  R21,24
	BRLO __ADDF123
	CLR  R26
	CLR  R27
	CLR  R24
__ADDF123:
	CPI  R21,8
	BRLO __ADDF124
	MOV  R26,R27
	MOV  R27,R24
	CLR  R24
	SUBI R21,8
	RJMP __ADDF123
__ADDF124:
	TST  R21
	BREQ __ADDF126
__ADDF125:
	LSR  R24
	ROR  R27
	ROR  R26
	DEC  R21
	BRNE __ADDF125
__ADDF126:
	MOV  R21,R0
	EOR  R21,R1
	BRMI __ADDF127
	RCALL __UADD12
	BRCC __ADDF129
	ROR  R22
	ROR  R31
	ROR  R30
	INC  R23
	BRVC __ADDF129
	RJMP __MAXRES
__ADDF128:
	RCALL __SWAPACC
__ADDF129:
	RCALL __REPACK
	POP  R21
	RET
__ADDF1211:
	BRCC __ADDF128
	RJMP __ADDF129
__ADDF127:
	SUB  R30,R26
	SBC  R31,R27
	SBC  R22,R24
	BREQ __ZERORES
	BRCC __ADDF1210
	COM  R0
	RCALL __NEGMAN1
__ADDF1210:
	TST  R22
	BRMI __ADDF129
	LSL  R30
	ROL  R31
	ROL  R22
	DEC  R23
	BRVC __ADDF1210

__ZERORES:
	CLR  R30
	CLR  R31
	CLR  R22
	CLR  R23
	POP  R21
	RET

__MINRES:
	SER  R30
	SER  R31
	LDI  R22,0x7F
	SER  R23
	POP  R21
	RET

__MAXRES:
	SER  R30
	SER  R31
	LDI  R22,0x7F
	LDI  R23,0x7F
	POP  R21
	RET

__MULF12:
	PUSH R21
	RCALL __UNPACK
	CPI  R23,0x80
	BREQ __ZERORES
	CPI  R25,0x80
	BREQ __ZERORES
	EOR  R0,R1
	SEC
	ADC  R23,R25
	BRVC __MULF124
	BRLT __ZERORES
__MULF125:
	TST  R0
	BRMI __MINRES
	RJMP __MAXRES
__MULF124:
	PUSH R0
	PUSH R17
	PUSH R18
	PUSH R19
	PUSH R20
	CLR  R17
	CLR  R18
	CLR  R25
	MUL  R22,R24
	MOVW R20,R0
	MUL  R24,R31
	MOV  R19,R0
	ADD  R20,R1
	ADC  R21,R25
	MUL  R22,R27
	ADD  R19,R0
	ADC  R20,R1
	ADC  R21,R25
	MUL  R24,R30
	RCALL __MULF126
	MUL  R27,R31
	RCALL __MULF126
	MUL  R22,R26
	RCALL __MULF126
	MUL  R27,R30
	RCALL __MULF127
	MUL  R26,R31
	RCALL __MULF127
	MUL  R26,R30
	ADD  R17,R1
	ADC  R18,R25
	ADC  R19,R25
	ADC  R20,R25
	ADC  R21,R25
	MOV  R30,R19
	MOV  R31,R20
	MOV  R22,R21
	MOV  R21,R18
	POP  R20
	POP  R19
	POP  R18
	POP  R17
	POP  R0
	TST  R22
	BRMI __MULF122
	LSL  R21
	ROL  R30
	ROL  R31
	ROL  R22
	RJMP __MULF123
__MULF122:
	INC  R23
	BRVS __MULF125
__MULF123:
	RCALL __ROUND_REPACK
	POP  R21
	RET

__MULF127:
	ADD  R17,R0
	ADC  R18,R1
	ADC  R19,R25
	RJMP __MULF128
__MULF126:
	ADD  R18,R0
	ADC  R19,R1
__MULF128:
	ADC  R20,R25
	ADC  R21,R25
	RET

__DIVF21:
	PUSH R21
	RCALL __UNPACK
	CPI  R23,0x80
	BRNE __DIVF210
	TST  R1
__DIVF211:
	BRPL __DIVF219
	RJMP __MINRES
__DIVF219:
	RJMP __MAXRES
__DIVF210:
	CPI  R25,0x80
	BRNE __DIVF218
__DIVF217:
	RJMP __ZERORES
__DIVF218:
	EOR  R0,R1
	SEC
	SBC  R25,R23
	BRVC __DIVF216
	BRLT __DIVF217
	TST  R0
	RJMP __DIVF211
__DIVF216:
	MOV  R23,R25
	PUSH R17
	PUSH R18
	PUSH R19
	PUSH R20
	CLR  R1
	CLR  R17
	CLR  R18
	CLR  R19
	CLR  R20
	CLR  R21
	LDI  R25,32
__DIVF212:
	CP   R26,R30
	CPC  R27,R31
	CPC  R24,R22
	CPC  R20,R17
	BRLO __DIVF213
	SUB  R26,R30
	SBC  R27,R31
	SBC  R24,R22
	SBC  R20,R17
	SEC
	RJMP __DIVF214
__DIVF213:
	CLC
__DIVF214:
	ROL  R21
	ROL  R18
	ROL  R19
	ROL  R1
	ROL  R26
	ROL  R27
	ROL  R24
	ROL  R20
	DEC  R25
	BRNE __DIVF212
	MOVW R30,R18
	MOV  R22,R1
	POP  R20
	POP  R19
	POP  R18
	POP  R17
	TST  R22
	BRMI __DIVF215
	LSL  R21
	ROL  R30
	ROL  R31
	ROL  R22
	DEC  R23
	BRVS __DIVF217
__DIVF215:
	RCALL __ROUND_REPACK
	POP  R21
	RET

__CMPF12:
	TST  R25
	BRMI __CMPF120
	TST  R23
	BRMI __CMPF121
	CP   R25,R23
	BRLO __CMPF122
	BRNE __CMPF121
	CP   R26,R30
	CPC  R27,R31
	CPC  R24,R22
	BRLO __CMPF122
	BREQ __CMPF123
__CMPF121:
	CLZ
	CLC
	RET
__CMPF122:
	CLZ
	SEC
	RET
__CMPF123:
	SEZ
	CLC
	RET
__CMPF120:
	TST  R23
	BRPL __CMPF122
	CP   R25,R23
	BRLO __CMPF121
	BRNE __CMPF122
	CP   R30,R26
	CPC  R31,R27
	CPC  R22,R24
	BRLO __CMPF122
	BREQ __CMPF123
	RJMP __CMPF121

__SUBD21:
	SUB  R26,R30
	SBC  R27,R31
	SBC  R24,R22
	SBC  R25,R23
	RET

__ANEGW1:
	NEG  R31
	NEG  R30
	SBCI R31,0
	RET

__ANEGD1:
	COM  R31
	COM  R22
	COM  R23
	NEG  R30
	SBCI R31,-1
	SBCI R22,-1
	SBCI R23,-1
	RET

__LSLB12:
	TST  R30
	MOV  R0,R30
	MOV  R30,R26
	BREQ __LSLB12R
__LSLB12L:
	LSL  R30
	DEC  R0
	BRNE __LSLB12L
__LSLB12R:
	RET

__LSRB12:
	TST  R30
	MOV  R0,R30
	MOV  R30,R26
	BREQ __LSRB12R
__LSRB12L:
	LSR  R30
	DEC  R0
	BRNE __LSRB12L
__LSRB12R:
	RET

__LSLW12:
	TST  R30
	MOV  R0,R30
	MOVW R30,R26
	BREQ __LSLW12R
__LSLW12L:
	LSL  R30
	ROL  R31
	DEC  R0
	BRNE __LSLW12L
__LSLW12R:
	RET

__ASRD1:
	ASR  R23
	ROR  R22
	ROR  R31
	ROR  R30
	RET

__CWD1:
	MOV  R22,R31
	ADD  R22,R22
	SBC  R22,R22
	MOV  R23,R22
	RET

__MULW12U:
	MUL  R31,R26
	MOV  R31,R0
	MUL  R30,R27
	ADD  R31,R0
	MUL  R30,R26
	MOV  R30,R0
	ADD  R31,R1
	RET

__MULW12:
	RCALL __CHKSIGNW
	RCALL __MULW12U
	BRTC __MULW121
	RCALL __ANEGW1
__MULW121:
	RET

__DIVW21U:
	CLR  R0
	CLR  R1
	LDI  R25,16
__DIVW21U1:
	LSL  R26
	ROL  R27
	ROL  R0
	ROL  R1
	SUB  R0,R30
	SBC  R1,R31
	BRCC __DIVW21U2
	ADD  R0,R30
	ADC  R1,R31
	RJMP __DIVW21U3
__DIVW21U2:
	SBR  R26,1
__DIVW21U3:
	DEC  R25
	BRNE __DIVW21U1
	MOVW R30,R26
	MOVW R26,R0
	RET

__DIVW21:
	RCALL __CHKSIGNW
	RCALL __DIVW21U
	BRTC __DIVW211
	RCALL __ANEGW1
__DIVW211:
	RET

__DIVD21U:
	PUSH R19
	PUSH R20
	PUSH R21
	CLR  R0
	CLR  R1
	CLR  R20
	CLR  R21
	LDI  R19,32
__DIVD21U1:
	LSL  R26
	ROL  R27
	ROL  R24
	ROL  R25
	ROL  R0
	ROL  R1
	ROL  R20
	ROL  R21
	SUB  R0,R30
	SBC  R1,R31
	SBC  R20,R22
	SBC  R21,R23
	BRCC __DIVD21U2
	ADD  R0,R30
	ADC  R1,R31
	ADC  R20,R22
	ADC  R21,R23
	RJMP __DIVD21U3
__DIVD21U2:
	SBR  R26,1
__DIVD21U3:
	DEC  R19
	BRNE __DIVD21U1
	MOVW R30,R26
	MOVW R22,R24
	MOVW R26,R0
	MOVW R24,R20
	POP  R21
	POP  R20
	POP  R19
	RET

__DIVD21:
	RCALL __CHKSIGND
	RCALL __DIVD21U
	BRTC __DIVD211
	RCALL __ANEGD1
__DIVD211:
	RET

__MODW21:
	CLT
	SBRS R27,7
	RJMP __MODW211
	COM  R26
	COM  R27
	ADIW R26,1
	SET
__MODW211:
	SBRC R31,7
	RCALL __ANEGW1
	RCALL __DIVW21U
	MOVW R30,R26
	BRTC __MODW212
	RCALL __ANEGW1
__MODW212:
	RET

__CHKSIGNW:
	CLT
	SBRS R31,7
	RJMP __CHKSW1
	RCALL __ANEGW1
	SET
__CHKSW1:
	SBRS R27,7
	RJMP __CHKSW2
	COM  R26
	COM  R27
	ADIW R26,1
	BLD  R0,0
	INC  R0
	BST  R0,0
__CHKSW2:
	RET

__CHKSIGND:
	CLT
	SBRS R23,7
	RJMP __CHKSD1
	RCALL __ANEGD1
	SET
__CHKSD1:
	SBRS R25,7
	RJMP __CHKSD2
	CLR  R0
	COM  R26
	COM  R27
	COM  R24
	COM  R25
	ADIW R26,1
	ADC  R24,R0
	ADC  R25,R0
	BLD  R0,0
	INC  R0
	BST  R0,0
__CHKSD2:
	RET

__GETD1S0:
	LD   R30,Y
	LDD  R31,Y+1
	LDD  R22,Y+2
	LDD  R23,Y+3
	RET

__GETD2S0:
	LD   R26,Y
	LDD  R27,Y+1
	LDD  R24,Y+2
	LDD  R25,Y+3
	RET

__PUTD1S0:
	ST   Y,R30
	STD  Y+1,R31
	STD  Y+2,R22
	STD  Y+3,R23
	RET

__PUTD2S0:
	ST   Y,R26
	STD  Y+1,R27
	STD  Y+2,R24
	STD  Y+3,R25
	RET

__PUTPARD1:
	ST   -Y,R23
	ST   -Y,R22
	ST   -Y,R31
	ST   -Y,R30
	RET

__PUTPARD2:
	ST   -Y,R25
	ST   -Y,R24
	ST   -Y,R27
	ST   -Y,R26
	RET

__SWAPD12:
	MOV  R1,R24
	MOV  R24,R22
	MOV  R22,R1
	MOV  R1,R25
	MOV  R25,R23
	MOV  R23,R1

__SWAPW12:
	MOV  R1,R27
	MOV  R27,R31
	MOV  R31,R1

__SWAPB12:
	MOV  R1,R26
	MOV  R26,R30
	MOV  R30,R1
	RET

__CPW02:
	CLR  R0
	CP   R0,R26
	CPC  R0,R27
	RET

;END OF CODE MARKER
__END_OF_CODE:
