
bin\Release\Line_Tracer_DB.elf:     file format elf32-avr

Sections:
Idx Name          Size      VMA       LMA       File off  Algn
  0 .data         0000011a  00800100  00003558  000035ec  2**0
                  CONTENTS, ALLOC, LOAD, DATA
  1 .text         00003558  00000000  00000000  00000094  2**1
                  CONTENTS, ALLOC, LOAD, READONLY, CODE
  2 .bss          0000002e  0080021a  0080021a  00003706  2**0
                  ALLOC
  3 .comment      00000030  00000000  00000000  00003706  2**0
                  CONTENTS, READONLY

Disassembly of section .text:

00000000 <__vectors>:
       0:	0c 94 47 00 	jmp	0x8e	; 0x8e <__ctors_end>
       4:	0c 94 76 00 	jmp	0xec	; 0xec <__bad_interrupt>
       8:	0c 94 76 00 	jmp	0xec	; 0xec <__bad_interrupt>
       c:	0c 94 76 00 	jmp	0xec	; 0xec <__bad_interrupt>
      10:	0c 94 76 00 	jmp	0xec	; 0xec <__bad_interrupt>
      14:	0c 94 76 00 	jmp	0xec	; 0xec <__bad_interrupt>
      18:	0c 94 76 00 	jmp	0xec	; 0xec <__bad_interrupt>
      1c:	0c 94 9e 11 	jmp	0x233c	; 0x233c <__vector_7>
      20:	0c 94 cc 11 	jmp	0x2398	; 0x2398 <__vector_8>
      24:	0c 94 50 12 	jmp	0x24a0	; 0x24a0 <__vector_9>
      28:	0c 94 76 00 	jmp	0xec	; 0xec <__bad_interrupt>
      2c:	0c 94 23 12 	jmp	0x2446	; 0x2446 <__vector_11>
      30:	0c 94 76 00 	jmp	0xec	; 0xec <__bad_interrupt>
      34:	0c 94 76 00 	jmp	0xec	; 0xec <__bad_interrupt>
      38:	0c 94 45 12 	jmp	0x248a	; 0x248a <__vector_14>
      3c:	0c 94 76 00 	jmp	0xec	; 0xec <__bad_interrupt>
      40:	0c 94 76 00 	jmp	0xec	; 0xec <__bad_interrupt>
      44:	0c 94 76 00 	jmp	0xec	; 0xec <__bad_interrupt>
      48:	0c 94 76 00 	jmp	0xec	; 0xec <__bad_interrupt>
      4c:	0c 94 76 00 	jmp	0xec	; 0xec <__bad_interrupt>
      50:	0c 94 76 00 	jmp	0xec	; 0xec <__bad_interrupt>
      54:	0c 94 76 00 	jmp	0xec	; 0xec <__bad_interrupt>
      58:	0c 94 76 00 	jmp	0xec	; 0xec <__bad_interrupt>
      5c:	0c 94 76 00 	jmp	0xec	; 0xec <__bad_interrupt>
      60:	0c 94 76 00 	jmp	0xec	; 0xec <__bad_interrupt>
      64:	0c 94 76 00 	jmp	0xec	; 0xec <__bad_interrupt>
      68:	0c 94 76 00 	jmp	0xec	; 0xec <__bad_interrupt>
      6c:	0c 94 76 00 	jmp	0xec	; 0xec <__bad_interrupt>
      70:	0c 94 fa 11 	jmp	0x23f4	; 0x23f4 <__vector_28>
      74:	0c 94 76 00 	jmp	0xec	; 0xec <__bad_interrupt>
      78:	0c 94 6a 01 	jmp	0x2d4	; 0x2d4 <__vector_30>
      7c:	0c 94 76 00 	jmp	0xec	; 0xec <__bad_interrupt>
      80:	0c 94 76 00 	jmp	0xec	; 0xec <__bad_interrupt>
      84:	0c 94 76 00 	jmp	0xec	; 0xec <__bad_interrupt>
      88:	0c 94 76 00 	jmp	0xec	; 0xec <__bad_interrupt>

0000008c <__ctors_start>:
      8c:	4c 1a       	sub	r4, r28

0000008e <__ctors_end>:
      8e:	11 24       	eor	r1, r1
      90:	1f be       	out	0x3f, r1	; 63
      92:	cf ef       	ldi	r28, 0xFF	; 255
      94:	d0 e1       	ldi	r29, 0x10	; 16
      96:	de bf       	out	0x3e, r29	; 62
      98:	cd bf       	out	0x3d, r28	; 61

0000009a <__do_copy_data>:
      9a:	12 e0       	ldi	r17, 0x02	; 2
      9c:	a0 e0       	ldi	r26, 0x00	; 0
      9e:	b1 e0       	ldi	r27, 0x01	; 1
      a0:	e8 e5       	ldi	r30, 0x58	; 88
      a2:	f5 e3       	ldi	r31, 0x35	; 53
      a4:	00 e0       	ldi	r16, 0x00	; 0
      a6:	0b bf       	out	0x3b, r16	; 59
      a8:	02 c0       	rjmp	.+4      	; 0xae <__do_copy_data+0x14>
      aa:	07 90       	elpm	r0, Z+
      ac:	0d 92       	st	X+, r0
      ae:	aa 31       	cpi	r26, 0x1A	; 26
      b0:	b1 07       	cpc	r27, r17
      b2:	d9 f7       	brne	.-10     	; 0xaa <__do_copy_data+0x10>

000000b4 <__do_clear_bss>:
      b4:	22 e0       	ldi	r18, 0x02	; 2
      b6:	aa e1       	ldi	r26, 0x1A	; 26
      b8:	b2 e0       	ldi	r27, 0x02	; 2
      ba:	01 c0       	rjmp	.+2      	; 0xbe <.do_clear_bss_start>

000000bc <.do_clear_bss_loop>:
      bc:	1d 92       	st	X+, r1

000000be <.do_clear_bss_start>:
      be:	a8 34       	cpi	r26, 0x48	; 72
      c0:	b2 07       	cpc	r27, r18
      c2:	e1 f7       	brne	.-8      	; 0xbc <.do_clear_bss_loop>

000000c4 <__do_global_ctors>:
      c4:	10 e0       	ldi	r17, 0x00	; 0
      c6:	ce e8       	ldi	r28, 0x8E	; 142
      c8:	d0 e0       	ldi	r29, 0x00	; 0
      ca:	00 e0       	ldi	r16, 0x00	; 0
      cc:	06 c0       	rjmp	.+12     	; 0xda <__do_global_ctors+0x16>
      ce:	22 97       	sbiw	r28, 0x02	; 2
      d0:	01 09       	sbc	r16, r1
      d2:	fe 01       	movw	r30, r28
      d4:	0b bf       	out	0x3b, r16	; 59
      d6:	0e 94 a6 1a 	call	0x354c	; 0x354c <__tablejump_elpm__>
      da:	cc 38       	cpi	r28, 0x8C	; 140
      dc:	d1 07       	cpc	r29, r17
      de:	80 e0       	ldi	r24, 0x00	; 0
      e0:	08 07       	cpc	r16, r24
      e2:	a9 f7       	brne	.-22     	; 0xce <__do_global_ctors+0xa>
      e4:	0e 94 50 16 	call	0x2ca0	; 0x2ca0 <main>
      e8:	0c 94 aa 1a 	jmp	0x3554	; 0x3554 <_exit>

000000ec <__bad_interrupt>:
      ec:	0c 94 00 00 	jmp	0	; 0x0 <__vectors>

000000f0 <_ZN13mySensorGaris9BacaGarisEhh.constprop.12>:
      f0:	68 2b       	or	r22, r24
      f2:	90 91 9b 00 	lds	r25, 0x009B
      f6:	95 ff       	sbrs	r25, 5
      f8:	fc cf       	rjmp	.-8      	; 0xf2 <_ZN13mySensorGaris9BacaGarisEhh.constprop.12+0x2>
      fa:	60 93 9c 00 	sts	0x009C, r22
      fe:	28 e8       	ldi	r18, 0x88	; 136
     100:	33 e1       	ldi	r19, 0x13	; 19
     102:	09 c0       	rjmp	.+18     	; 0x116 <_ZN13mySensorGaris9BacaGarisEhh.constprop.12+0x26>
     104:	85 e0       	ldi	r24, 0x05	; 5
     106:	8a 95       	dec	r24
     108:	f1 f7       	brne	.-4      	; 0x106 <_ZN13mySensorGaris9BacaGarisEhh.constprop.12+0x16>
     10a:	00 00       	nop
     10c:	21 50       	subi	r18, 0x01	; 1
     10e:	31 09       	sbc	r19, r1
     110:	21 15       	cp	r18, r1
     112:	31 05       	cpc	r19, r1
     114:	f9 f0       	breq	.+62     	; 0x154 <_ZN13mySensorGaris9BacaGarisEhh.constprop.12+0x64>
     116:	90 91 2d 02 	lds	r25, 0x022D
     11a:	99 23       	and	r25, r25
     11c:	99 f3       	breq	.-26     	; 0x104 <_ZN13mySensorGaris9BacaGarisEhh.constprop.12+0x14>
     11e:	e8 94       	clt
     120:	21 f8       	bld	r2, 1
     122:	e0 91 2e 02 	lds	r30, 0x022E
     126:	f0 e0       	ldi	r31, 0x00	; 0
     128:	e0 5d       	subi	r30, 0xD0	; 208
     12a:	fd 4f       	sbci	r31, 0xFD	; 253
     12c:	90 81       	ld	r25, Z
     12e:	80 91 2e 02 	lds	r24, 0x022E
     132:	8f 5f       	subi	r24, 0xFF	; 255
     134:	80 93 2e 02 	sts	0x022E, r24
     138:	80 31       	cpi	r24, 0x10	; 16
     13a:	c1 f1       	breq	.+112    	; 0x1ac <_ZN13mySensorGaris9BacaGarisEhh.constprop.12+0xbc>
     13c:	f8 94       	cli
     13e:	80 91 2d 02 	lds	r24, 0x022D
     142:	81 50       	subi	r24, 0x01	; 1
     144:	80 93 2d 02 	sts	0x022D, r24
     148:	78 94       	sei
     14a:	89 2f       	mov	r24, r25
     14c:	68 17       	cp	r22, r24
     14e:	39 f0       	breq	.+14     	; 0x15e <_ZN13mySensorGaris9BacaGarisEhh.constprop.12+0x6e>
     150:	80 e0       	ldi	r24, 0x00	; 0
     152:	08 95       	ret
     154:	68 94       	set
     156:	21 f8       	bld	r2, 1
     158:	80 e0       	ldi	r24, 0x00	; 0
     15a:	68 13       	cpse	r22, r24
     15c:	f9 cf       	rjmp	.-14     	; 0x150 <_ZN13mySensorGaris9BacaGarisEhh.constprop.12+0x60>
     15e:	88 e8       	ldi	r24, 0x88	; 136
     160:	93 e1       	ldi	r25, 0x13	; 19
     162:	07 c0       	rjmp	.+14     	; 0x172 <_ZN13mySensorGaris9BacaGarisEhh.constprop.12+0x82>
     164:	25 e0       	ldi	r18, 0x05	; 5
     166:	2a 95       	dec	r18
     168:	f1 f7       	brne	.-4      	; 0x166 <_ZN13mySensorGaris9BacaGarisEhh.constprop.12+0x76>
     16a:	00 00       	nop
     16c:	01 97       	sbiw	r24, 0x01	; 1
     16e:	00 97       	sbiw	r24, 0x00	; 0
     170:	01 f1       	breq	.+64     	; 0x1b2 <_ZN13mySensorGaris9BacaGarisEhh.constprop.12+0xc2>
     172:	20 91 2d 02 	lds	r18, 0x022D
     176:	22 23       	and	r18, r18
     178:	a9 f3       	breq	.-22     	; 0x164 <_ZN13mySensorGaris9BacaGarisEhh.constprop.12+0x74>
     17a:	e8 94       	clt
     17c:	21 f8       	bld	r2, 1
     17e:	e0 91 2e 02 	lds	r30, 0x022E
     182:	f0 e0       	ldi	r31, 0x00	; 0
     184:	e0 5d       	subi	r30, 0xD0	; 208
     186:	fd 4f       	sbci	r31, 0xFD	; 253
     188:	80 81       	ld	r24, Z
     18a:	90 91 2e 02 	lds	r25, 0x022E
     18e:	9f 5f       	subi	r25, 0xFF	; 255
     190:	90 93 2e 02 	sts	0x022E, r25
     194:	90 31       	cpi	r25, 0x10	; 16
     196:	11 f4       	brne	.+4      	; 0x19c <_ZN13mySensorGaris9BacaGarisEhh.constprop.12+0xac>
     198:	10 92 2e 02 	sts	0x022E, r1
     19c:	f8 94       	cli
     19e:	90 91 2d 02 	lds	r25, 0x022D
     1a2:	91 50       	subi	r25, 0x01	; 1
     1a4:	90 93 2d 02 	sts	0x022D, r25
     1a8:	78 94       	sei
     1aa:	08 95       	ret
     1ac:	10 92 2e 02 	sts	0x022E, r1
     1b0:	c5 cf       	rjmp	.-118    	; 0x13c <_ZN13mySensorGaris9BacaGarisEhh.constprop.12+0x4c>
     1b2:	68 94       	set
     1b4:	21 f8       	bld	r2, 1
     1b6:	80 e0       	ldi	r24, 0x00	; 0
     1b8:	08 95       	ret

000001ba <_ZN5myLCD5TulisEhPKc.constprop.31>:
     1ba:	d8 98       	cbi	0x1b, 0	; 27
     1bc:	88 23       	and	r24, r24
     1be:	09 f4       	brne	.+2      	; 0x1c2 <_ZN5myLCD5TulisEhPKc.constprop.31+0x8>
     1c0:	6b c0       	rjmp	.+214    	; 0x298 <_ZN5myLCD5TulisEhPKc.constprop.31+0xde>
     1c2:	20 fc       	sbrc	r2, 0
     1c4:	66 c0       	rjmp	.+204    	; 0x292 <_ZN5myLCD5TulisEhPKc.constprop.31+0xd8>
     1c6:	84 ec       	ldi	r24, 0xC4	; 196
     1c8:	8b bb       	out	0x1b, r24	; 27
     1ca:	f5 e0       	ldi	r31, 0x05	; 5
     1cc:	fa 95       	dec	r31
     1ce:	f1 f7       	brne	.-4      	; 0x1cc <_ZN5myLCD5TulisEhPKc.constprop.31+0x12>
     1d0:	00 00       	nop
     1d2:	da 98       	cbi	0x1b, 2	; 27
     1d4:	2a e1       	ldi	r18, 0x1A	; 26
     1d6:	2a 95       	dec	r18
     1d8:	f1 f7       	brne	.-4      	; 0x1d6 <_ZN5myLCD5TulisEhPKc.constprop.31+0x1c>
     1da:	00 c0       	rjmp	.+0      	; 0x1dc <_ZN5myLCD5TulisEhPKc.constprop.31+0x22>
     1dc:	20 fc       	sbrc	r2, 0
     1de:	71 c0       	rjmp	.+226    	; 0x2c2 <_ZN5myLCD5TulisEhPKc.constprop.31+0x108>
     1e0:	84 e0       	ldi	r24, 0x04	; 4
     1e2:	8b bb       	out	0x1b, r24	; 27
     1e4:	85 e0       	ldi	r24, 0x05	; 5
     1e6:	8a 95       	dec	r24
     1e8:	f1 f7       	brne	.-4      	; 0x1e6 <_ZN5myLCD5TulisEhPKc.constprop.31+0x2c>
     1ea:	00 00       	nop
     1ec:	da 98       	cbi	0x1b, 2	; 27
     1ee:	ef ee       	ldi	r30, 0xEF	; 239
     1f0:	fa e0       	ldi	r31, 0x0A	; 10
     1f2:	31 97       	sbiw	r30, 0x01	; 1
     1f4:	f1 f7       	brne	.-4      	; 0x1f2 <_ZN5myLCD5TulisEhPKc.constprop.31+0x38>
     1f6:	00 c0       	rjmp	.+0      	; 0x1f8 <_ZN5myLCD5TulisEhPKc.constprop.31+0x3e>
     1f8:	00 00       	nop
     1fa:	da 9a       	sbi	0x1b, 2	; 27
     1fc:	fb 01       	movw	r30, r22
     1fe:	80 81       	ld	r24, Z
     200:	88 23       	and	r24, r24
     202:	21 f1       	breq	.+72     	; 0x24c <_ZN5myLCD5TulisEhPKc.constprop.31+0x92>
     204:	31 96       	adiw	r30, 0x01	; 1
     206:	20 fc       	sbrc	r2, 0
     208:	22 c0       	rjmp	.+68     	; 0x24e <_ZN5myLCD5TulisEhPKc.constprop.31+0x94>
     20a:	d8 9a       	sbi	0x1b, 0	; 27
     20c:	98 2f       	mov	r25, r24
     20e:	90 7f       	andi	r25, 0xF0	; 240
     210:	95 60       	ori	r25, 0x05	; 5
     212:	9b bb       	out	0x1b, r25	; 27
     214:	25 e0       	ldi	r18, 0x05	; 5
     216:	2a 95       	dec	r18
     218:	f1 f7       	brne	.-4      	; 0x216 <_ZN5myLCD5TulisEhPKc.constprop.31+0x5c>
     21a:	00 00       	nop
     21c:	da 98       	cbi	0x1b, 2	; 27
     21e:	9a e1       	ldi	r25, 0x1A	; 26
     220:	9a 95       	dec	r25
     222:	f1 f7       	brne	.-4      	; 0x220 <_ZN5myLCD5TulisEhPKc.constprop.31+0x66>
     224:	00 c0       	rjmp	.+0      	; 0x226 <_ZN5myLCD5TulisEhPKc.constprop.31+0x6c>
     226:	20 e1       	ldi	r18, 0x10	; 16
     228:	82 9f       	mul	r24, r18
     22a:	c0 01       	movw	r24, r0
     22c:	11 24       	eor	r1, r1
     22e:	85 60       	ori	r24, 0x05	; 5
     230:	8b bb       	out	0x1b, r24	; 27
     232:	85 e0       	ldi	r24, 0x05	; 5
     234:	8a 95       	dec	r24
     236:	f1 f7       	brne	.-4      	; 0x234 <_ZN5myLCD5TulisEhPKc.constprop.31+0x7a>
     238:	00 00       	nop
     23a:	da 98       	cbi	0x1b, 2	; 27
     23c:	95 ed       	ldi	r25, 0xD5	; 213
     23e:	9a 95       	dec	r25
     240:	f1 f7       	brne	.-4      	; 0x23e <_ZN5myLCD5TulisEhPKc.constprop.31+0x84>
     242:	00 00       	nop
     244:	da 9a       	sbi	0x1b, 2	; 27
     246:	81 91       	ld	r24, Z+
     248:	81 11       	cpse	r24, r1
     24a:	df cf       	rjmp	.-66     	; 0x20a <_ZN5myLCD5TulisEhPKc.constprop.31+0x50>
     24c:	08 95       	ret
     24e:	d8 9a       	sbi	0x1b, 0	; 27
     250:	98 2f       	mov	r25, r24
     252:	90 7f       	andi	r25, 0xF0	; 240
     254:	9d 60       	ori	r25, 0x0D	; 13
     256:	9b bb       	out	0x1b, r25	; 27
     258:	25 e0       	ldi	r18, 0x05	; 5
     25a:	2a 95       	dec	r18
     25c:	f1 f7       	brne	.-4      	; 0x25a <_ZN5myLCD5TulisEhPKc.constprop.31+0xa0>
     25e:	00 00       	nop
     260:	da 98       	cbi	0x1b, 2	; 27
     262:	9a e1       	ldi	r25, 0x1A	; 26
     264:	9a 95       	dec	r25
     266:	f1 f7       	brne	.-4      	; 0x264 <_ZN5myLCD5TulisEhPKc.constprop.31+0xaa>
     268:	00 c0       	rjmp	.+0      	; 0x26a <_ZN5myLCD5TulisEhPKc.constprop.31+0xb0>
     26a:	20 e1       	ldi	r18, 0x10	; 16
     26c:	82 9f       	mul	r24, r18
     26e:	c0 01       	movw	r24, r0
     270:	11 24       	eor	r1, r1
     272:	8d 60       	ori	r24, 0x0D	; 13
     274:	8b bb       	out	0x1b, r24	; 27
     276:	85 e0       	ldi	r24, 0x05	; 5
     278:	8a 95       	dec	r24
     27a:	f1 f7       	brne	.-4      	; 0x278 <_ZN5myLCD5TulisEhPKc.constprop.31+0xbe>
     27c:	00 00       	nop
     27e:	da 98       	cbi	0x1b, 2	; 27
     280:	95 ed       	ldi	r25, 0xD5	; 213
     282:	9a 95       	dec	r25
     284:	f1 f7       	brne	.-4      	; 0x282 <_ZN5myLCD5TulisEhPKc.constprop.31+0xc8>
     286:	00 00       	nop
     288:	da 9a       	sbi	0x1b, 2	; 27
     28a:	81 91       	ld	r24, Z+
     28c:	81 11       	cpse	r24, r1
     28e:	df cf       	rjmp	.-66     	; 0x24e <_ZN5myLCD5TulisEhPKc.constprop.31+0x94>
     290:	08 95       	ret
     292:	8c ec       	ldi	r24, 0xCC	; 204
     294:	8b bb       	out	0x1b, r24	; 27
     296:	99 cf       	rjmp	.-206    	; 0x1ca <_ZN5myLCD5TulisEhPKc.constprop.31+0x10>
     298:	20 fc       	sbrc	r2, 0
     29a:	16 c0       	rjmp	.+44     	; 0x2c8 <_ZN5myLCD5TulisEhPKc.constprop.31+0x10e>
     29c:	84 e8       	ldi	r24, 0x84	; 132
     29e:	8b bb       	out	0x1b, r24	; 27
     2a0:	25 e0       	ldi	r18, 0x05	; 5
     2a2:	2a 95       	dec	r18
     2a4:	f1 f7       	brne	.-4      	; 0x2a2 <_ZN5myLCD5TulisEhPKc.constprop.31+0xe8>
     2a6:	00 00       	nop
     2a8:	da 98       	cbi	0x1b, 2	; 27
     2aa:	8a e1       	ldi	r24, 0x1A	; 26
     2ac:	8a 95       	dec	r24
     2ae:	f1 f7       	brne	.-4      	; 0x2ac <_ZN5myLCD5TulisEhPKc.constprop.31+0xf2>
     2b0:	00 c0       	rjmp	.+0      	; 0x2b2 <_ZN5myLCD5TulisEhPKc.constprop.31+0xf8>
     2b2:	20 fc       	sbrc	r2, 0
     2b4:	0c c0       	rjmp	.+24     	; 0x2ce <_ZN5myLCD5TulisEhPKc.constprop.31+0x114>
     2b6:	84 e0       	ldi	r24, 0x04	; 4
     2b8:	8b bb       	out	0x1b, r24	; 27
     2ba:	95 e0       	ldi	r25, 0x05	; 5
     2bc:	9a 95       	dec	r25
     2be:	f1 f7       	brne	.-4      	; 0x2bc <_ZN5myLCD5TulisEhPKc.constprop.31+0x102>
     2c0:	94 cf       	rjmp	.-216    	; 0x1ea <_ZN5myLCD5TulisEhPKc.constprop.31+0x30>
     2c2:	8c e0       	ldi	r24, 0x0C	; 12
     2c4:	8b bb       	out	0x1b, r24	; 27
     2c6:	8e cf       	rjmp	.-228    	; 0x1e4 <_ZN5myLCD5TulisEhPKc.constprop.31+0x2a>
     2c8:	8c e8       	ldi	r24, 0x8C	; 140
     2ca:	8b bb       	out	0x1b, r24	; 27
     2cc:	e9 cf       	rjmp	.-46     	; 0x2a0 <_ZN5myLCD5TulisEhPKc.constprop.31+0xe6>
     2ce:	8c e0       	ldi	r24, 0x0C	; 12
     2d0:	8b bb       	out	0x1b, r24	; 27
     2d2:	f3 cf       	rjmp	.-26     	; 0x2ba <_ZN5myLCD5TulisEhPKc.constprop.31+0x100>

000002d4 <__vector_30>:
     2d4:	1f 92       	push	r1
     2d6:	0f 92       	push	r0
     2d8:	0f b6       	in	r0, 0x3f	; 63
     2da:	0f 92       	push	r0
     2dc:	11 24       	eor	r1, r1
     2de:	0b b6       	in	r0, 0x3b	; 59
     2e0:	0f 92       	push	r0
     2e2:	8f 93       	push	r24
     2e4:	ef 93       	push	r30
     2e6:	ff 93       	push	r31
     2e8:	cf 93       	push	r28
     2ea:	df 93       	push	r29
     2ec:	00 d0       	rcall	.+0      	; 0x2ee <__vector_30+0x1a>
     2ee:	cd b7       	in	r28, 0x3d	; 61
     2f0:	de b7       	in	r29, 0x3e	; 62
     2f2:	80 91 9b 00 	lds	r24, 0x009B
     2f6:	8a 83       	std	Y+2, r24	; 0x02
     2f8:	80 91 9c 00 	lds	r24, 0x009C
     2fc:	89 83       	std	Y+1, r24	; 0x01
     2fe:	8a 81       	ldd	r24, Y+2	; 0x02
     300:	8c 71       	andi	r24, 0x1C	; 28
     302:	a9 f4       	brne	.+42     	; 0x32e <__vector_30+0x5a>
     304:	e0 91 2f 02 	lds	r30, 0x022F
     308:	f0 e0       	ldi	r31, 0x00	; 0
     30a:	89 81       	ldd	r24, Y+1	; 0x01
     30c:	e0 5d       	subi	r30, 0xD0	; 208
     30e:	fd 4f       	sbci	r31, 0xFD	; 253
     310:	80 83       	st	Z, r24
     312:	80 91 2f 02 	lds	r24, 0x022F
     316:	8f 5f       	subi	r24, 0xFF	; 255
     318:	80 93 2f 02 	sts	0x022F, r24
     31c:	80 31       	cpi	r24, 0x10	; 16
     31e:	d9 f0       	breq	.+54     	; 0x356 <__vector_30+0x82>
     320:	80 91 2d 02 	lds	r24, 0x022D
     324:	8f 5f       	subi	r24, 0xFF	; 255
     326:	80 93 2d 02 	sts	0x022D, r24
     32a:	80 31       	cpi	r24, 0x10	; 16
     32c:	71 f0       	breq	.+28     	; 0x34a <__vector_30+0x76>
     32e:	0f 90       	pop	r0
     330:	0f 90       	pop	r0
     332:	df 91       	pop	r29
     334:	cf 91       	pop	r28
     336:	ff 91       	pop	r31
     338:	ef 91       	pop	r30
     33a:	8f 91       	pop	r24
     33c:	0f 90       	pop	r0
     33e:	0b be       	out	0x3b, r0	; 59
     340:	0f 90       	pop	r0
     342:	0f be       	out	0x3f, r0	; 63
     344:	0f 90       	pop	r0
     346:	1f 90       	pop	r1
     348:	18 95       	reti
     34a:	10 92 2d 02 	sts	0x022D, r1
     34e:	81 e0       	ldi	r24, 0x01	; 1
     350:	80 93 2c 02 	sts	0x022C, r24
     354:	ec cf       	rjmp	.-40     	; 0x32e <__vector_30+0x5a>
     356:	10 92 2f 02 	sts	0x022F, r1
     35a:	80 91 2d 02 	lds	r24, 0x022D
     35e:	8f 5f       	subi	r24, 0xFF	; 255
     360:	80 93 2d 02 	sts	0x022D, r24
     364:	80 31       	cpi	r24, 0x10	; 16
     366:	19 f7       	brne	.-58     	; 0x32e <__vector_30+0x5a>
     368:	f0 cf       	rjmp	.-32     	; 0x34a <__vector_30+0x76>

0000036a <_ZN8myBuzzer5Nada1Ev>:
     36a:	8b e1       	ldi	r24, 0x1B	; 27
     36c:	83 bf       	out	0x33, r24	; 51
     36e:	12 be       	out	0x32, r1	; 50
     370:	8a ef       	ldi	r24, 0xFA	; 250
     372:	81 bf       	out	0x31, r24	; 49
     374:	84 e6       	ldi	r24, 0x64	; 100
     376:	90 e0       	ldi	r25, 0x00	; 0
     378:	ef e9       	ldi	r30, 0x9F	; 159
     37a:	ff e0       	ldi	r31, 0x0F	; 15
     37c:	31 97       	sbiw	r30, 0x01	; 1
     37e:	f1 f7       	brne	.-4      	; 0x37c <_ZN8myBuzzer5Nada1Ev+0x12>
     380:	00 c0       	rjmp	.+0      	; 0x382 <_ZN8myBuzzer5Nada1Ev+0x18>
     382:	00 00       	nop
     384:	01 97       	sbiw	r24, 0x01	; 1
     386:	00 97       	sbiw	r24, 0x00	; 0
     388:	b9 f7       	brne	.-18     	; 0x378 <_ZN8myBuzzer5Nada1Ev+0xe>
     38a:	13 be       	out	0x33, r1	; 51
     38c:	10 be       	out	0x30, r1	; 48
     38e:	c4 98       	cbi	0x18, 4	; 24
     390:	8c e1       	ldi	r24, 0x1C	; 28
     392:	83 bf       	out	0x33, r24	; 51
     394:	12 be       	out	0x32, r1	; 50
     396:	8a ef       	ldi	r24, 0xFA	; 250
     398:	81 bf       	out	0x31, r24	; 49
     39a:	84 e1       	ldi	r24, 0x14	; 20
     39c:	90 e0       	ldi	r25, 0x00	; 0
     39e:	ef e9       	ldi	r30, 0x9F	; 159
     3a0:	ff e0       	ldi	r31, 0x0F	; 15
     3a2:	31 97       	sbiw	r30, 0x01	; 1
     3a4:	f1 f7       	brne	.-4      	; 0x3a2 <_ZN8myBuzzer5Nada1Ev+0x38>
     3a6:	00 c0       	rjmp	.+0      	; 0x3a8 <_ZN8myBuzzer5Nada1Ev+0x3e>
     3a8:	00 00       	nop
     3aa:	01 97       	sbiw	r24, 0x01	; 1
     3ac:	00 97       	sbiw	r24, 0x00	; 0
     3ae:	b9 f7       	brne	.-18     	; 0x39e <_ZN8myBuzzer5Nada1Ev+0x34>
     3b0:	13 be       	out	0x33, r1	; 51
     3b2:	10 be       	out	0x30, r1	; 48
     3b4:	c4 98       	cbi	0x18, 4	; 24
     3b6:	8b e1       	ldi	r24, 0x1B	; 27
     3b8:	83 bf       	out	0x33, r24	; 51
     3ba:	12 be       	out	0x32, r1	; 50
     3bc:	83 e5       	ldi	r24, 0x53	; 83
     3be:	81 bf       	out	0x31, r24	; 49
     3c0:	82 e3       	ldi	r24, 0x32	; 50
     3c2:	90 e0       	ldi	r25, 0x00	; 0
     3c4:	ef e9       	ldi	r30, 0x9F	; 159
     3c6:	ff e0       	ldi	r31, 0x0F	; 15
     3c8:	31 97       	sbiw	r30, 0x01	; 1
     3ca:	f1 f7       	brne	.-4      	; 0x3c8 <_ZN8myBuzzer5Nada1Ev+0x5e>
     3cc:	00 c0       	rjmp	.+0      	; 0x3ce <_ZN8myBuzzer5Nada1Ev+0x64>
     3ce:	00 00       	nop
     3d0:	01 97       	sbiw	r24, 0x01	; 1
     3d2:	00 97       	sbiw	r24, 0x00	; 0
     3d4:	b9 f7       	brne	.-18     	; 0x3c4 <_ZN8myBuzzer5Nada1Ev+0x5a>
     3d6:	13 be       	out	0x33, r1	; 51
     3d8:	10 be       	out	0x30, r1	; 48
     3da:	c4 98       	cbi	0x18, 4	; 24
     3dc:	8c e1       	ldi	r24, 0x1C	; 28
     3de:	83 bf       	out	0x33, r24	; 51
     3e0:	12 be       	out	0x32, r1	; 50
     3e2:	8a ef       	ldi	r24, 0xFA	; 250
     3e4:	81 bf       	out	0x31, r24	; 49
     3e6:	84 e1       	ldi	r24, 0x14	; 20
     3e8:	90 e0       	ldi	r25, 0x00	; 0
     3ea:	ef e9       	ldi	r30, 0x9F	; 159
     3ec:	ff e0       	ldi	r31, 0x0F	; 15
     3ee:	31 97       	sbiw	r30, 0x01	; 1
     3f0:	f1 f7       	brne	.-4      	; 0x3ee <_ZN8myBuzzer5Nada1Ev+0x84>
     3f2:	00 c0       	rjmp	.+0      	; 0x3f4 <_ZN8myBuzzer5Nada1Ev+0x8a>
     3f4:	00 00       	nop
     3f6:	01 97       	sbiw	r24, 0x01	; 1
     3f8:	00 97       	sbiw	r24, 0x00	; 0
     3fa:	b9 f7       	brne	.-18     	; 0x3ea <_ZN8myBuzzer5Nada1Ev+0x80>
     3fc:	13 be       	out	0x33, r1	; 51
     3fe:	10 be       	out	0x30, r1	; 48
     400:	c4 98       	cbi	0x18, 4	; 24
     402:	8b e1       	ldi	r24, 0x1B	; 27
     404:	83 bf       	out	0x33, r24	; 51
     406:	12 be       	out	0x32, r1	; 50
     408:	83 e5       	ldi	r24, 0x53	; 83
     40a:	81 bf       	out	0x31, r24	; 49
     40c:	84 e6       	ldi	r24, 0x64	; 100
     40e:	90 e0       	ldi	r25, 0x00	; 0
     410:	ef e9       	ldi	r30, 0x9F	; 159
     412:	ff e0       	ldi	r31, 0x0F	; 15
     414:	31 97       	sbiw	r30, 0x01	; 1
     416:	f1 f7       	brne	.-4      	; 0x414 <_ZN8myBuzzer5Nada1Ev+0xaa>
     418:	00 c0       	rjmp	.+0      	; 0x41a <_ZN8myBuzzer5Nada1Ev+0xb0>
     41a:	00 00       	nop
     41c:	01 97       	sbiw	r24, 0x01	; 1
     41e:	00 97       	sbiw	r24, 0x00	; 0
     420:	b9 f7       	brne	.-18     	; 0x410 <_ZN8myBuzzer5Nada1Ev+0xa6>
     422:	13 be       	out	0x33, r1	; 51
     424:	10 be       	out	0x30, r1	; 48
     426:	c4 98       	cbi	0x18, 4	; 24
     428:	8c e1       	ldi	r24, 0x1C	; 28
     42a:	83 bf       	out	0x33, r24	; 51
     42c:	12 be       	out	0x32, r1	; 50
     42e:	8a ef       	ldi	r24, 0xFA	; 250
     430:	81 bf       	out	0x31, r24	; 49
     432:	84 e1       	ldi	r24, 0x14	; 20
     434:	90 e0       	ldi	r25, 0x00	; 0
     436:	ef e9       	ldi	r30, 0x9F	; 159
     438:	ff e0       	ldi	r31, 0x0F	; 15
     43a:	31 97       	sbiw	r30, 0x01	; 1
     43c:	f1 f7       	brne	.-4      	; 0x43a <_ZN8myBuzzer5Nada1Ev+0xd0>
     43e:	00 c0       	rjmp	.+0      	; 0x440 <_ZN8myBuzzer5Nada1Ev+0xd6>
     440:	00 00       	nop
     442:	01 97       	sbiw	r24, 0x01	; 1
     444:	00 97       	sbiw	r24, 0x00	; 0
     446:	b9 f7       	brne	.-18     	; 0x436 <_ZN8myBuzzer5Nada1Ev+0xcc>
     448:	13 be       	out	0x33, r1	; 51
     44a:	10 be       	out	0x30, r1	; 48
     44c:	c4 98       	cbi	0x18, 4	; 24
     44e:	8b e1       	ldi	r24, 0x1B	; 27
     450:	83 bf       	out	0x33, r24	; 51
     452:	12 be       	out	0x32, r1	; 50
     454:	8d e7       	ldi	r24, 0x7D	; 125
     456:	81 bf       	out	0x31, r24	; 49
     458:	82 e3       	ldi	r24, 0x32	; 50
     45a:	90 e0       	ldi	r25, 0x00	; 0
     45c:	ef e9       	ldi	r30, 0x9F	; 159
     45e:	ff e0       	ldi	r31, 0x0F	; 15
     460:	31 97       	sbiw	r30, 0x01	; 1
     462:	f1 f7       	brne	.-4      	; 0x460 <_ZN8myBuzzer5Nada1Ev+0xf6>
     464:	00 c0       	rjmp	.+0      	; 0x466 <_ZN8myBuzzer5Nada1Ev+0xfc>
     466:	00 00       	nop
     468:	01 97       	sbiw	r24, 0x01	; 1
     46a:	00 97       	sbiw	r24, 0x00	; 0
     46c:	b9 f7       	brne	.-18     	; 0x45c <_ZN8myBuzzer5Nada1Ev+0xf2>
     46e:	13 be       	out	0x33, r1	; 51
     470:	10 be       	out	0x30, r1	; 48
     472:	c4 98       	cbi	0x18, 4	; 24
     474:	08 95       	ret

00000476 <_ZN8myBuzzer5Nada2Ev>:
     476:	8b e1       	ldi	r24, 0x1B	; 27
     478:	83 bf       	out	0x33, r24	; 51
     47a:	12 be       	out	0x32, r1	; 50
     47c:	83 e5       	ldi	r24, 0x53	; 83
     47e:	81 bf       	out	0x31, r24	; 49
     480:	84 e6       	ldi	r24, 0x64	; 100
     482:	90 e0       	ldi	r25, 0x00	; 0
     484:	ef e9       	ldi	r30, 0x9F	; 159
     486:	ff e0       	ldi	r31, 0x0F	; 15
     488:	31 97       	sbiw	r30, 0x01	; 1
     48a:	f1 f7       	brne	.-4      	; 0x488 <_ZN8myBuzzer5Nada2Ev+0x12>
     48c:	00 c0       	rjmp	.+0      	; 0x48e <_ZN8myBuzzer5Nada2Ev+0x18>
     48e:	00 00       	nop
     490:	01 97       	sbiw	r24, 0x01	; 1
     492:	00 97       	sbiw	r24, 0x00	; 0
     494:	b9 f7       	brne	.-18     	; 0x484 <_ZN8myBuzzer5Nada2Ev+0xe>
     496:	13 be       	out	0x33, r1	; 51
     498:	10 be       	out	0x30, r1	; 48
     49a:	c4 98       	cbi	0x18, 4	; 24
     49c:	8c e1       	ldi	r24, 0x1C	; 28
     49e:	83 bf       	out	0x33, r24	; 51
     4a0:	12 be       	out	0x32, r1	; 50
     4a2:	8a ef       	ldi	r24, 0xFA	; 250
     4a4:	81 bf       	out	0x31, r24	; 49
     4a6:	84 e1       	ldi	r24, 0x14	; 20
     4a8:	90 e0       	ldi	r25, 0x00	; 0
     4aa:	ef e9       	ldi	r30, 0x9F	; 159
     4ac:	ff e0       	ldi	r31, 0x0F	; 15
     4ae:	31 97       	sbiw	r30, 0x01	; 1
     4b0:	f1 f7       	brne	.-4      	; 0x4ae <_ZN8myBuzzer5Nada2Ev+0x38>
     4b2:	00 c0       	rjmp	.+0      	; 0x4b4 <_ZN8myBuzzer5Nada2Ev+0x3e>
     4b4:	00 00       	nop
     4b6:	01 97       	sbiw	r24, 0x01	; 1
     4b8:	00 97       	sbiw	r24, 0x00	; 0
     4ba:	b9 f7       	brne	.-18     	; 0x4aa <_ZN8myBuzzer5Nada2Ev+0x34>
     4bc:	13 be       	out	0x33, r1	; 51
     4be:	10 be       	out	0x30, r1	; 48
     4c0:	c4 98       	cbi	0x18, 4	; 24
     4c2:	8b e1       	ldi	r24, 0x1B	; 27
     4c4:	83 bf       	out	0x33, r24	; 51
     4c6:	12 be       	out	0x32, r1	; 50
     4c8:	84 e6       	ldi	r24, 0x64	; 100
     4ca:	81 bf       	out	0x31, r24	; 49
     4cc:	86 e9       	ldi	r24, 0x96	; 150
     4ce:	90 e0       	ldi	r25, 0x00	; 0
     4d0:	ef e9       	ldi	r30, 0x9F	; 159
     4d2:	ff e0       	ldi	r31, 0x0F	; 15
     4d4:	31 97       	sbiw	r30, 0x01	; 1
     4d6:	f1 f7       	brne	.-4      	; 0x4d4 <_ZN8myBuzzer5Nada2Ev+0x5e>
     4d8:	00 c0       	rjmp	.+0      	; 0x4da <_ZN8myBuzzer5Nada2Ev+0x64>
     4da:	00 00       	nop
     4dc:	01 97       	sbiw	r24, 0x01	; 1
     4de:	00 97       	sbiw	r24, 0x00	; 0
     4e0:	b9 f7       	brne	.-18     	; 0x4d0 <_ZN8myBuzzer5Nada2Ev+0x5a>
     4e2:	13 be       	out	0x33, r1	; 51
     4e4:	10 be       	out	0x30, r1	; 48
     4e6:	c4 98       	cbi	0x18, 4	; 24
     4e8:	8c e1       	ldi	r24, 0x1C	; 28
     4ea:	83 bf       	out	0x33, r24	; 51
     4ec:	12 be       	out	0x32, r1	; 50
     4ee:	8a ef       	ldi	r24, 0xFA	; 250
     4f0:	81 bf       	out	0x31, r24	; 49
     4f2:	84 e1       	ldi	r24, 0x14	; 20
     4f4:	90 e0       	ldi	r25, 0x00	; 0
     4f6:	ef e9       	ldi	r30, 0x9F	; 159
     4f8:	ff e0       	ldi	r31, 0x0F	; 15
     4fa:	31 97       	sbiw	r30, 0x01	; 1
     4fc:	f1 f7       	brne	.-4      	; 0x4fa <_ZN8myBuzzer5Nada2Ev+0x84>
     4fe:	00 c0       	rjmp	.+0      	; 0x500 <_ZN8myBuzzer5Nada2Ev+0x8a>
     500:	00 00       	nop
     502:	01 97       	sbiw	r24, 0x01	; 1
     504:	00 97       	sbiw	r24, 0x00	; 0
     506:	b9 f7       	brne	.-18     	; 0x4f6 <_ZN8myBuzzer5Nada2Ev+0x80>
     508:	13 be       	out	0x33, r1	; 51
     50a:	10 be       	out	0x30, r1	; 48
     50c:	c4 98       	cbi	0x18, 4	; 24
     50e:	8b e1       	ldi	r24, 0x1B	; 27
     510:	83 bf       	out	0x33, r24	; 51
     512:	12 be       	out	0x32, r1	; 50
     514:	8a ef       	ldi	r24, 0xFA	; 250
     516:	81 bf       	out	0x31, r24	; 49
     518:	82 e3       	ldi	r24, 0x32	; 50
     51a:	90 e0       	ldi	r25, 0x00	; 0
     51c:	ef e9       	ldi	r30, 0x9F	; 159
     51e:	ff e0       	ldi	r31, 0x0F	; 15
     520:	31 97       	sbiw	r30, 0x01	; 1
     522:	f1 f7       	brne	.-4      	; 0x520 <_ZN8myBuzzer5Nada2Ev+0xaa>
     524:	00 c0       	rjmp	.+0      	; 0x526 <_ZN8myBuzzer5Nada2Ev+0xb0>
     526:	00 00       	nop
     528:	01 97       	sbiw	r24, 0x01	; 1
     52a:	00 97       	sbiw	r24, 0x00	; 0
     52c:	b9 f7       	brne	.-18     	; 0x51c <_ZN8myBuzzer5Nada2Ev+0xa6>
     52e:	13 be       	out	0x33, r1	; 51
     530:	10 be       	out	0x30, r1	; 48
     532:	c4 98       	cbi	0x18, 4	; 24
     534:	8c e1       	ldi	r24, 0x1C	; 28
     536:	83 bf       	out	0x33, r24	; 51
     538:	12 be       	out	0x32, r1	; 50
     53a:	8a ef       	ldi	r24, 0xFA	; 250
     53c:	81 bf       	out	0x31, r24	; 49
     53e:	84 e1       	ldi	r24, 0x14	; 20
     540:	90 e0       	ldi	r25, 0x00	; 0
     542:	ef e9       	ldi	r30, 0x9F	; 159
     544:	ff e0       	ldi	r31, 0x0F	; 15
     546:	31 97       	sbiw	r30, 0x01	; 1
     548:	f1 f7       	brne	.-4      	; 0x546 <_ZN8myBuzzer5Nada2Ev+0xd0>
     54a:	00 c0       	rjmp	.+0      	; 0x54c <_ZN8myBuzzer5Nada2Ev+0xd6>
     54c:	00 00       	nop
     54e:	01 97       	sbiw	r24, 0x01	; 1
     550:	00 97       	sbiw	r24, 0x00	; 0
     552:	b9 f7       	brne	.-18     	; 0x542 <_ZN8myBuzzer5Nada2Ev+0xcc>
     554:	13 be       	out	0x33, r1	; 51
     556:	10 be       	out	0x30, r1	; 48
     558:	c4 98       	cbi	0x18, 4	; 24
     55a:	8b e1       	ldi	r24, 0x1B	; 27
     55c:	83 bf       	out	0x33, r24	; 51
     55e:	12 be       	out	0x32, r1	; 50
     560:	83 e5       	ldi	r24, 0x53	; 83
     562:	81 bf       	out	0x31, r24	; 49
     564:	82 e3       	ldi	r24, 0x32	; 50
     566:	90 e0       	ldi	r25, 0x00	; 0
     568:	ef e9       	ldi	r30, 0x9F	; 159
     56a:	ff e0       	ldi	r31, 0x0F	; 15
     56c:	31 97       	sbiw	r30, 0x01	; 1
     56e:	f1 f7       	brne	.-4      	; 0x56c <_ZN8myBuzzer5Nada2Ev+0xf6>
     570:	00 c0       	rjmp	.+0      	; 0x572 <_ZN8myBuzzer5Nada2Ev+0xfc>
     572:	00 00       	nop
     574:	01 97       	sbiw	r24, 0x01	; 1
     576:	00 97       	sbiw	r24, 0x00	; 0
     578:	b9 f7       	brne	.-18     	; 0x568 <_ZN8myBuzzer5Nada2Ev+0xf2>
     57a:	13 be       	out	0x33, r1	; 51
     57c:	10 be       	out	0x30, r1	; 48
     57e:	c4 98       	cbi	0x18, 4	; 24
     580:	08 95       	ret

00000582 <_ZN5myLCD8PerintahEh>:
     582:	d8 98       	cbi	0x1b, 0	; 27
     584:	86 2f       	mov	r24, r22
     586:	80 7f       	andi	r24, 0xF0	; 240
     588:	20 fe       	sbrs	r2, 0
     58a:	20 c0       	rjmp	.+64     	; 0x5cc <_ZN5myLCD8PerintahEh+0x4a>
     58c:	8c 60       	ori	r24, 0x0C	; 12
     58e:	8b bb       	out	0x1b, r24	; 27
     590:	85 e0       	ldi	r24, 0x05	; 5
     592:	8a 95       	dec	r24
     594:	f1 f7       	brne	.-4      	; 0x592 <_ZN5myLCD8PerintahEh+0x10>
     596:	00 00       	nop
     598:	da 98       	cbi	0x1b, 2	; 27
     59a:	9a e1       	ldi	r25, 0x1A	; 26
     59c:	9a 95       	dec	r25
     59e:	f1 f7       	brne	.-4      	; 0x59c <_ZN5myLCD8PerintahEh+0x1a>
     5a0:	00 c0       	rjmp	.+0      	; 0x5a2 <_ZN5myLCD8PerintahEh+0x20>
     5a2:	20 fc       	sbrc	r2, 0
     5a4:	16 c0       	rjmp	.+44     	; 0x5d2 <_ZN5myLCD8PerintahEh+0x50>
     5a6:	90 e1       	ldi	r25, 0x10	; 16
     5a8:	69 9f       	mul	r22, r25
     5aa:	b0 01       	movw	r22, r0
     5ac:	11 24       	eor	r1, r1
     5ae:	64 60       	ori	r22, 0x04	; 4
     5b0:	6b bb       	out	0x1b, r22	; 27
     5b2:	85 e0       	ldi	r24, 0x05	; 5
     5b4:	8a 95       	dec	r24
     5b6:	f1 f7       	brne	.-4      	; 0x5b4 <_ZN5myLCD8PerintahEh+0x32>
     5b8:	00 00       	nop
     5ba:	da 98       	cbi	0x1b, 2	; 27
     5bc:	8f ee       	ldi	r24, 0xEF	; 239
     5be:	9a e0       	ldi	r25, 0x0A	; 10
     5c0:	01 97       	sbiw	r24, 0x01	; 1
     5c2:	f1 f7       	brne	.-4      	; 0x5c0 <_ZN5myLCD8PerintahEh+0x3e>
     5c4:	00 c0       	rjmp	.+0      	; 0x5c6 <_ZN5myLCD8PerintahEh+0x44>
     5c6:	00 00       	nop
     5c8:	da 9a       	sbi	0x1b, 2	; 27
     5ca:	08 95       	ret
     5cc:	84 60       	ori	r24, 0x04	; 4
     5ce:	8b bb       	out	0x1b, r24	; 27
     5d0:	df cf       	rjmp	.-66     	; 0x590 <_ZN5myLCD8PerintahEh+0xe>
     5d2:	80 e1       	ldi	r24, 0x10	; 16
     5d4:	68 9f       	mul	r22, r24
     5d6:	b0 01       	movw	r22, r0
     5d8:	11 24       	eor	r1, r1
     5da:	6c 60       	ori	r22, 0x0C	; 12
     5dc:	6b bb       	out	0x1b, r22	; 27
     5de:	e9 cf       	rjmp	.-46     	; 0x5b2 <_ZN5myLCD8PerintahEh+0x30>

000005e0 <_ZN5myLCD9TulisKiriEhPKc.constprop.16>:
     5e0:	d8 98       	cbi	0x1b, 0	; 27
     5e2:	20 fe       	sbrs	r2, 0
     5e4:	77 c0       	rjmp	.+238    	; 0x6d4 <_ZN5myLCD9TulisKiriEhPKc.constprop.16+0xf4>
     5e6:	2c e8       	ldi	r18, 0x8C	; 140
     5e8:	2b bb       	out	0x1b, r18	; 27
     5ea:	25 e0       	ldi	r18, 0x05	; 5
     5ec:	2a 95       	dec	r18
     5ee:	f1 f7       	brne	.-4      	; 0x5ec <_ZN5myLCD9TulisKiriEhPKc.constprop.16+0xc>
     5f0:	00 00       	nop
     5f2:	da 98       	cbi	0x1b, 2	; 27
     5f4:	3a e1       	ldi	r19, 0x1A	; 26
     5f6:	3a 95       	dec	r19
     5f8:	f1 f7       	brne	.-4      	; 0x5f6 <_ZN5myLCD9TulisKiriEhPKc.constprop.16+0x16>
     5fa:	00 c0       	rjmp	.+0      	; 0x5fc <_ZN5myLCD9TulisKiriEhPKc.constprop.16+0x1c>
     5fc:	20 fc       	sbrc	r2, 0
     5fe:	6d c0       	rjmp	.+218    	; 0x6da <_ZN5myLCD9TulisKiriEhPKc.constprop.16+0xfa>
     600:	24 e0       	ldi	r18, 0x04	; 4
     602:	2b bb       	out	0x1b, r18	; 27
     604:	e5 e0       	ldi	r30, 0x05	; 5
     606:	ea 95       	dec	r30
     608:	f1 f7       	brne	.-4      	; 0x606 <_ZN5myLCD9TulisKiriEhPKc.constprop.16+0x26>
     60a:	00 00       	nop
     60c:	da 98       	cbi	0x1b, 2	; 27
     60e:	ef ee       	ldi	r30, 0xEF	; 239
     610:	fa e0       	ldi	r31, 0x0A	; 10
     612:	31 97       	sbiw	r30, 0x01	; 1
     614:	f1 f7       	brne	.-4      	; 0x612 <_ZN5myLCD9TulisKiriEhPKc.constprop.16+0x32>
     616:	00 c0       	rjmp	.+0      	; 0x618 <_ZN5myLCD9TulisKiriEhPKc.constprop.16+0x38>
     618:	00 00       	nop
     61a:	da 9a       	sbi	0x1b, 2	; 27
     61c:	fc 01       	movw	r30, r24
     61e:	20 e0       	ldi	r18, 0x00	; 0
     620:	20 fc       	sbrc	r2, 0
     622:	2c c0       	rjmp	.+88     	; 0x67c <_ZN5myLCD9TulisKiriEhPKc.constprop.16+0x9c>
     624:	81 91       	ld	r24, Z+
     626:	d8 9a       	sbi	0x1b, 0	; 27
     628:	98 2f       	mov	r25, r24
     62a:	90 7f       	andi	r25, 0xF0	; 240
     62c:	95 60       	ori	r25, 0x05	; 5
     62e:	9b bb       	out	0x1b, r25	; 27
     630:	35 e0       	ldi	r19, 0x05	; 5
     632:	3a 95       	dec	r19
     634:	f1 f7       	brne	.-4      	; 0x632 <_ZN5myLCD9TulisKiriEhPKc.constprop.16+0x52>
     636:	00 00       	nop
     638:	da 98       	cbi	0x1b, 2	; 27
     63a:	9a e1       	ldi	r25, 0x1A	; 26
     63c:	9a 95       	dec	r25
     63e:	f1 f7       	brne	.-4      	; 0x63c <_ZN5myLCD9TulisKiriEhPKc.constprop.16+0x5c>
     640:	00 c0       	rjmp	.+0      	; 0x642 <_ZN5myLCD9TulisKiriEhPKc.constprop.16+0x62>
     642:	30 e1       	ldi	r19, 0x10	; 16
     644:	83 9f       	mul	r24, r19
     646:	c0 01       	movw	r24, r0
     648:	11 24       	eor	r1, r1
     64a:	85 60       	ori	r24, 0x05	; 5
     64c:	8b bb       	out	0x1b, r24	; 27
     64e:	85 e0       	ldi	r24, 0x05	; 5
     650:	8a 95       	dec	r24
     652:	f1 f7       	brne	.-4      	; 0x650 <_ZN5myLCD9TulisKiriEhPKc.constprop.16+0x70>
     654:	00 00       	nop
     656:	da 98       	cbi	0x1b, 2	; 27
     658:	95 ed       	ldi	r25, 0xD5	; 213
     65a:	9a 95       	dec	r25
     65c:	f1 f7       	brne	.-4      	; 0x65a <_ZN5myLCD9TulisKiriEhPKc.constprop.16+0x7a>
     65e:	00 00       	nop
     660:	da 9a       	sbi	0x1b, 2	; 27
     662:	3f e7       	ldi	r19, 0x7F	; 127
     664:	88 e3       	ldi	r24, 0x38	; 56
     666:	91 e0       	ldi	r25, 0x01	; 1
     668:	31 50       	subi	r19, 0x01	; 1
     66a:	80 40       	sbci	r24, 0x00	; 0
     66c:	90 40       	sbci	r25, 0x00	; 0
     66e:	e1 f7       	brne	.-8      	; 0x668 <_ZN5myLCD9TulisKiriEhPKc.constprop.16+0x88>
     670:	00 c0       	rjmp	.+0      	; 0x672 <_ZN5myLCD9TulisKiriEhPKc.constprop.16+0x92>
     672:	00 00       	nop
     674:	2f 5f       	subi	r18, 0xFF	; 255
     676:	20 31       	cpi	r18, 0x10	; 16
     678:	a9 f6       	brne	.-86     	; 0x624 <_ZN5myLCD9TulisKiriEhPKc.constprop.16+0x44>
     67a:	08 95       	ret
     67c:	81 91       	ld	r24, Z+
     67e:	d8 9a       	sbi	0x1b, 0	; 27
     680:	98 2f       	mov	r25, r24
     682:	90 7f       	andi	r25, 0xF0	; 240
     684:	9d 60       	ori	r25, 0x0D	; 13
     686:	9b bb       	out	0x1b, r25	; 27
     688:	35 e0       	ldi	r19, 0x05	; 5
     68a:	3a 95       	dec	r19
     68c:	f1 f7       	brne	.-4      	; 0x68a <_ZN5myLCD9TulisKiriEhPKc.constprop.16+0xaa>
     68e:	00 00       	nop
     690:	da 98       	cbi	0x1b, 2	; 27
     692:	9a e1       	ldi	r25, 0x1A	; 26
     694:	9a 95       	dec	r25
     696:	f1 f7       	brne	.-4      	; 0x694 <_ZN5myLCD9TulisKiriEhPKc.constprop.16+0xb4>
     698:	00 c0       	rjmp	.+0      	; 0x69a <_ZN5myLCD9TulisKiriEhPKc.constprop.16+0xba>
     69a:	30 e1       	ldi	r19, 0x10	; 16
     69c:	83 9f       	mul	r24, r19
     69e:	c0 01       	movw	r24, r0
     6a0:	11 24       	eor	r1, r1
     6a2:	8d 60       	ori	r24, 0x0D	; 13
     6a4:	8b bb       	out	0x1b, r24	; 27
     6a6:	85 e0       	ldi	r24, 0x05	; 5
     6a8:	8a 95       	dec	r24
     6aa:	f1 f7       	brne	.-4      	; 0x6a8 <_ZN5myLCD9TulisKiriEhPKc.constprop.16+0xc8>
     6ac:	00 00       	nop
     6ae:	da 98       	cbi	0x1b, 2	; 27
     6b0:	95 ed       	ldi	r25, 0xD5	; 213
     6b2:	9a 95       	dec	r25
     6b4:	f1 f7       	brne	.-4      	; 0x6b2 <_ZN5myLCD9TulisKiriEhPKc.constprop.16+0xd2>
     6b6:	00 00       	nop
     6b8:	da 9a       	sbi	0x1b, 2	; 27
     6ba:	3f e7       	ldi	r19, 0x7F	; 127
     6bc:	88 e3       	ldi	r24, 0x38	; 56
     6be:	91 e0       	ldi	r25, 0x01	; 1
     6c0:	31 50       	subi	r19, 0x01	; 1
     6c2:	80 40       	sbci	r24, 0x00	; 0
     6c4:	90 40       	sbci	r25, 0x00	; 0
     6c6:	e1 f7       	brne	.-8      	; 0x6c0 <_ZN5myLCD9TulisKiriEhPKc.constprop.16+0xe0>
     6c8:	00 c0       	rjmp	.+0      	; 0x6ca <_ZN5myLCD9TulisKiriEhPKc.constprop.16+0xea>
     6ca:	00 00       	nop
     6cc:	2f 5f       	subi	r18, 0xFF	; 255
     6ce:	20 31       	cpi	r18, 0x10	; 16
     6d0:	a9 f6       	brne	.-86     	; 0x67c <_ZN5myLCD9TulisKiriEhPKc.constprop.16+0x9c>
     6d2:	08 95       	ret
     6d4:	24 e8       	ldi	r18, 0x84	; 132
     6d6:	2b bb       	out	0x1b, r18	; 27
     6d8:	88 cf       	rjmp	.-240    	; 0x5ea <_ZN5myLCD9TulisKiriEhPKc.constprop.16+0xa>
     6da:	2c e0       	ldi	r18, 0x0C	; 12
     6dc:	2b bb       	out	0x1b, r18	; 27
     6de:	92 cf       	rjmp	.-220    	; 0x604 <_ZN5myLCD9TulisKiriEhPKc.constprop.16+0x24>

000006e0 <_ZN5myADC9CekBatereEv.part.6>:
     6e0:	f8 94       	cli
     6e2:	e8 94       	clt
     6e4:	23 f8       	bld	r2, 3
     6e6:	10 92 85 00 	sts	0x0085, r1
     6ea:	10 92 84 00 	sts	0x0084, r1
     6ee:	1d 9a       	sbi	0x03, 5	; 3
     6f0:	10 92 87 00 	sts	0x0087, r1
     6f4:	10 92 86 00 	sts	0x0086, r1
     6f8:	1a 9a       	sbi	0x03, 2	; 3
     6fa:	d8 98       	cbi	0x1b, 0	; 27
     6fc:	20 fe       	sbrs	r2, 0
     6fe:	db c0       	rjmp	.+438    	; 0x8b6 <_ZN5myADC9CekBatereEv.part.6+0x1d6>
     700:	8c e0       	ldi	r24, 0x0C	; 12
     702:	8b bb       	out	0x1b, r24	; 27
     704:	25 e0       	ldi	r18, 0x05	; 5
     706:	2a 95       	dec	r18
     708:	f1 f7       	brne	.-4      	; 0x706 <_ZN5myADC9CekBatereEv.part.6+0x26>
     70a:	00 00       	nop
     70c:	da 98       	cbi	0x1b, 2	; 27
     70e:	4a e1       	ldi	r20, 0x1A	; 26
     710:	4a 95       	dec	r20
     712:	f1 f7       	brne	.-4      	; 0x710 <_ZN5myADC9CekBatereEv.part.6+0x30>
     714:	00 c0       	rjmp	.+0      	; 0x716 <_ZN5myADC9CekBatereEv.part.6+0x36>
     716:	20 fc       	sbrc	r2, 0
     718:	cb c0       	rjmp	.+406    	; 0x8b0 <_ZN5myADC9CekBatereEv.part.6+0x1d0>
     71a:	84 e1       	ldi	r24, 0x14	; 20
     71c:	8b bb       	out	0x1b, r24	; 27
     71e:	85 e0       	ldi	r24, 0x05	; 5
     720:	8a 95       	dec	r24
     722:	f1 f7       	brne	.-4      	; 0x720 <_ZN5myADC9CekBatereEv.part.6+0x40>
     724:	00 00       	nop
     726:	da 98       	cbi	0x1b, 2	; 27
     728:	ef ee       	ldi	r30, 0xEF	; 239
     72a:	fa e0       	ldi	r31, 0x0A	; 10
     72c:	31 97       	sbiw	r30, 0x01	; 1
     72e:	f1 f7       	brne	.-4      	; 0x72c <_ZN5myADC9CekBatereEv.part.6+0x4c>
     730:	00 c0       	rjmp	.+0      	; 0x732 <_ZN5myADC9CekBatereEv.part.6+0x52>
     732:	00 00       	nop
     734:	da 9a       	sbi	0x1b, 2	; 27
     736:	8f e3       	ldi	r24, 0x3F	; 63
     738:	9f e1       	ldi	r25, 0x1F	; 31
     73a:	01 97       	sbiw	r24, 0x01	; 1
     73c:	f1 f7       	brne	.-4      	; 0x73a <_ZN5myADC9CekBatereEv.part.6+0x5a>
     73e:	00 c0       	rjmp	.+0      	; 0x740 <_ZN5myADC9CekBatereEv.part.6+0x60>
     740:	00 00       	nop
     742:	d8 98       	cbi	0x1b, 0	; 27
     744:	20 fe       	sbrs	r2, 0
     746:	b1 c0       	rjmp	.+354    	; 0x8aa <_ZN5myADC9CekBatereEv.part.6+0x1ca>
     748:	8c e8       	ldi	r24, 0x8C	; 140
     74a:	8b bb       	out	0x1b, r24	; 27
     74c:	95 e0       	ldi	r25, 0x05	; 5
     74e:	9a 95       	dec	r25
     750:	f1 f7       	brne	.-4      	; 0x74e <_ZN5myADC9CekBatereEv.part.6+0x6e>
     752:	00 00       	nop
     754:	da 98       	cbi	0x1b, 2	; 27
     756:	ea e1       	ldi	r30, 0x1A	; 26
     758:	ea 95       	dec	r30
     75a:	f1 f7       	brne	.-4      	; 0x758 <_ZN5myADC9CekBatereEv.part.6+0x78>
     75c:	00 c0       	rjmp	.+0      	; 0x75e <_ZN5myADC9CekBatereEv.part.6+0x7e>
     75e:	20 fc       	sbrc	r2, 0
     760:	a1 c0       	rjmp	.+322    	; 0x8a4 <_ZN5myADC9CekBatereEv.part.6+0x1c4>
     762:	84 e0       	ldi	r24, 0x04	; 4
     764:	8b bb       	out	0x1b, r24	; 27
     766:	25 e0       	ldi	r18, 0x05	; 5
     768:	2a 95       	dec	r18
     76a:	f1 f7       	brne	.-4      	; 0x768 <_ZN5myADC9CekBatereEv.part.6+0x88>
     76c:	00 00       	nop
     76e:	da 98       	cbi	0x1b, 2	; 27
     770:	8f ee       	ldi	r24, 0xEF	; 239
     772:	9a e0       	ldi	r25, 0x0A	; 10
     774:	01 97       	sbiw	r24, 0x01	; 1
     776:	f1 f7       	brne	.-4      	; 0x774 <_ZN5myADC9CekBatereEv.part.6+0x94>
     778:	00 c0       	rjmp	.+0      	; 0x77a <_ZN5myADC9CekBatereEv.part.6+0x9a>
     77a:	00 00       	nop
     77c:	da 9a       	sbi	0x1b, 2	; 27
     77e:	e4 e1       	ldi	r30, 0x14	; 20
     780:	f1 e0       	ldi	r31, 0x01	; 1
     782:	86 e5       	ldi	r24, 0x56	; 86
     784:	20 fe       	sbrs	r2, 0
     786:	6c c0       	rjmp	.+216    	; 0x860 <_ZN5myADC9CekBatereEv.part.6+0x180>
     788:	d8 9a       	sbi	0x1b, 0	; 27
     78a:	98 2f       	mov	r25, r24
     78c:	90 7f       	andi	r25, 0xF0	; 240
     78e:	9d 60       	ori	r25, 0x0D	; 13
     790:	9b bb       	out	0x1b, r25	; 27
     792:	95 e0       	ldi	r25, 0x05	; 5
     794:	9a 95       	dec	r25
     796:	f1 f7       	brne	.-4      	; 0x794 <_ZN5myADC9CekBatereEv.part.6+0xb4>
     798:	00 00       	nop
     79a:	da 98       	cbi	0x1b, 2	; 27
     79c:	2a e1       	ldi	r18, 0x1A	; 26
     79e:	2a 95       	dec	r18
     7a0:	f1 f7       	brne	.-4      	; 0x79e <_ZN5myADC9CekBatereEv.part.6+0xbe>
     7a2:	00 c0       	rjmp	.+0      	; 0x7a4 <_ZN5myADC9CekBatereEv.part.6+0xc4>
     7a4:	40 e1       	ldi	r20, 0x10	; 16
     7a6:	84 9f       	mul	r24, r20
     7a8:	c0 01       	movw	r24, r0
     7aa:	11 24       	eor	r1, r1
     7ac:	8d 60       	ori	r24, 0x0D	; 13
     7ae:	8b bb       	out	0x1b, r24	; 27
     7b0:	85 e0       	ldi	r24, 0x05	; 5
     7b2:	8a 95       	dec	r24
     7b4:	f1 f7       	brne	.-4      	; 0x7b2 <_ZN5myADC9CekBatereEv.part.6+0xd2>
     7b6:	00 00       	nop
     7b8:	da 98       	cbi	0x1b, 2	; 27
     7ba:	95 ed       	ldi	r25, 0xD5	; 213
     7bc:	9a 95       	dec	r25
     7be:	f1 f7       	brne	.-4      	; 0x7bc <_ZN5myADC9CekBatereEv.part.6+0xdc>
     7c0:	00 00       	nop
     7c2:	da 9a       	sbi	0x1b, 2	; 27
     7c4:	81 91       	ld	r24, Z+
     7c6:	81 11       	cpse	r24, r1
     7c8:	df cf       	rjmp	.-66     	; 0x788 <_ZN5myADC9CekBatereEv.part.6+0xa8>
     7ca:	62 e0       	ldi	r22, 0x02	; 2
     7cc:	71 e0       	ldi	r23, 0x01	; 1
     7ce:	81 e0       	ldi	r24, 0x01	; 1
     7d0:	0e 94 dd 00 	call	0x1ba	; 0x1ba <_ZN5myLCD5TulisEhPKc.constprop.31>
     7d4:	3b e1       	ldi	r19, 0x1B	; 27
     7d6:	2d e7       	ldi	r18, 0x7D	; 125
     7d8:	33 bf       	out	0x33, r19	; 51
     7da:	12 be       	out	0x32, r1	; 50
     7dc:	21 bf       	out	0x31, r18	; 49
     7de:	84 e6       	ldi	r24, 0x64	; 100
     7e0:	90 e0       	ldi	r25, 0x00	; 0
     7e2:	ef e9       	ldi	r30, 0x9F	; 159
     7e4:	ff e0       	ldi	r31, 0x0F	; 15
     7e6:	31 97       	sbiw	r30, 0x01	; 1
     7e8:	f1 f7       	brne	.-4      	; 0x7e6 <_ZN5myADC9CekBatereEv.part.6+0x106>
     7ea:	00 c0       	rjmp	.+0      	; 0x7ec <_ZN5myADC9CekBatereEv.part.6+0x10c>
     7ec:	00 00       	nop
     7ee:	01 97       	sbiw	r24, 0x01	; 1
     7f0:	00 97       	sbiw	r24, 0x00	; 0
     7f2:	b9 f7       	brne	.-18     	; 0x7e2 <_ZN5myADC9CekBatereEv.part.6+0x102>
     7f4:	13 be       	out	0x33, r1	; 51
     7f6:	10 be       	out	0x30, r1	; 48
     7f8:	c4 98       	cbi	0x18, 4	; 24
     7fa:	ff ef       	ldi	r31, 0xFF	; 255
     7fc:	41 ee       	ldi	r20, 0xE1	; 225
     7fe:	84 e0       	ldi	r24, 0x04	; 4
     800:	f1 50       	subi	r31, 0x01	; 1
     802:	40 40       	sbci	r20, 0x00	; 0
     804:	80 40       	sbci	r24, 0x00	; 0
     806:	e1 f7       	brne	.-8      	; 0x800 <_ZN5myADC9CekBatereEv.part.6+0x120>
     808:	00 c0       	rjmp	.+0      	; 0x80a <_ZN5myADC9CekBatereEv.part.6+0x12a>
     80a:	00 00       	nop
     80c:	33 bf       	out	0x33, r19	; 51
     80e:	12 be       	out	0x32, r1	; 50
     810:	21 bf       	out	0x31, r18	; 49
     812:	84 e6       	ldi	r24, 0x64	; 100
     814:	90 e0       	ldi	r25, 0x00	; 0
     816:	ef e9       	ldi	r30, 0x9F	; 159
     818:	ff e0       	ldi	r31, 0x0F	; 15
     81a:	31 97       	sbiw	r30, 0x01	; 1
     81c:	f1 f7       	brne	.-4      	; 0x81a <_ZN5myADC9CekBatereEv.part.6+0x13a>
     81e:	00 c0       	rjmp	.+0      	; 0x820 <_ZN5myADC9CekBatereEv.part.6+0x140>
     820:	00 00       	nop
     822:	01 97       	sbiw	r24, 0x01	; 1
     824:	00 97       	sbiw	r24, 0x00	; 0
     826:	b9 f7       	brne	.-18     	; 0x816 <_ZN5myADC9CekBatereEv.part.6+0x136>
     828:	13 be       	out	0x33, r1	; 51
     82a:	10 be       	out	0x30, r1	; 48
     82c:	c4 98       	cbi	0x18, 4	; 24
     82e:	ff ef       	ldi	r31, 0xFF	; 255
     830:	45 ea       	ldi	r20, 0xA5	; 165
     832:	8e e0       	ldi	r24, 0x0E	; 14
     834:	f1 50       	subi	r31, 0x01	; 1
     836:	40 40       	sbci	r20, 0x00	; 0
     838:	80 40       	sbci	r24, 0x00	; 0
     83a:	e1 f7       	brne	.-8      	; 0x834 <_ZN5myADC9CekBatereEv.part.6+0x154>
     83c:	00 c0       	rjmp	.+0      	; 0x83e <_ZN5myADC9CekBatereEv.part.6+0x15e>
     83e:	00 00       	nop
     840:	68 94       	set
     842:	20 f8       	bld	r2, 0
     844:	db 9a       	sbi	0x1b, 3	; 27
     846:	9f ef       	ldi	r25, 0xFF	; 255
     848:	e9 e6       	ldi	r30, 0x69	; 105
     84a:	f8 e1       	ldi	r31, 0x18	; 24
     84c:	91 50       	subi	r25, 0x01	; 1
     84e:	e0 40       	sbci	r30, 0x00	; 0
     850:	f0 40       	sbci	r31, 0x00	; 0
     852:	e1 f7       	brne	.-8      	; 0x84c <_ZN5myADC9CekBatereEv.part.6+0x16c>
     854:	00 c0       	rjmp	.+0      	; 0x856 <_ZN5myADC9CekBatereEv.part.6+0x176>
     856:	00 00       	nop
     858:	e8 94       	clt
     85a:	20 f8       	bld	r2, 0
     85c:	db 98       	cbi	0x1b, 3	; 27
     85e:	bc cf       	rjmp	.-136    	; 0x7d8 <_ZN5myADC9CekBatereEv.part.6+0xf8>
     860:	d8 9a       	sbi	0x1b, 0	; 27
     862:	98 2f       	mov	r25, r24
     864:	90 7f       	andi	r25, 0xF0	; 240
     866:	95 60       	ori	r25, 0x05	; 5
     868:	9b bb       	out	0x1b, r25	; 27
     86a:	25 e0       	ldi	r18, 0x05	; 5
     86c:	2a 95       	dec	r18
     86e:	f1 f7       	brne	.-4      	; 0x86c <_ZN5myADC9CekBatereEv.part.6+0x18c>
     870:	00 00       	nop
     872:	da 98       	cbi	0x1b, 2	; 27
     874:	4a e1       	ldi	r20, 0x1A	; 26
     876:	4a 95       	dec	r20
     878:	f1 f7       	brne	.-4      	; 0x876 <_ZN5myADC9CekBatereEv.part.6+0x196>
     87a:	00 c0       	rjmp	.+0      	; 0x87c <_ZN5myADC9CekBatereEv.part.6+0x19c>
     87c:	20 e1       	ldi	r18, 0x10	; 16
     87e:	82 9f       	mul	r24, r18
     880:	c0 01       	movw	r24, r0
     882:	11 24       	eor	r1, r1
     884:	85 60       	ori	r24, 0x05	; 5
     886:	8b bb       	out	0x1b, r24	; 27
     888:	45 e0       	ldi	r20, 0x05	; 5
     88a:	4a 95       	dec	r20
     88c:	f1 f7       	brne	.-4      	; 0x88a <_ZN5myADC9CekBatereEv.part.6+0x1aa>
     88e:	00 00       	nop
     890:	da 98       	cbi	0x1b, 2	; 27
     892:	85 ed       	ldi	r24, 0xD5	; 213
     894:	8a 95       	dec	r24
     896:	f1 f7       	brne	.-4      	; 0x894 <_ZN5myADC9CekBatereEv.part.6+0x1b4>
     898:	00 00       	nop
     89a:	da 9a       	sbi	0x1b, 2	; 27
     89c:	81 91       	ld	r24, Z+
     89e:	81 11       	cpse	r24, r1
     8a0:	df cf       	rjmp	.-66     	; 0x860 <_ZN5myADC9CekBatereEv.part.6+0x180>
     8a2:	93 cf       	rjmp	.-218    	; 0x7ca <_ZN5myADC9CekBatereEv.part.6+0xea>
     8a4:	8c e0       	ldi	r24, 0x0C	; 12
     8a6:	8b bb       	out	0x1b, r24	; 27
     8a8:	5e cf       	rjmp	.-324    	; 0x766 <_ZN5myADC9CekBatereEv.part.6+0x86>
     8aa:	84 e8       	ldi	r24, 0x84	; 132
     8ac:	8b bb       	out	0x1b, r24	; 27
     8ae:	4e cf       	rjmp	.-356    	; 0x74c <_ZN5myADC9CekBatereEv.part.6+0x6c>
     8b0:	8c e1       	ldi	r24, 0x1C	; 28
     8b2:	8b bb       	out	0x1b, r24	; 27
     8b4:	34 cf       	rjmp	.-408    	; 0x71e <_ZN5myADC9CekBatereEv.part.6+0x3e>
     8b6:	84 e0       	ldi	r24, 0x04	; 4
     8b8:	8b bb       	out	0x1b, r24	; 27
     8ba:	24 cf       	rjmp	.-440    	; 0x704 <_ZN5myADC9CekBatereEv.part.6+0x24>

000008bc <_ZN5myADC9CekBatereEv.constprop.13>:
     8bc:	22 fc       	sbrc	r2, 2
     8be:	08 95       	ret
     8c0:	68 94       	set
     8c2:	22 f8       	bld	r2, 2
     8c4:	80 e2       	ldi	r24, 0x20	; 32
     8c6:	87 b9       	out	0x07, r24	; 7
     8c8:	85 e3       	ldi	r24, 0x35	; 53
     8ca:	8a 95       	dec	r24
     8cc:	f1 f7       	brne	.-4      	; 0x8ca <_ZN5myADC9CekBatereEv.constprop.13+0xe>
     8ce:	00 00       	nop
     8d0:	36 9a       	sbi	0x06, 6	; 6
     8d2:	34 9b       	sbis	0x06, 4	; 6
     8d4:	fe cf       	rjmp	.-4      	; 0x8d2 <_ZN5myADC9CekBatereEv.constprop.13+0x16>
     8d6:	34 9a       	sbi	0x06, 4	; 6
     8d8:	e8 94       	clt
     8da:	22 f8       	bld	r2, 2
     8dc:	85 b1       	in	r24, 0x05	; 5
     8de:	84 36       	cpi	r24, 0x64	; 100
     8e0:	70 f7       	brcc	.-36     	; 0x8be <_ZN5myADC9CekBatereEv.constprop.13+0x2>
     8e2:	0e 94 70 03 	call	0x6e0	; 0x6e0 <_ZN5myADC9CekBatereEv.part.6>

000008e6 <_ZN5myLCD10HapusKananEh>:
     8e6:	62 95       	swap	r22
     8e8:	66 0f       	add	r22, r22
     8ea:	66 0f       	add	r22, r22
     8ec:	60 7c       	andi	r22, 0xC0	; 192
     8ee:	61 57       	subi	r22, 0x71	; 113
     8f0:	3f e0       	ldi	r19, 0x0F	; 15
     8f2:	22 2d       	mov	r18, r2
     8f4:	21 70       	andi	r18, 0x01	; 1
     8f6:	75 e2       	ldi	r23, 0x25	; 37
     8f8:	5d e2       	ldi	r21, 0x2D	; 45
     8fa:	45 e0       	ldi	r20, 0x05	; 5
     8fc:	ed e0       	ldi	r30, 0x0D	; 13
     8fe:	46 c0       	rjmp	.+140    	; 0x98c <_ZN5myLCD10HapusKananEh+0xa6>
     900:	8c 60       	ori	r24, 0x0C	; 12
     902:	8b bb       	out	0x1b, r24	; 27
     904:	85 e0       	ldi	r24, 0x05	; 5
     906:	8a 95       	dec	r24
     908:	f1 f7       	brne	.-4      	; 0x906 <_ZN5myLCD10HapusKananEh+0x20>
     90a:	00 00       	nop
     90c:	da 98       	cbi	0x1b, 2	; 27
     90e:	9a e1       	ldi	r25, 0x1A	; 26
     910:	9a 95       	dec	r25
     912:	f1 f7       	brne	.-4      	; 0x910 <_ZN5myLCD10HapusKananEh+0x2a>
     914:	00 c0       	rjmp	.+0      	; 0x916 <_ZN5myLCD10HapusKananEh+0x30>
     916:	f0 e1       	ldi	r31, 0x10	; 16
     918:	6f 9f       	mul	r22, r31
     91a:	c0 01       	movw	r24, r0
     91c:	11 24       	eor	r1, r1
     91e:	21 11       	cpse	r18, r1
     920:	3f c0       	rjmp	.+126    	; 0x9a0 <_ZN5myLCD10HapusKananEh+0xba>
     922:	84 60       	ori	r24, 0x04	; 4
     924:	8b bb       	out	0x1b, r24	; 27
     926:	85 e0       	ldi	r24, 0x05	; 5
     928:	8a 95       	dec	r24
     92a:	f1 f7       	brne	.-4      	; 0x928 <_ZN5myLCD10HapusKananEh+0x42>
     92c:	00 00       	nop
     92e:	da 98       	cbi	0x1b, 2	; 27
     930:	8f ee       	ldi	r24, 0xEF	; 239
     932:	9a e0       	ldi	r25, 0x0A	; 10
     934:	01 97       	sbiw	r24, 0x01	; 1
     936:	f1 f7       	brne	.-4      	; 0x934 <_ZN5myLCD10HapusKananEh+0x4e>
     938:	00 c0       	rjmp	.+0      	; 0x93a <_ZN5myLCD10HapusKananEh+0x54>
     93a:	00 00       	nop
     93c:	da 9a       	sbi	0x1b, 2	; 27
     93e:	d8 9a       	sbi	0x1b, 0	; 27
     940:	22 23       	and	r18, r18
     942:	61 f1       	breq	.+88     	; 0x99c <_ZN5myLCD10HapusKananEh+0xb6>
     944:	5b bb       	out	0x1b, r21	; 27
     946:	95 e0       	ldi	r25, 0x05	; 5
     948:	9a 95       	dec	r25
     94a:	f1 f7       	brne	.-4      	; 0x948 <_ZN5myLCD10HapusKananEh+0x62>
     94c:	00 00       	nop
     94e:	da 98       	cbi	0x1b, 2	; 27
     950:	fa e1       	ldi	r31, 0x1A	; 26
     952:	fa 95       	dec	r31
     954:	f1 f7       	brne	.-4      	; 0x952 <_ZN5myLCD10HapusKananEh+0x6c>
     956:	00 c0       	rjmp	.+0      	; 0x958 <_ZN5myLCD10HapusKananEh+0x72>
     958:	21 11       	cpse	r18, r1
     95a:	25 c0       	rjmp	.+74     	; 0x9a6 <_ZN5myLCD10HapusKananEh+0xc0>
     95c:	4b bb       	out	0x1b, r20	; 27
     95e:	85 e0       	ldi	r24, 0x05	; 5
     960:	8a 95       	dec	r24
     962:	f1 f7       	brne	.-4      	; 0x960 <_ZN5myLCD10HapusKananEh+0x7a>
     964:	00 00       	nop
     966:	da 98       	cbi	0x1b, 2	; 27
     968:	95 ed       	ldi	r25, 0xD5	; 213
     96a:	9a 95       	dec	r25
     96c:	f1 f7       	brne	.-4      	; 0x96a <_ZN5myLCD10HapusKananEh+0x84>
     96e:	00 00       	nop
     970:	da 9a       	sbi	0x1b, 2	; 27
     972:	ff e7       	ldi	r31, 0x7F	; 127
     974:	88 e3       	ldi	r24, 0x38	; 56
     976:	91 e0       	ldi	r25, 0x01	; 1
     978:	f1 50       	subi	r31, 0x01	; 1
     97a:	80 40       	sbci	r24, 0x00	; 0
     97c:	90 40       	sbci	r25, 0x00	; 0
     97e:	e1 f7       	brne	.-8      	; 0x978 <_ZN5myLCD10HapusKananEh+0x92>
     980:	00 c0       	rjmp	.+0      	; 0x982 <_ZN5myLCD10HapusKananEh+0x9c>
     982:	00 00       	nop
     984:	31 50       	subi	r19, 0x01	; 1
     986:	61 50       	subi	r22, 0x01	; 1
     988:	3f 3f       	cpi	r19, 0xFF	; 255
     98a:	79 f0       	breq	.+30     	; 0x9aa <_ZN5myLCD10HapusKananEh+0xc4>
     98c:	d8 98       	cbi	0x1b, 0	; 27
     98e:	86 2f       	mov	r24, r22
     990:	80 7f       	andi	r24, 0xF0	; 240
     992:	21 11       	cpse	r18, r1
     994:	b5 cf       	rjmp	.-150    	; 0x900 <_ZN5myLCD10HapusKananEh+0x1a>
     996:	84 60       	ori	r24, 0x04	; 4
     998:	8b bb       	out	0x1b, r24	; 27
     99a:	b4 cf       	rjmp	.-152    	; 0x904 <_ZN5myLCD10HapusKananEh+0x1e>
     99c:	7b bb       	out	0x1b, r23	; 27
     99e:	d3 cf       	rjmp	.-90     	; 0x946 <_ZN5myLCD10HapusKananEh+0x60>
     9a0:	8c 60       	ori	r24, 0x0C	; 12
     9a2:	8b bb       	out	0x1b, r24	; 27
     9a4:	c0 cf       	rjmp	.-128    	; 0x926 <_ZN5myLCD10HapusKananEh+0x40>
     9a6:	eb bb       	out	0x1b, r30	; 27
     9a8:	da cf       	rjmp	.-76     	; 0x95e <_ZN5myLCD10HapusKananEh+0x78>
     9aa:	08 95       	ret

000009ac <_ZN13mySensorGaris22PesanKalibrasiBerhasilEv>:
     9ac:	d8 98       	cbi	0x1b, 0	; 27
     9ae:	20 fe       	sbrs	r2, 0
     9b0:	09 c1       	rjmp	.+530    	; 0xbc4 <_ZN13mySensorGaris22PesanKalibrasiBerhasilEv+0x218>
     9b2:	8c e0       	ldi	r24, 0x0C	; 12
     9b4:	8b bb       	out	0x1b, r24	; 27
     9b6:	25 e0       	ldi	r18, 0x05	; 5
     9b8:	2a 95       	dec	r18
     9ba:	f1 f7       	brne	.-4      	; 0x9b8 <_ZN13mySensorGaris22PesanKalibrasiBerhasilEv+0xc>
     9bc:	00 00       	nop
     9be:	da 98       	cbi	0x1b, 2	; 27
     9c0:	8a e1       	ldi	r24, 0x1A	; 26
     9c2:	8a 95       	dec	r24
     9c4:	f1 f7       	brne	.-4      	; 0x9c2 <_ZN13mySensorGaris22PesanKalibrasiBerhasilEv+0x16>
     9c6:	00 c0       	rjmp	.+0      	; 0x9c8 <_ZN13mySensorGaris22PesanKalibrasiBerhasilEv+0x1c>
     9c8:	20 fc       	sbrc	r2, 0
     9ca:	ff c0       	rjmp	.+510    	; 0xbca <_ZN13mySensorGaris22PesanKalibrasiBerhasilEv+0x21e>
     9cc:	84 e1       	ldi	r24, 0x14	; 20
     9ce:	8b bb       	out	0x1b, r24	; 27
     9d0:	95 e0       	ldi	r25, 0x05	; 5
     9d2:	9a 95       	dec	r25
     9d4:	f1 f7       	brne	.-4      	; 0x9d2 <_ZN13mySensorGaris22PesanKalibrasiBerhasilEv+0x26>
     9d6:	00 00       	nop
     9d8:	da 98       	cbi	0x1b, 2	; 27
     9da:	8f ee       	ldi	r24, 0xEF	; 239
     9dc:	9a e0       	ldi	r25, 0x0A	; 10
     9de:	01 97       	sbiw	r24, 0x01	; 1
     9e0:	f1 f7       	brne	.-4      	; 0x9de <_ZN13mySensorGaris22PesanKalibrasiBerhasilEv+0x32>
     9e2:	00 c0       	rjmp	.+0      	; 0x9e4 <_ZN13mySensorGaris22PesanKalibrasiBerhasilEv+0x38>
     9e4:	00 00       	nop
     9e6:	da 9a       	sbi	0x1b, 2	; 27
     9e8:	8f e3       	ldi	r24, 0x3F	; 63
     9ea:	9f e1       	ldi	r25, 0x1F	; 31
     9ec:	01 97       	sbiw	r24, 0x01	; 1
     9ee:	f1 f7       	brne	.-4      	; 0x9ec <_ZN13mySensorGaris22PesanKalibrasiBerhasilEv+0x40>
     9f0:	00 c0       	rjmp	.+0      	; 0x9f2 <_ZN13mySensorGaris22PesanKalibrasiBerhasilEv+0x46>
     9f2:	00 00       	nop
     9f4:	d8 98       	cbi	0x1b, 0	; 27
     9f6:	20 fe       	sbrs	r2, 0
     9f8:	e2 c0       	rjmp	.+452    	; 0xbbe <_ZN13mySensorGaris22PesanKalibrasiBerhasilEv+0x212>
     9fa:	8c e8       	ldi	r24, 0x8C	; 140
     9fc:	8b bb       	out	0x1b, r24	; 27
     9fe:	95 e0       	ldi	r25, 0x05	; 5
     a00:	9a 95       	dec	r25
     a02:	f1 f7       	brne	.-4      	; 0xa00 <_ZN13mySensorGaris22PesanKalibrasiBerhasilEv+0x54>
     a04:	00 00       	nop
     a06:	da 98       	cbi	0x1b, 2	; 27
     a08:	2a e1       	ldi	r18, 0x1A	; 26
     a0a:	2a 95       	dec	r18
     a0c:	f1 f7       	brne	.-4      	; 0xa0a <_ZN13mySensorGaris22PesanKalibrasiBerhasilEv+0x5e>
     a0e:	00 c0       	rjmp	.+0      	; 0xa10 <_ZN13mySensorGaris22PesanKalibrasiBerhasilEv+0x64>
     a10:	20 fc       	sbrc	r2, 0
     a12:	e1 c0       	rjmp	.+450    	; 0xbd6 <_ZN13mySensorGaris22PesanKalibrasiBerhasilEv+0x22a>
     a14:	84 e0       	ldi	r24, 0x04	; 4
     a16:	8b bb       	out	0x1b, r24	; 27
     a18:	85 e0       	ldi	r24, 0x05	; 5
     a1a:	8a 95       	dec	r24
     a1c:	f1 f7       	brne	.-4      	; 0xa1a <_ZN13mySensorGaris22PesanKalibrasiBerhasilEv+0x6e>
     a1e:	00 00       	nop
     a20:	da 98       	cbi	0x1b, 2	; 27
     a22:	8f ee       	ldi	r24, 0xEF	; 239
     a24:	9a e0       	ldi	r25, 0x0A	; 10
     a26:	01 97       	sbiw	r24, 0x01	; 1
     a28:	f1 f7       	brne	.-4      	; 0xa26 <_ZN13mySensorGaris22PesanKalibrasiBerhasilEv+0x7a>
     a2a:	00 c0       	rjmp	.+0      	; 0xa2c <_ZN13mySensorGaris22PesanKalibrasiBerhasilEv+0x80>
     a2c:	00 00       	nop
     a2e:	da 9a       	sbi	0x1b, 2	; 27
     a30:	e5 e2       	ldi	r30, 0x25	; 37
     a32:	f1 e0       	ldi	r31, 0x01	; 1
     a34:	8b e4       	ldi	r24, 0x4B	; 75
     a36:	20 fe       	sbrs	r2, 0
     a38:	70 c0       	rjmp	.+224    	; 0xb1a <_ZN13mySensorGaris22PesanKalibrasiBerhasilEv+0x16e>
     a3a:	d8 9a       	sbi	0x1b, 0	; 27
     a3c:	98 2f       	mov	r25, r24
     a3e:	90 7f       	andi	r25, 0xF0	; 240
     a40:	9d 60       	ori	r25, 0x0D	; 13
     a42:	9b bb       	out	0x1b, r25	; 27
     a44:	95 e0       	ldi	r25, 0x05	; 5
     a46:	9a 95       	dec	r25
     a48:	f1 f7       	brne	.-4      	; 0xa46 <_ZN13mySensorGaris22PesanKalibrasiBerhasilEv+0x9a>
     a4a:	00 00       	nop
     a4c:	da 98       	cbi	0x1b, 2	; 27
     a4e:	2a e1       	ldi	r18, 0x1A	; 26
     a50:	2a 95       	dec	r18
     a52:	f1 f7       	brne	.-4      	; 0xa50 <_ZN13mySensorGaris22PesanKalibrasiBerhasilEv+0xa4>
     a54:	00 c0       	rjmp	.+0      	; 0xa56 <_ZN13mySensorGaris22PesanKalibrasiBerhasilEv+0xaa>
     a56:	20 e1       	ldi	r18, 0x10	; 16
     a58:	82 9f       	mul	r24, r18
     a5a:	c0 01       	movw	r24, r0
     a5c:	11 24       	eor	r1, r1
     a5e:	8d 60       	ori	r24, 0x0D	; 13
     a60:	8b bb       	out	0x1b, r24	; 27
     a62:	85 e0       	ldi	r24, 0x05	; 5
     a64:	8a 95       	dec	r24
     a66:	f1 f7       	brne	.-4      	; 0xa64 <_ZN13mySensorGaris22PesanKalibrasiBerhasilEv+0xb8>
     a68:	00 00       	nop
     a6a:	da 98       	cbi	0x1b, 2	; 27
     a6c:	95 ed       	ldi	r25, 0xD5	; 213
     a6e:	9a 95       	dec	r25
     a70:	f1 f7       	brne	.-4      	; 0xa6e <_ZN13mySensorGaris22PesanKalibrasiBerhasilEv+0xc2>
     a72:	00 00       	nop
     a74:	da 9a       	sbi	0x1b, 2	; 27
     a76:	81 91       	ld	r24, Z+
     a78:	81 11       	cpse	r24, r1
     a7a:	df cf       	rjmp	.-66     	; 0xa3a <_ZN13mySensorGaris22PesanKalibrasiBerhasilEv+0x8e>
     a7c:	d8 98       	cbi	0x1b, 0	; 27
     a7e:	20 fe       	sbrs	r2, 0
     a80:	9b c0       	rjmp	.+310    	; 0xbb8 <_ZN13mySensorGaris22PesanKalibrasiBerhasilEv+0x20c>
     a82:	8c ec       	ldi	r24, 0xCC	; 204
     a84:	8b bb       	out	0x1b, r24	; 27
     a86:	25 e0       	ldi	r18, 0x05	; 5
     a88:	2a 95       	dec	r18
     a8a:	f1 f7       	brne	.-4      	; 0xa88 <_ZN13mySensorGaris22PesanKalibrasiBerhasilEv+0xdc>
     a8c:	00 00       	nop
     a8e:	da 98       	cbi	0x1b, 2	; 27
     a90:	8a e1       	ldi	r24, 0x1A	; 26
     a92:	8a 95       	dec	r24
     a94:	f1 f7       	brne	.-4      	; 0xa92 <_ZN13mySensorGaris22PesanKalibrasiBerhasilEv+0xe6>
     a96:	00 c0       	rjmp	.+0      	; 0xa98 <_ZN13mySensorGaris22PesanKalibrasiBerhasilEv+0xec>
     a98:	20 fc       	sbrc	r2, 0
     a9a:	9a c0       	rjmp	.+308    	; 0xbd0 <_ZN13mySensorGaris22PesanKalibrasiBerhasilEv+0x224>
     a9c:	84 e0       	ldi	r24, 0x04	; 4
     a9e:	8b bb       	out	0x1b, r24	; 27
     aa0:	95 e0       	ldi	r25, 0x05	; 5
     aa2:	9a 95       	dec	r25
     aa4:	f1 f7       	brne	.-4      	; 0xaa2 <_ZN13mySensorGaris22PesanKalibrasiBerhasilEv+0xf6>
     aa6:	00 00       	nop
     aa8:	da 98       	cbi	0x1b, 2	; 27
     aaa:	8f ee       	ldi	r24, 0xEF	; 239
     aac:	9a e0       	ldi	r25, 0x0A	; 10
     aae:	01 97       	sbiw	r24, 0x01	; 1
     ab0:	f1 f7       	brne	.-4      	; 0xaae <_ZN13mySensorGaris22PesanKalibrasiBerhasilEv+0x102>
     ab2:	00 c0       	rjmp	.+0      	; 0xab4 <_ZN13mySensorGaris22PesanKalibrasiBerhasilEv+0x108>
     ab4:	00 00       	nop
     ab6:	da 9a       	sbi	0x1b, 2	; 27
     ab8:	e5 e3       	ldi	r30, 0x35	; 53
     aba:	f1 e0       	ldi	r31, 0x01	; 1
     abc:	20 fc       	sbrc	r2, 0
     abe:	4f c0       	rjmp	.+158    	; 0xb5e <_ZN13mySensorGaris22PesanKalibrasiBerhasilEv+0x1b2>
     ac0:	81 91       	ld	r24, Z+
     ac2:	d8 9a       	sbi	0x1b, 0	; 27
     ac4:	98 2f       	mov	r25, r24
     ac6:	90 7f       	andi	r25, 0xF0	; 240
     ac8:	95 60       	ori	r25, 0x05	; 5
     aca:	9b bb       	out	0x1b, r25	; 27
     acc:	95 e0       	ldi	r25, 0x05	; 5
     ace:	9a 95       	dec	r25
     ad0:	f1 f7       	brne	.-4      	; 0xace <_ZN13mySensorGaris22PesanKalibrasiBerhasilEv+0x122>
     ad2:	00 00       	nop
     ad4:	da 98       	cbi	0x1b, 2	; 27
     ad6:	2a e1       	ldi	r18, 0x1A	; 26
     ad8:	2a 95       	dec	r18
     ada:	f1 f7       	brne	.-4      	; 0xad8 <_ZN13mySensorGaris22PesanKalibrasiBerhasilEv+0x12c>
     adc:	00 c0       	rjmp	.+0      	; 0xade <_ZN13mySensorGaris22PesanKalibrasiBerhasilEv+0x132>
     ade:	20 e1       	ldi	r18, 0x10	; 16
     ae0:	82 9f       	mul	r24, r18
     ae2:	c0 01       	movw	r24, r0
     ae4:	11 24       	eor	r1, r1
     ae6:	85 60       	ori	r24, 0x05	; 5
     ae8:	8b bb       	out	0x1b, r24	; 27
     aea:	85 e0       	ldi	r24, 0x05	; 5
     aec:	8a 95       	dec	r24
     aee:	f1 f7       	brne	.-4      	; 0xaec <_ZN13mySensorGaris22PesanKalibrasiBerhasilEv+0x140>
     af0:	00 00       	nop
     af2:	da 98       	cbi	0x1b, 2	; 27
     af4:	95 ed       	ldi	r25, 0xD5	; 213
     af6:	9a 95       	dec	r25
     af8:	f1 f7       	brne	.-4      	; 0xaf6 <_ZN13mySensorGaris22PesanKalibrasiBerhasilEv+0x14a>
     afa:	00 00       	nop
     afc:	da 9a       	sbi	0x1b, 2	; 27
     afe:	2f e7       	ldi	r18, 0x7F	; 127
     b00:	88 e3       	ldi	r24, 0x38	; 56
     b02:	91 e0       	ldi	r25, 0x01	; 1
     b04:	21 50       	subi	r18, 0x01	; 1
     b06:	80 40       	sbci	r24, 0x00	; 0
     b08:	90 40       	sbci	r25, 0x00	; 0
     b0a:	e1 f7       	brne	.-8      	; 0xb04 <_ZN13mySensorGaris22PesanKalibrasiBerhasilEv+0x158>
     b0c:	00 c0       	rjmp	.+0      	; 0xb0e <_ZN13mySensorGaris22PesanKalibrasiBerhasilEv+0x162>
     b0e:	00 00       	nop
     b10:	21 e0       	ldi	r18, 0x01	; 1
     b12:	e5 34       	cpi	r30, 0x45	; 69
     b14:	f2 07       	cpc	r31, r18
     b16:	a1 f6       	brne	.-88     	; 0xac0 <_ZN13mySensorGaris22PesanKalibrasiBerhasilEv+0x114>
     b18:	08 95       	ret
     b1a:	d8 9a       	sbi	0x1b, 0	; 27
     b1c:	98 2f       	mov	r25, r24
     b1e:	90 7f       	andi	r25, 0xF0	; 240
     b20:	95 60       	ori	r25, 0x05	; 5
     b22:	9b bb       	out	0x1b, r25	; 27
     b24:	95 e0       	ldi	r25, 0x05	; 5
     b26:	9a 95       	dec	r25
     b28:	f1 f7       	brne	.-4      	; 0xb26 <_ZN13mySensorGaris22PesanKalibrasiBerhasilEv+0x17a>
     b2a:	00 00       	nop
     b2c:	da 98       	cbi	0x1b, 2	; 27
     b2e:	2a e1       	ldi	r18, 0x1A	; 26
     b30:	2a 95       	dec	r18
     b32:	f1 f7       	brne	.-4      	; 0xb30 <_ZN13mySensorGaris22PesanKalibrasiBerhasilEv+0x184>
     b34:	00 c0       	rjmp	.+0      	; 0xb36 <_ZN13mySensorGaris22PesanKalibrasiBerhasilEv+0x18a>
     b36:	20 e1       	ldi	r18, 0x10	; 16
     b38:	82 9f       	mul	r24, r18
     b3a:	c0 01       	movw	r24, r0
     b3c:	11 24       	eor	r1, r1
     b3e:	85 60       	ori	r24, 0x05	; 5
     b40:	8b bb       	out	0x1b, r24	; 27
     b42:	85 e0       	ldi	r24, 0x05	; 5
     b44:	8a 95       	dec	r24
     b46:	f1 f7       	brne	.-4      	; 0xb44 <_ZN13mySensorGaris22PesanKalibrasiBerhasilEv+0x198>
     b48:	00 00       	nop
     b4a:	da 98       	cbi	0x1b, 2	; 27
     b4c:	95 ed       	ldi	r25, 0xD5	; 213
     b4e:	9a 95       	dec	r25
     b50:	f1 f7       	brne	.-4      	; 0xb4e <_ZN13mySensorGaris22PesanKalibrasiBerhasilEv+0x1a2>
     b52:	00 00       	nop
     b54:	da 9a       	sbi	0x1b, 2	; 27
     b56:	81 91       	ld	r24, Z+
     b58:	81 11       	cpse	r24, r1
     b5a:	df cf       	rjmp	.-66     	; 0xb1a <_ZN13mySensorGaris22PesanKalibrasiBerhasilEv+0x16e>
     b5c:	8f cf       	rjmp	.-226    	; 0xa7c <_ZN13mySensorGaris22PesanKalibrasiBerhasilEv+0xd0>
     b5e:	81 91       	ld	r24, Z+
     b60:	d8 9a       	sbi	0x1b, 0	; 27
     b62:	98 2f       	mov	r25, r24
     b64:	90 7f       	andi	r25, 0xF0	; 240
     b66:	9d 60       	ori	r25, 0x0D	; 13
     b68:	9b bb       	out	0x1b, r25	; 27
     b6a:	25 e0       	ldi	r18, 0x05	; 5
     b6c:	2a 95       	dec	r18
     b6e:	f1 f7       	brne	.-4      	; 0xb6c <_ZN13mySensorGaris22PesanKalibrasiBerhasilEv+0x1c0>
     b70:	00 00       	nop
     b72:	da 98       	cbi	0x1b, 2	; 27
     b74:	9a e1       	ldi	r25, 0x1A	; 26
     b76:	9a 95       	dec	r25
     b78:	f1 f7       	brne	.-4      	; 0xb76 <_ZN13mySensorGaris22PesanKalibrasiBerhasilEv+0x1ca>
     b7a:	00 c0       	rjmp	.+0      	; 0xb7c <_ZN13mySensorGaris22PesanKalibrasiBerhasilEv+0x1d0>
     b7c:	20 e1       	ldi	r18, 0x10	; 16
     b7e:	82 9f       	mul	r24, r18
     b80:	c0 01       	movw	r24, r0
     b82:	11 24       	eor	r1, r1
     b84:	8d 60       	ori	r24, 0x0D	; 13
     b86:	8b bb       	out	0x1b, r24	; 27
     b88:	85 e0       	ldi	r24, 0x05	; 5
     b8a:	8a 95       	dec	r24
     b8c:	f1 f7       	brne	.-4      	; 0xb8a <_ZN13mySensorGaris22PesanKalibrasiBerhasilEv+0x1de>
     b8e:	00 00       	nop
     b90:	da 98       	cbi	0x1b, 2	; 27
     b92:	95 ed       	ldi	r25, 0xD5	; 213
     b94:	9a 95       	dec	r25
     b96:	f1 f7       	brne	.-4      	; 0xb94 <_ZN13mySensorGaris22PesanKalibrasiBerhasilEv+0x1e8>
     b98:	00 00       	nop
     b9a:	da 9a       	sbi	0x1b, 2	; 27
     b9c:	2f e7       	ldi	r18, 0x7F	; 127
     b9e:	88 e3       	ldi	r24, 0x38	; 56
     ba0:	91 e0       	ldi	r25, 0x01	; 1
     ba2:	21 50       	subi	r18, 0x01	; 1
     ba4:	80 40       	sbci	r24, 0x00	; 0
     ba6:	90 40       	sbci	r25, 0x00	; 0
     ba8:	e1 f7       	brne	.-8      	; 0xba2 <_ZN13mySensorGaris22PesanKalibrasiBerhasilEv+0x1f6>
     baa:	00 c0       	rjmp	.+0      	; 0xbac <_ZN13mySensorGaris22PesanKalibrasiBerhasilEv+0x200>
     bac:	00 00       	nop
     bae:	21 e0       	ldi	r18, 0x01	; 1
     bb0:	e5 34       	cpi	r30, 0x45	; 69
     bb2:	f2 07       	cpc	r31, r18
     bb4:	a1 f6       	brne	.-88     	; 0xb5e <_ZN13mySensorGaris22PesanKalibrasiBerhasilEv+0x1b2>
     bb6:	08 95       	ret
     bb8:	84 ec       	ldi	r24, 0xC4	; 196
     bba:	8b bb       	out	0x1b, r24	; 27
     bbc:	64 cf       	rjmp	.-312    	; 0xa86 <_ZN13mySensorGaris22PesanKalibrasiBerhasilEv+0xda>
     bbe:	84 e8       	ldi	r24, 0x84	; 132
     bc0:	8b bb       	out	0x1b, r24	; 27
     bc2:	1d cf       	rjmp	.-454    	; 0x9fe <_ZN13mySensorGaris22PesanKalibrasiBerhasilEv+0x52>
     bc4:	84 e0       	ldi	r24, 0x04	; 4
     bc6:	8b bb       	out	0x1b, r24	; 27
     bc8:	f6 ce       	rjmp	.-532    	; 0x9b6 <_ZN13mySensorGaris22PesanKalibrasiBerhasilEv+0xa>
     bca:	8c e1       	ldi	r24, 0x1C	; 28
     bcc:	8b bb       	out	0x1b, r24	; 27
     bce:	00 cf       	rjmp	.-512    	; 0x9d0 <_ZN13mySensorGaris22PesanKalibrasiBerhasilEv+0x24>
     bd0:	8c e0       	ldi	r24, 0x0C	; 12
     bd2:	8b bb       	out	0x1b, r24	; 27
     bd4:	65 cf       	rjmp	.-310    	; 0xaa0 <_ZN13mySensorGaris22PesanKalibrasiBerhasilEv+0xf4>
     bd6:	8c e0       	ldi	r24, 0x0C	; 12
     bd8:	8b bb       	out	0x1b, r24	; 27
     bda:	1e cf       	rjmp	.-452    	; 0xa18 <_ZN13mySensorGaris22PesanKalibrasiBerhasilEv+0x6c>

00000bdc <_ZN13mySensorGaris11KalibrasiRBEh>:
     bdc:	1f 93       	push	r17
     bde:	cf 93       	push	r28
     be0:	df 93       	push	r29
     be2:	ec 01       	movw	r28, r24
     be4:	d8 98       	cbi	0x1b, 0	; 27
     be6:	20 fe       	sbrs	r2, 0
     be8:	91 c3       	rjmp	.+1826   	; 0x130c <__stack+0x20d>
     bea:	8c e0       	ldi	r24, 0x0C	; 12
     bec:	8b bb       	out	0x1b, r24	; 27
     bee:	25 e0       	ldi	r18, 0x05	; 5
     bf0:	2a 95       	dec	r18
     bf2:	f1 f7       	brne	.-4      	; 0xbf0 <_ZN13mySensorGaris11KalibrasiRBEh+0x14>
     bf4:	00 00       	nop
     bf6:	da 98       	cbi	0x1b, 2	; 27
     bf8:	7a e1       	ldi	r23, 0x1A	; 26
     bfa:	7a 95       	dec	r23
     bfc:	f1 f7       	brne	.-4      	; 0xbfa <_ZN13mySensorGaris11KalibrasiRBEh+0x1e>
     bfe:	00 c0       	rjmp	.+0      	; 0xc00 <_ZN13mySensorGaris11KalibrasiRBEh+0x24>
     c00:	20 fc       	sbrc	r2, 0
     c02:	e5 c3       	rjmp	.+1994   	; 0x13ce <__stack+0x2cf>
     c04:	84 e1       	ldi	r24, 0x14	; 20
     c06:	8b bb       	out	0x1b, r24	; 27
     c08:	85 e0       	ldi	r24, 0x05	; 5
     c0a:	8a 95       	dec	r24
     c0c:	f1 f7       	brne	.-4      	; 0xc0a <_ZN13mySensorGaris11KalibrasiRBEh+0x2e>
     c0e:	00 00       	nop
     c10:	da 98       	cbi	0x1b, 2	; 27
     c12:	ef ee       	ldi	r30, 0xEF	; 239
     c14:	fa e0       	ldi	r31, 0x0A	; 10
     c16:	31 97       	sbiw	r30, 0x01	; 1
     c18:	f1 f7       	brne	.-4      	; 0xc16 <_ZN13mySensorGaris11KalibrasiRBEh+0x3a>
     c1a:	00 c0       	rjmp	.+0      	; 0xc1c <_ZN13mySensorGaris11KalibrasiRBEh+0x40>
     c1c:	00 00       	nop
     c1e:	da 9a       	sbi	0x1b, 2	; 27
     c20:	8f e3       	ldi	r24, 0x3F	; 63
     c22:	9f e1       	ldi	r25, 0x1F	; 31
     c24:	01 97       	sbiw	r24, 0x01	; 1
     c26:	f1 f7       	brne	.-4      	; 0xc24 <_ZN13mySensorGaris11KalibrasiRBEh+0x48>
     c28:	00 c0       	rjmp	.+0      	; 0xc2a <_ZN13mySensorGaris11KalibrasiRBEh+0x4e>
     c2a:	00 00       	nop
     c2c:	d8 98       	cbi	0x1b, 0	; 27
     c2e:	20 fe       	sbrs	r2, 0
     c30:	6a c3       	rjmp	.+1748   	; 0x1306 <__stack+0x207>
     c32:	8c e8       	ldi	r24, 0x8C	; 140
     c34:	8b bb       	out	0x1b, r24	; 27
     c36:	95 e0       	ldi	r25, 0x05	; 5
     c38:	9a 95       	dec	r25
     c3a:	f1 f7       	brne	.-4      	; 0xc38 <_ZN13mySensorGaris11KalibrasiRBEh+0x5c>
     c3c:	00 00       	nop
     c3e:	da 98       	cbi	0x1b, 2	; 27
     c40:	ea e1       	ldi	r30, 0x1A	; 26
     c42:	ea 95       	dec	r30
     c44:	f1 f7       	brne	.-4      	; 0xc42 <_ZN13mySensorGaris11KalibrasiRBEh+0x66>
     c46:	00 c0       	rjmp	.+0      	; 0xc48 <_ZN13mySensorGaris11KalibrasiRBEh+0x6c>
     c48:	20 fc       	sbrc	r2, 0
     c4a:	c7 c3       	rjmp	.+1934   	; 0x13da <__stack+0x2db>
     c4c:	84 e0       	ldi	r24, 0x04	; 4
     c4e:	8b bb       	out	0x1b, r24	; 27
     c50:	e5 e0       	ldi	r30, 0x05	; 5
     c52:	ea 95       	dec	r30
     c54:	f1 f7       	brne	.-4      	; 0xc52 <_ZN13mySensorGaris11KalibrasiRBEh+0x76>
     c56:	00 00       	nop
     c58:	da 98       	cbi	0x1b, 2	; 27
     c5a:	8f ee       	ldi	r24, 0xEF	; 239
     c5c:	9a e0       	ldi	r25, 0x0A	; 10
     c5e:	01 97       	sbiw	r24, 0x01	; 1
     c60:	f1 f7       	brne	.-4      	; 0xc5e <_ZN13mySensorGaris11KalibrasiRBEh+0x82>
     c62:	00 c0       	rjmp	.+0      	; 0xc64 <_ZN13mySensorGaris11KalibrasiRBEh+0x88>
     c64:	00 00       	nop
     c66:	da 9a       	sbi	0x1b, 2	; 27
     c68:	e5 e2       	ldi	r30, 0x25	; 37
     c6a:	f1 e0       	ldi	r31, 0x01	; 1
     c6c:	8b e4       	ldi	r24, 0x4B	; 75
     c6e:	20 fc       	sbrc	r2, 0
     c70:	60 c1       	rjmp	.+704    	; 0xf32 <_ZN13mySensorGaris11KalibrasiRBEh+0x356>
     c72:	d8 9a       	sbi	0x1b, 0	; 27
     c74:	98 2f       	mov	r25, r24
     c76:	90 7f       	andi	r25, 0xF0	; 240
     c78:	95 60       	ori	r25, 0x05	; 5
     c7a:	9b bb       	out	0x1b, r25	; 27
     c7c:	25 e0       	ldi	r18, 0x05	; 5
     c7e:	2a 95       	dec	r18
     c80:	f1 f7       	brne	.-4      	; 0xc7e <_ZN13mySensorGaris11KalibrasiRBEh+0xa2>
     c82:	00 00       	nop
     c84:	da 98       	cbi	0x1b, 2	; 27
     c86:	7a e1       	ldi	r23, 0x1A	; 26
     c88:	7a 95       	dec	r23
     c8a:	f1 f7       	brne	.-4      	; 0xc88 <_ZN13mySensorGaris11KalibrasiRBEh+0xac>
     c8c:	00 c0       	rjmp	.+0      	; 0xc8e <_ZN13mySensorGaris11KalibrasiRBEh+0xb2>
     c8e:	20 e1       	ldi	r18, 0x10	; 16
     c90:	82 9f       	mul	r24, r18
     c92:	c0 01       	movw	r24, r0
     c94:	11 24       	eor	r1, r1
     c96:	85 60       	ori	r24, 0x05	; 5
     c98:	8b bb       	out	0x1b, r24	; 27
     c9a:	75 e0       	ldi	r23, 0x05	; 5
     c9c:	7a 95       	dec	r23
     c9e:	f1 f7       	brne	.-4      	; 0xc9c <_ZN13mySensorGaris11KalibrasiRBEh+0xc0>
     ca0:	00 00       	nop
     ca2:	da 98       	cbi	0x1b, 2	; 27
     ca4:	85 ed       	ldi	r24, 0xD5	; 213
     ca6:	8a 95       	dec	r24
     ca8:	f1 f7       	brne	.-4      	; 0xca6 <_ZN13mySensorGaris11KalibrasiRBEh+0xca>
     caa:	00 00       	nop
     cac:	da 9a       	sbi	0x1b, 2	; 27
     cae:	81 91       	ld	r24, Z+
     cb0:	81 11       	cpse	r24, r1
     cb2:	df cf       	rjmp	.-66     	; 0xc72 <_ZN13mySensorGaris11KalibrasiRBEh+0x96>
     cb4:	d8 98       	cbi	0x1b, 0	; 27
     cb6:	20 fe       	sbrs	r2, 0
     cb8:	23 c3       	rjmp	.+1606   	; 0x1300 <__stack+0x201>
     cba:	8c ec       	ldi	r24, 0xCC	; 204
     cbc:	8b bb       	out	0x1b, r24	; 27
     cbe:	95 e0       	ldi	r25, 0x05	; 5
     cc0:	9a 95       	dec	r25
     cc2:	f1 f7       	brne	.-4      	; 0xcc0 <_ZN13mySensorGaris11KalibrasiRBEh+0xe4>
     cc4:	00 00       	nop
     cc6:	da 98       	cbi	0x1b, 2	; 27
     cc8:	ea e1       	ldi	r30, 0x1A	; 26
     cca:	ea 95       	dec	r30
     ccc:	f1 f7       	brne	.-4      	; 0xcca <_ZN13mySensorGaris11KalibrasiRBEh+0xee>
     cce:	00 c0       	rjmp	.+0      	; 0xcd0 <_ZN13mySensorGaris11KalibrasiRBEh+0xf4>
     cd0:	20 fc       	sbrc	r2, 0
     cd2:	80 c3       	rjmp	.+1792   	; 0x13d4 <__stack+0x2d5>
     cd4:	84 e0       	ldi	r24, 0x04	; 4
     cd6:	8b bb       	out	0x1b, r24	; 27
     cd8:	95 e0       	ldi	r25, 0x05	; 5
     cda:	9a 95       	dec	r25
     cdc:	f1 f7       	brne	.-4      	; 0xcda <_ZN13mySensorGaris11KalibrasiRBEh+0xfe>
     cde:	00 00       	nop
     ce0:	da 98       	cbi	0x1b, 2	; 27
     ce2:	ef ee       	ldi	r30, 0xEF	; 239
     ce4:	fa e0       	ldi	r31, 0x0A	; 10
     ce6:	31 97       	sbiw	r30, 0x01	; 1
     ce8:	f1 f7       	brne	.-4      	; 0xce6 <_ZN13mySensorGaris11KalibrasiRBEh+0x10a>
     cea:	00 c0       	rjmp	.+0      	; 0xcec <_ZN13mySensorGaris11KalibrasiRBEh+0x110>
     cec:	00 00       	nop
     cee:	da 9a       	sbi	0x1b, 2	; 27
     cf0:	e1 ee       	ldi	r30, 0xE1	; 225
     cf2:	f1 e0       	ldi	r31, 0x01	; 1
     cf4:	80 e2       	ldi	r24, 0x20	; 32
     cf6:	20 fc       	sbrc	r2, 0
     cf8:	3e c1       	rjmp	.+636    	; 0xf76 <_ZN13mySensorGaris11KalibrasiRBEh+0x39a>
     cfa:	d8 9a       	sbi	0x1b, 0	; 27
     cfc:	98 2f       	mov	r25, r24
     cfe:	90 7f       	andi	r25, 0xF0	; 240
     d00:	95 60       	ori	r25, 0x05	; 5
     d02:	9b bb       	out	0x1b, r25	; 27
     d04:	25 e0       	ldi	r18, 0x05	; 5
     d06:	2a 95       	dec	r18
     d08:	f1 f7       	brne	.-4      	; 0xd06 <_ZN13mySensorGaris11KalibrasiRBEh+0x12a>
     d0a:	00 00       	nop
     d0c:	da 98       	cbi	0x1b, 2	; 27
     d0e:	7a e1       	ldi	r23, 0x1A	; 26
     d10:	7a 95       	dec	r23
     d12:	f1 f7       	brne	.-4      	; 0xd10 <_ZN13mySensorGaris11KalibrasiRBEh+0x134>
     d14:	00 c0       	rjmp	.+0      	; 0xd16 <_ZN13mySensorGaris11KalibrasiRBEh+0x13a>
     d16:	20 e1       	ldi	r18, 0x10	; 16
     d18:	82 9f       	mul	r24, r18
     d1a:	c0 01       	movw	r24, r0
     d1c:	11 24       	eor	r1, r1
     d1e:	85 60       	ori	r24, 0x05	; 5
     d20:	8b bb       	out	0x1b, r24	; 27
     d22:	75 e0       	ldi	r23, 0x05	; 5
     d24:	7a 95       	dec	r23
     d26:	f1 f7       	brne	.-4      	; 0xd24 <_ZN13mySensorGaris11KalibrasiRBEh+0x148>
     d28:	00 00       	nop
     d2a:	da 98       	cbi	0x1b, 2	; 27
     d2c:	85 ed       	ldi	r24, 0xD5	; 213
     d2e:	8a 95       	dec	r24
     d30:	f1 f7       	brne	.-4      	; 0xd2e <_ZN13mySensorGaris11KalibrasiRBEh+0x152>
     d32:	00 00       	nop
     d34:	da 9a       	sbi	0x1b, 2	; 27
     d36:	81 91       	ld	r24, Z+
     d38:	81 11       	cpse	r24, r1
     d3a:	df cf       	rjmp	.-66     	; 0xcfa <_ZN13mySensorGaris11KalibrasiRBEh+0x11e>
     d3c:	8b e1       	ldi	r24, 0x1B	; 27
     d3e:	83 bf       	out	0x33, r24	; 51
     d40:	12 be       	out	0x32, r1	; 50
     d42:	83 e5       	ldi	r24, 0x53	; 83
     d44:	81 bf       	out	0x31, r24	; 49
     d46:	24 ef       	ldi	r18, 0xF4	; 244
     d48:	31 e0       	ldi	r19, 0x01	; 1
     d4a:	ef e9       	ldi	r30, 0x9F	; 159
     d4c:	ff e0       	ldi	r31, 0x0F	; 15
     d4e:	31 97       	sbiw	r30, 0x01	; 1
     d50:	f1 f7       	brne	.-4      	; 0xd4e <_ZN13mySensorGaris11KalibrasiRBEh+0x172>
     d52:	00 c0       	rjmp	.+0      	; 0xd54 <_ZN13mySensorGaris11KalibrasiRBEh+0x178>
     d54:	00 00       	nop
     d56:	21 50       	subi	r18, 0x01	; 1
     d58:	31 09       	sbc	r19, r1
     d5a:	21 15       	cp	r18, r1
     d5c:	31 05       	cpc	r19, r1
     d5e:	a9 f7       	brne	.-22     	; 0xd4a <_ZN13mySensorGaris11KalibrasiRBEh+0x16e>
     d60:	13 be       	out	0x33, r1	; 51
     d62:	10 be       	out	0x30, r1	; 48
     d64:	c4 98       	cbi	0x18, 4	; 24
     d66:	ff ef       	ldi	r31, 0xFF	; 255
     d68:	23 ed       	ldi	r18, 0xD3	; 211
     d6a:	70 e3       	ldi	r23, 0x30	; 48
     d6c:	f1 50       	subi	r31, 0x01	; 1
     d6e:	20 40       	sbci	r18, 0x00	; 0
     d70:	70 40       	sbci	r23, 0x00	; 0
     d72:	e1 f7       	brne	.-8      	; 0xd6c <_ZN13mySensorGaris11KalibrasiRBEh+0x190>
     d74:	00 c0       	rjmp	.+0      	; 0xd76 <_ZN13mySensorGaris11KalibrasiRBEh+0x19a>
     d76:	00 00       	nop
     d78:	d8 98       	cbi	0x1b, 0	; 27
     d7a:	20 fe       	sbrs	r2, 0
     d7c:	be c2       	rjmp	.+1404   	; 0x12fa <__stack+0x1fb>
     d7e:	8c e0       	ldi	r24, 0x0C	; 12
     d80:	8b bb       	out	0x1b, r24	; 27
     d82:	85 e0       	ldi	r24, 0x05	; 5
     d84:	8a 95       	dec	r24
     d86:	f1 f7       	brne	.-4      	; 0xd84 <_ZN13mySensorGaris11KalibrasiRBEh+0x1a8>
     d88:	00 00       	nop
     d8a:	da 98       	cbi	0x1b, 2	; 27
     d8c:	9a e1       	ldi	r25, 0x1A	; 26
     d8e:	9a 95       	dec	r25
     d90:	f1 f7       	brne	.-4      	; 0xd8e <_ZN13mySensorGaris11KalibrasiRBEh+0x1b2>
     d92:	00 c0       	rjmp	.+0      	; 0xd94 <_ZN13mySensorGaris11KalibrasiRBEh+0x1b8>
     d94:	20 fc       	sbrc	r2, 0
     d96:	18 c3       	rjmp	.+1584   	; 0x13c8 <__stack+0x2c9>
     d98:	84 e1       	ldi	r24, 0x14	; 20
     d9a:	8b bb       	out	0x1b, r24	; 27
     d9c:	e5 e0       	ldi	r30, 0x05	; 5
     d9e:	ea 95       	dec	r30
     da0:	f1 f7       	brne	.-4      	; 0xd9e <_ZN13mySensorGaris11KalibrasiRBEh+0x1c2>
     da2:	00 00       	nop
     da4:	da 98       	cbi	0x1b, 2	; 27
     da6:	8f ee       	ldi	r24, 0xEF	; 239
     da8:	9a e0       	ldi	r25, 0x0A	; 10
     daa:	01 97       	sbiw	r24, 0x01	; 1
     dac:	f1 f7       	brne	.-4      	; 0xdaa <_ZN13mySensorGaris11KalibrasiRBEh+0x1ce>
     dae:	00 c0       	rjmp	.+0      	; 0xdb0 <_ZN13mySensorGaris11KalibrasiRBEh+0x1d4>
     db0:	00 00       	nop
     db2:	da 9a       	sbi	0x1b, 2	; 27
     db4:	ef e3       	ldi	r30, 0x3F	; 63
     db6:	ff e1       	ldi	r31, 0x1F	; 31
     db8:	31 97       	sbiw	r30, 0x01	; 1
     dba:	f1 f7       	brne	.-4      	; 0xdb8 <_ZN13mySensorGaris11KalibrasiRBEh+0x1dc>
     dbc:	00 c0       	rjmp	.+0      	; 0xdbe <_ZN13mySensorGaris11KalibrasiRBEh+0x1e2>
     dbe:	00 00       	nop
     dc0:	16 2f       	mov	r17, r22
     dc2:	10 6d       	ori	r17, 0xD0	; 208
     dc4:	80 91 9b 00 	lds	r24, 0x009B
     dc8:	85 ff       	sbrs	r24, 5
     dca:	fc cf       	rjmp	.-8      	; 0xdc4 <_ZN13mySensorGaris11KalibrasiRBEh+0x1e8>
     dcc:	10 93 9c 00 	sts	0x009C, r17
     dd0:	d8 98       	cbi	0x1b, 0	; 27
     dd2:	20 fe       	sbrs	r2, 0
     dd4:	8f c2       	rjmp	.+1310   	; 0x12f4 <__stack+0x1f5>
     dd6:	8c e8       	ldi	r24, 0x8C	; 140
     dd8:	8b bb       	out	0x1b, r24	; 27
     dda:	f5 e0       	ldi	r31, 0x05	; 5
     ddc:	fa 95       	dec	r31
     dde:	f1 f7       	brne	.-4      	; 0xddc <_ZN13mySensorGaris11KalibrasiRBEh+0x200>
     de0:	00 00       	nop
     de2:	da 98       	cbi	0x1b, 2	; 27
     de4:	2a e1       	ldi	r18, 0x1A	; 26
     de6:	2a 95       	dec	r18
     de8:	f1 f7       	brne	.-4      	; 0xde6 <_ZN13mySensorGaris11KalibrasiRBEh+0x20a>
     dea:	00 c0       	rjmp	.+0      	; 0xdec <_ZN13mySensorGaris11KalibrasiRBEh+0x210>
     dec:	20 fc       	sbrc	r2, 0
     dee:	e9 c2       	rjmp	.+1490   	; 0x13c2 <__stack+0x2c3>
     df0:	84 e0       	ldi	r24, 0x04	; 4
     df2:	8b bb       	out	0x1b, r24	; 27
     df4:	75 e0       	ldi	r23, 0x05	; 5
     df6:	7a 95       	dec	r23
     df8:	f1 f7       	brne	.-4      	; 0xdf6 <_ZN13mySensorGaris11KalibrasiRBEh+0x21a>
     dfa:	00 00       	nop
     dfc:	da 98       	cbi	0x1b, 2	; 27
     dfe:	8f ee       	ldi	r24, 0xEF	; 239
     e00:	9a e0       	ldi	r25, 0x0A	; 10
     e02:	01 97       	sbiw	r24, 0x01	; 1
     e04:	f1 f7       	brne	.-4      	; 0xe02 <_ZN13mySensorGaris11KalibrasiRBEh+0x226>
     e06:	00 c0       	rjmp	.+0      	; 0xe08 <_ZN13mySensorGaris11KalibrasiRBEh+0x22c>
     e08:	00 00       	nop
     e0a:	da 9a       	sbi	0x1b, 2	; 27
     e0c:	e8 e6       	ldi	r30, 0x68	; 104
     e0e:	f1 e0       	ldi	r31, 0x01	; 1
     e10:	20 fc       	sbrc	r2, 0
     e12:	d3 c0       	rjmp	.+422    	; 0xfba <_ZN13mySensorGaris11KalibrasiRBEh+0x3de>
     e14:	81 91       	ld	r24, Z+
     e16:	d8 9a       	sbi	0x1b, 0	; 27
     e18:	98 2f       	mov	r25, r24
     e1a:	90 7f       	andi	r25, 0xF0	; 240
     e1c:	95 60       	ori	r25, 0x05	; 5
     e1e:	9b bb       	out	0x1b, r25	; 27
     e20:	95 e0       	ldi	r25, 0x05	; 5
     e22:	9a 95       	dec	r25
     e24:	f1 f7       	brne	.-4      	; 0xe22 <_ZN13mySensorGaris11KalibrasiRBEh+0x246>
     e26:	00 00       	nop
     e28:	da 98       	cbi	0x1b, 2	; 27
     e2a:	2a e1       	ldi	r18, 0x1A	; 26
     e2c:	2a 95       	dec	r18
     e2e:	f1 f7       	brne	.-4      	; 0xe2c <_ZN13mySensorGaris11KalibrasiRBEh+0x250>
     e30:	00 c0       	rjmp	.+0      	; 0xe32 <_ZN13mySensorGaris11KalibrasiRBEh+0x256>
     e32:	70 e1       	ldi	r23, 0x10	; 16
     e34:	87 9f       	mul	r24, r23
     e36:	c0 01       	movw	r24, r0
     e38:	11 24       	eor	r1, r1
     e3a:	85 60       	ori	r24, 0x05	; 5
     e3c:	8b bb       	out	0x1b, r24	; 27
     e3e:	85 e0       	ldi	r24, 0x05	; 5
     e40:	8a 95       	dec	r24
     e42:	f1 f7       	brne	.-4      	; 0xe40 <_ZN13mySensorGaris11KalibrasiRBEh+0x264>
     e44:	00 00       	nop
     e46:	da 98       	cbi	0x1b, 2	; 27
     e48:	95 ed       	ldi	r25, 0xD5	; 213
     e4a:	9a 95       	dec	r25
     e4c:	f1 f7       	brne	.-4      	; 0xe4a <_ZN13mySensorGaris11KalibrasiRBEh+0x26e>
     e4e:	00 00       	nop
     e50:	da 9a       	sbi	0x1b, 2	; 27
     e52:	2f e7       	ldi	r18, 0x7F	; 127
     e54:	78 e3       	ldi	r23, 0x38	; 56
     e56:	81 e0       	ldi	r24, 0x01	; 1
     e58:	21 50       	subi	r18, 0x01	; 1
     e5a:	70 40       	sbci	r23, 0x00	; 0
     e5c:	80 40       	sbci	r24, 0x00	; 0
     e5e:	e1 f7       	brne	.-8      	; 0xe58 <_ZN13mySensorGaris11KalibrasiRBEh+0x27c>
     e60:	00 c0       	rjmp	.+0      	; 0xe62 <_ZN13mySensorGaris11KalibrasiRBEh+0x286>
     e62:	00 00       	nop
     e64:	91 e0       	ldi	r25, 0x01	; 1
     e66:	e8 37       	cpi	r30, 0x78	; 120
     e68:	f9 07       	cpc	r31, r25
     e6a:	a1 f6       	brne	.-88     	; 0xe14 <_ZN13mySensorGaris11KalibrasiRBEh+0x238>
     e6c:	e7 e6       	ldi	r30, 0x67	; 103
     e6e:	f1 e0       	ldi	r31, 0x01	; 1
     e70:	2f ec       	ldi	r18, 0xCF	; 207
     e72:	30 e0       	ldi	r19, 0x00	; 0
     e74:	42 2d       	mov	r20, r2
     e76:	41 70       	andi	r20, 0x01	; 1
     e78:	64 ec       	ldi	r22, 0xC4	; 196
     e7a:	5c ec       	ldi	r21, 0xCC	; 204
     e7c:	55 c0       	rjmp	.+170    	; 0xf28 <_ZN13mySensorGaris11KalibrasiRBEh+0x34c>
     e7e:	5b bb       	out	0x1b, r21	; 27
     e80:	75 e0       	ldi	r23, 0x05	; 5
     e82:	7a 95       	dec	r23
     e84:	f1 f7       	brne	.-4      	; 0xe82 <_ZN13mySensorGaris11KalibrasiRBEh+0x2a6>
     e86:	00 00       	nop
     e88:	da 98       	cbi	0x1b, 2	; 27
     e8a:	8a e1       	ldi	r24, 0x1A	; 26
     e8c:	8a 95       	dec	r24
     e8e:	f1 f7       	brne	.-4      	; 0xe8c <_ZN13mySensorGaris11KalibrasiRBEh+0x2b0>
     e90:	00 c0       	rjmp	.+0      	; 0xe92 <_ZN13mySensorGaris11KalibrasiRBEh+0x2b6>
     e92:	c9 01       	movw	r24, r18
     e94:	82 95       	swap	r24
     e96:	92 95       	swap	r25
     e98:	90 7f       	andi	r25, 0xF0	; 240
     e9a:	98 27       	eor	r25, r24
     e9c:	80 7f       	andi	r24, 0xF0	; 240
     e9e:	98 27       	eor	r25, r24
     ea0:	41 11       	cpse	r20, r1
     ea2:	22 c2       	rjmp	.+1092   	; 0x12e8 <__stack+0x1e9>
     ea4:	84 60       	ori	r24, 0x04	; 4
     ea6:	8b bb       	out	0x1b, r24	; 27
     ea8:	95 e0       	ldi	r25, 0x05	; 5
     eaa:	9a 95       	dec	r25
     eac:	f1 f7       	brne	.-4      	; 0xeaa <_ZN13mySensorGaris11KalibrasiRBEh+0x2ce>
     eae:	00 00       	nop
     eb0:	da 98       	cbi	0x1b, 2	; 27
     eb2:	8f ee       	ldi	r24, 0xEF	; 239
     eb4:	9a e0       	ldi	r25, 0x0A	; 10
     eb6:	01 97       	sbiw	r24, 0x01	; 1
     eb8:	f1 f7       	brne	.-4      	; 0xeb6 <_ZN13mySensorGaris11KalibrasiRBEh+0x2da>
     eba:	00 c0       	rjmp	.+0      	; 0xebc <_ZN13mySensorGaris11KalibrasiRBEh+0x2e0>
     ebc:	00 00       	nop
     ebe:	da 9a       	sbi	0x1b, 2	; 27
     ec0:	82 91       	ld	r24, -Z
     ec2:	d8 9a       	sbi	0x1b, 0	; 27
     ec4:	98 2f       	mov	r25, r24
     ec6:	90 7f       	andi	r25, 0xF0	; 240
     ec8:	44 23       	and	r20, r20
     eca:	09 f4       	brne	.+2      	; 0xece <_ZN13mySensorGaris11KalibrasiRBEh+0x2f2>
     ecc:	0a c2       	rjmp	.+1044   	; 0x12e2 <__stack+0x1e3>
     ece:	9d 60       	ori	r25, 0x0D	; 13
     ed0:	9b bb       	out	0x1b, r25	; 27
     ed2:	95 e0       	ldi	r25, 0x05	; 5
     ed4:	9a 95       	dec	r25
     ed6:	f1 f7       	brne	.-4      	; 0xed4 <_ZN13mySensorGaris11KalibrasiRBEh+0x2f8>
     ed8:	00 00       	nop
     eda:	da 98       	cbi	0x1b, 2	; 27
     edc:	7a e1       	ldi	r23, 0x1A	; 26
     ede:	7a 95       	dec	r23
     ee0:	f1 f7       	brne	.-4      	; 0xede <_ZN13mySensorGaris11KalibrasiRBEh+0x302>
     ee2:	00 c0       	rjmp	.+0      	; 0xee4 <_ZN13mySensorGaris11KalibrasiRBEh+0x308>
     ee4:	70 e1       	ldi	r23, 0x10	; 16
     ee6:	87 9f       	mul	r24, r23
     ee8:	c0 01       	movw	r24, r0
     eea:	11 24       	eor	r1, r1
     eec:	41 11       	cpse	r20, r1
     eee:	ff c1       	rjmp	.+1022   	; 0x12ee <__stack+0x1ef>
     ef0:	85 60       	ori	r24, 0x05	; 5
     ef2:	8b bb       	out	0x1b, r24	; 27
     ef4:	85 e0       	ldi	r24, 0x05	; 5
     ef6:	8a 95       	dec	r24
     ef8:	f1 f7       	brne	.-4      	; 0xef6 <_ZN13mySensorGaris11KalibrasiRBEh+0x31a>
     efa:	00 00       	nop
     efc:	da 98       	cbi	0x1b, 2	; 27
     efe:	95 ed       	ldi	r25, 0xD5	; 213
     f00:	9a 95       	dec	r25
     f02:	f1 f7       	brne	.-4      	; 0xf00 <_ZN13mySensorGaris11KalibrasiRBEh+0x324>
     f04:	00 00       	nop
     f06:	da 9a       	sbi	0x1b, 2	; 27
     f08:	7f e7       	ldi	r23, 0x7F	; 127
     f0a:	88 e3       	ldi	r24, 0x38	; 56
     f0c:	91 e0       	ldi	r25, 0x01	; 1
     f0e:	71 50       	subi	r23, 0x01	; 1
     f10:	80 40       	sbci	r24, 0x00	; 0
     f12:	90 40       	sbci	r25, 0x00	; 0
     f14:	e1 f7       	brne	.-8      	; 0xf0e <_ZN13mySensorGaris11KalibrasiRBEh+0x332>
     f16:	00 c0       	rjmp	.+0      	; 0xf18 <_ZN13mySensorGaris11KalibrasiRBEh+0x33c>
     f18:	00 00       	nop
     f1a:	21 50       	subi	r18, 0x01	; 1
     f1c:	31 09       	sbc	r19, r1
     f1e:	71 e0       	ldi	r23, 0x01	; 1
     f20:	e7 35       	cpi	r30, 0x57	; 87
     f22:	f7 07       	cpc	r31, r23
     f24:	09 f4       	brne	.+2      	; 0xf28 <_ZN13mySensorGaris11KalibrasiRBEh+0x34c>
     f26:	76 c0       	rjmp	.+236    	; 0x1014 <_ZN13mySensorGaris11KalibrasiRBEh+0x438>
     f28:	d8 98       	cbi	0x1b, 0	; 27
     f2a:	41 11       	cpse	r20, r1
     f2c:	a8 cf       	rjmp	.-176    	; 0xe7e <_ZN13mySensorGaris11KalibrasiRBEh+0x2a2>
     f2e:	6b bb       	out	0x1b, r22	; 27
     f30:	a7 cf       	rjmp	.-178    	; 0xe80 <_ZN13mySensorGaris11KalibrasiRBEh+0x2a4>
     f32:	d8 9a       	sbi	0x1b, 0	; 27
     f34:	98 2f       	mov	r25, r24
     f36:	90 7f       	andi	r25, 0xF0	; 240
     f38:	9d 60       	ori	r25, 0x0D	; 13
     f3a:	9b bb       	out	0x1b, r25	; 27
     f3c:	95 e0       	ldi	r25, 0x05	; 5
     f3e:	9a 95       	dec	r25
     f40:	f1 f7       	brne	.-4      	; 0xf3e <_ZN13mySensorGaris11KalibrasiRBEh+0x362>
     f42:	00 00       	nop
     f44:	da 98       	cbi	0x1b, 2	; 27
     f46:	2a e1       	ldi	r18, 0x1A	; 26
     f48:	2a 95       	dec	r18
     f4a:	f1 f7       	brne	.-4      	; 0xf48 <_ZN13mySensorGaris11KalibrasiRBEh+0x36c>
     f4c:	00 c0       	rjmp	.+0      	; 0xf4e <_ZN13mySensorGaris11KalibrasiRBEh+0x372>
     f4e:	70 e1       	ldi	r23, 0x10	; 16
     f50:	87 9f       	mul	r24, r23
     f52:	c0 01       	movw	r24, r0
     f54:	11 24       	eor	r1, r1
     f56:	8d 60       	ori	r24, 0x0D	; 13
     f58:	8b bb       	out	0x1b, r24	; 27
     f5a:	85 e0       	ldi	r24, 0x05	; 5
     f5c:	8a 95       	dec	r24
     f5e:	f1 f7       	brne	.-4      	; 0xf5c <_ZN13mySensorGaris11KalibrasiRBEh+0x380>
     f60:	00 00       	nop
     f62:	da 98       	cbi	0x1b, 2	; 27
     f64:	95 ed       	ldi	r25, 0xD5	; 213
     f66:	9a 95       	dec	r25
     f68:	f1 f7       	brne	.-4      	; 0xf66 <_ZN13mySensorGaris11KalibrasiRBEh+0x38a>
     f6a:	00 00       	nop
     f6c:	da 9a       	sbi	0x1b, 2	; 27
     f6e:	81 91       	ld	r24, Z+
     f70:	81 11       	cpse	r24, r1
     f72:	df cf       	rjmp	.-66     	; 0xf32 <_ZN13mySensorGaris11KalibrasiRBEh+0x356>
     f74:	9f ce       	rjmp	.-706    	; 0xcb4 <_ZN13mySensorGaris11KalibrasiRBEh+0xd8>
     f76:	d8 9a       	sbi	0x1b, 0	; 27
     f78:	98 2f       	mov	r25, r24
     f7a:	90 7f       	andi	r25, 0xF0	; 240
     f7c:	9d 60       	ori	r25, 0x0D	; 13
     f7e:	9b bb       	out	0x1b, r25	; 27
     f80:	25 e0       	ldi	r18, 0x05	; 5
     f82:	2a 95       	dec	r18
     f84:	f1 f7       	brne	.-4      	; 0xf82 <_ZN13mySensorGaris11KalibrasiRBEh+0x3a6>
     f86:	00 00       	nop
     f88:	da 98       	cbi	0x1b, 2	; 27
     f8a:	7a e1       	ldi	r23, 0x1A	; 26
     f8c:	7a 95       	dec	r23
     f8e:	f1 f7       	brne	.-4      	; 0xf8c <_ZN13mySensorGaris11KalibrasiRBEh+0x3b0>
     f90:	00 c0       	rjmp	.+0      	; 0xf92 <_ZN13mySensorGaris11KalibrasiRBEh+0x3b6>
     f92:	20 e1       	ldi	r18, 0x10	; 16
     f94:	82 9f       	mul	r24, r18
     f96:	c0 01       	movw	r24, r0
     f98:	11 24       	eor	r1, r1
     f9a:	8d 60       	ori	r24, 0x0D	; 13
     f9c:	8b bb       	out	0x1b, r24	; 27
     f9e:	75 e0       	ldi	r23, 0x05	; 5
     fa0:	7a 95       	dec	r23
     fa2:	f1 f7       	brne	.-4      	; 0xfa0 <_ZN13mySensorGaris11KalibrasiRBEh+0x3c4>
     fa4:	00 00       	nop
     fa6:	da 98       	cbi	0x1b, 2	; 27
     fa8:	85 ed       	ldi	r24, 0xD5	; 213
     faa:	8a 95       	dec	r24
     fac:	f1 f7       	brne	.-4      	; 0xfaa <_ZN13mySensorGaris11KalibrasiRBEh+0x3ce>
     fae:	00 00       	nop
     fb0:	da 9a       	sbi	0x1b, 2	; 27
     fb2:	81 91       	ld	r24, Z+
     fb4:	81 11       	cpse	r24, r1
     fb6:	df cf       	rjmp	.-66     	; 0xf76 <_ZN13mySensorGaris11KalibrasiRBEh+0x39a>
     fb8:	c1 ce       	rjmp	.-638    	; 0xd3c <_ZN13mySensorGaris11KalibrasiRBEh+0x160>
     fba:	81 91       	ld	r24, Z+
     fbc:	d8 9a       	sbi	0x1b, 0	; 27
     fbe:	98 2f       	mov	r25, r24
     fc0:	90 7f       	andi	r25, 0xF0	; 240
     fc2:	9d 60       	ori	r25, 0x0D	; 13
     fc4:	9b bb       	out	0x1b, r25	; 27
     fc6:	95 e0       	ldi	r25, 0x05	; 5
     fc8:	9a 95       	dec	r25
     fca:	f1 f7       	brne	.-4      	; 0xfc8 <_ZN13mySensorGaris11KalibrasiRBEh+0x3ec>
     fcc:	00 00       	nop
     fce:	da 98       	cbi	0x1b, 2	; 27
     fd0:	2a e1       	ldi	r18, 0x1A	; 26
     fd2:	2a 95       	dec	r18
     fd4:	f1 f7       	brne	.-4      	; 0xfd2 <_ZN13mySensorGaris11KalibrasiRBEh+0x3f6>
     fd6:	00 c0       	rjmp	.+0      	; 0xfd8 <_ZN13mySensorGaris11KalibrasiRBEh+0x3fc>
     fd8:	70 e1       	ldi	r23, 0x10	; 16
     fda:	87 9f       	mul	r24, r23
     fdc:	c0 01       	movw	r24, r0
     fde:	11 24       	eor	r1, r1
     fe0:	8d 60       	ori	r24, 0x0D	; 13
     fe2:	8b bb       	out	0x1b, r24	; 27
     fe4:	85 e0       	ldi	r24, 0x05	; 5
     fe6:	8a 95       	dec	r24
     fe8:	f1 f7       	brne	.-4      	; 0xfe6 <_ZN13mySensorGaris11KalibrasiRBEh+0x40a>
     fea:	00 00       	nop
     fec:	da 98       	cbi	0x1b, 2	; 27
     fee:	95 ed       	ldi	r25, 0xD5	; 213
     ff0:	9a 95       	dec	r25
     ff2:	f1 f7       	brne	.-4      	; 0xff0 <_ZN13mySensorGaris11KalibrasiRBEh+0x414>
     ff4:	00 00       	nop
     ff6:	da 9a       	sbi	0x1b, 2	; 27
     ff8:	2f e7       	ldi	r18, 0x7F	; 127
     ffa:	78 e3       	ldi	r23, 0x38	; 56
     ffc:	81 e0       	ldi	r24, 0x01	; 1
     ffe:	21 50       	subi	r18, 0x01	; 1
    1000:	70 40       	sbci	r23, 0x00	; 0
    1002:	80 40       	sbci	r24, 0x00	; 0
    1004:	e1 f7       	brne	.-8      	; 0xffe <_ZN13mySensorGaris11KalibrasiRBEh+0x422>
    1006:	00 c0       	rjmp	.+0      	; 0x1008 <_ZN13mySensorGaris11KalibrasiRBEh+0x42c>
    1008:	00 00       	nop
    100a:	91 e0       	ldi	r25, 0x01	; 1
    100c:	e8 37       	cpi	r30, 0x78	; 120
    100e:	f9 07       	cpc	r31, r25
    1010:	a1 f6       	brne	.-88     	; 0xfba <_ZN13mySensorGaris11KalibrasiRBEh+0x3de>
    1012:	2c cf       	rjmp	.-424    	; 0xe6c <_ZN13mySensorGaris11KalibrasiRBEh+0x290>
    1014:	9b 9b       	sbis	0x13, 3	; 19
    1016:	02 c0       	rjmp	.+4      	; 0x101c <_ZN13mySensorGaris11KalibrasiRBEh+0x440>
    1018:	98 99       	sbic	0x13, 0	; 19
    101a:	fc cf       	rjmp	.-8      	; 0x1014 <_ZN13mySensorGaris11KalibrasiRBEh+0x438>
    101c:	9b 99       	sbic	0x13, 3	; 19
    101e:	97 c0       	rjmp	.+302    	; 0x114e <__stack+0x4f>
    1020:	80 91 9b 00 	lds	r24, 0x009B
    1024:	85 ff       	sbrs	r24, 5
    1026:	fc cf       	rjmp	.-8      	; 0x1020 <_ZN13mySensorGaris11KalibrasiRBEh+0x444>
    1028:	10 93 9c 00 	sts	0x009C, r17
    102c:	8b e1       	ldi	r24, 0x1B	; 27
    102e:	83 bf       	out	0x33, r24	; 51
    1030:	12 be       	out	0x32, r1	; 50
    1032:	83 e5       	ldi	r24, 0x53	; 83
    1034:	81 bf       	out	0x31, r24	; 49
    1036:	88 ec       	ldi	r24, 0xC8	; 200
    1038:	90 e0       	ldi	r25, 0x00	; 0
    103a:	ef e9       	ldi	r30, 0x9F	; 159
    103c:	ff e0       	ldi	r31, 0x0F	; 15
    103e:	31 97       	sbiw	r30, 0x01	; 1
    1040:	f1 f7       	brne	.-4      	; 0x103e <_ZN13mySensorGaris11KalibrasiRBEh+0x462>
    1042:	00 c0       	rjmp	.+0      	; 0x1044 <_ZN13mySensorGaris11KalibrasiRBEh+0x468>
    1044:	00 00       	nop
    1046:	01 97       	sbiw	r24, 0x01	; 1
    1048:	00 97       	sbiw	r24, 0x00	; 0
    104a:	b9 f7       	brne	.-18     	; 0x103a <_ZN13mySensorGaris11KalibrasiRBEh+0x45e>
    104c:	13 be       	out	0x33, r1	; 51
    104e:	10 be       	out	0x30, r1	; 48
    1050:	c4 98       	cbi	0x18, 4	; 24
    1052:	60 e0       	ldi	r22, 0x00	; 0
    1054:	8f e1       	ldi	r24, 0x1F	; 31
    1056:	92 e0       	ldi	r25, 0x02	; 2
    1058:	0e 94 73 04 	call	0x8e6	; 0x8e6 <_ZN5myLCD10HapusKananEh>
    105c:	8d eb       	ldi	r24, 0xBD	; 189
    105e:	91 e0       	ldi	r25, 0x01	; 1
    1060:	0e 94 f0 02 	call	0x5e0	; 0x5e0 <_ZN5myLCD9TulisKiriEhPKc.constprop.16>
    1064:	9b 9b       	sbis	0x13, 3	; 19
    1066:	02 c0       	rjmp	.+4      	; 0x106c <_ZN13mySensorGaris11KalibrasiRBEh+0x490>
    1068:	98 99       	sbic	0x13, 0	; 19
    106a:	fc cf       	rjmp	.-8      	; 0x1064 <_ZN13mySensorGaris11KalibrasiRBEh+0x488>
    106c:	9b 99       	sbic	0x13, 3	; 19
    106e:	30 c1       	rjmp	.+608    	; 0x12d0 <__stack+0x1d1>
    1070:	80 91 9b 00 	lds	r24, 0x009B
    1074:	85 ff       	sbrs	r24, 5
    1076:	fc cf       	rjmp	.-8      	; 0x1070 <_ZN13mySensorGaris11KalibrasiRBEh+0x494>
    1078:	10 93 9c 00 	sts	0x009C, r17
    107c:	8b e1       	ldi	r24, 0x1B	; 27
    107e:	83 bf       	out	0x33, r24	; 51
    1080:	12 be       	out	0x32, r1	; 50
    1082:	83 e5       	ldi	r24, 0x53	; 83
    1084:	81 bf       	out	0x31, r24	; 49
    1086:	88 ec       	ldi	r24, 0xC8	; 200
    1088:	90 e0       	ldi	r25, 0x00	; 0
    108a:	ef e9       	ldi	r30, 0x9F	; 159
    108c:	ff e0       	ldi	r31, 0x0F	; 15
    108e:	31 97       	sbiw	r30, 0x01	; 1
    1090:	f1 f7       	brne	.-4      	; 0x108e <_ZN13mySensorGaris11KalibrasiRBEh+0x4b2>
    1092:	00 c0       	rjmp	.+0      	; 0x1094 <_ZN13mySensorGaris11KalibrasiRBEh+0x4b8>
    1094:	00 00       	nop
    1096:	01 97       	sbiw	r24, 0x01	; 1
    1098:	00 97       	sbiw	r24, 0x00	; 0
    109a:	b9 f7       	brne	.-18     	; 0x108a <_ZN13mySensorGaris11KalibrasiRBEh+0x4ae>
    109c:	13 be       	out	0x33, r1	; 51
    109e:	10 be       	out	0x30, r1	; 48
    10a0:	c4 98       	cbi	0x18, 4	; 24
    10a2:	60 e0       	ldi	r22, 0x00	; 0
    10a4:	8f e1       	ldi	r24, 0x1F	; 31
    10a6:	92 e0       	ldi	r25, 0x02	; 2
    10a8:	0e 94 73 04 	call	0x8e6	; 0x8e6 <_ZN5myLCD10HapusKananEh>
    10ac:	8e ec       	ldi	r24, 0xCE	; 206
    10ae:	91 e0       	ldi	r25, 0x01	; 1
    10b0:	0e 94 f0 02 	call	0x5e0	; 0x5e0 <_ZN5myLCD9TulisKiriEhPKc.constprop.16>
    10b4:	9b 9b       	sbis	0x13, 3	; 19
    10b6:	02 c0       	rjmp	.+4      	; 0x10bc <_ZN13mySensorGaris11KalibrasiRBEh+0x4e0>
    10b8:	98 99       	sbic	0x13, 0	; 19
    10ba:	fc cf       	rjmp	.-8      	; 0x10b4 <_ZN13mySensorGaris11KalibrasiRBEh+0x4d8>
    10bc:	9b 99       	sbic	0x13, 3	; 19
    10be:	99 c1       	rjmp	.+818    	; 0x13f2 <__stack+0x2f3>
    10c0:	80 91 9b 00 	lds	r24, 0x009B
    10c4:	85 ff       	sbrs	r24, 5
    10c6:	fc cf       	rjmp	.-8      	; 0x10c0 <_ZN13mySensorGaris11KalibrasiRBEh+0x4e4>
    10c8:	10 93 9c 00 	sts	0x009C, r17
    10cc:	8b e1       	ldi	r24, 0x1B	; 27
    10ce:	83 bf       	out	0x33, r24	; 51
    10d0:	12 be       	out	0x32, r1	; 50
    10d2:	83 e5       	ldi	r24, 0x53	; 83
    10d4:	81 bf       	out	0x31, r24	; 49
    10d6:	88 ec       	ldi	r24, 0xC8	; 200
    10d8:	90 e0       	ldi	r25, 0x00	; 0
    10da:	ef e9       	ldi	r30, 0x9F	; 159
    10dc:	ff e0       	ldi	r31, 0x0F	; 15
    10de:	31 97       	sbiw	r30, 0x01	; 1
    10e0:	f1 f7       	brne	.-4      	; 0x10de <_ZN13mySensorGaris11KalibrasiRBEh+0x502>
    10e2:	00 c0       	rjmp	.+0      	; 0x10e4 <_ZN13mySensorGaris11KalibrasiRBEh+0x508>
    10e4:	00 00       	nop
    10e6:	01 97       	sbiw	r24, 0x01	; 1
    10e8:	00 97       	sbiw	r24, 0x00	; 0
    10ea:	b9 f7       	brne	.-18     	; 0x10da <_ZN13mySensorGaris11KalibrasiRBEh+0x4fe>
    10ec:	13 be       	out	0x33, r1	; 51
    10ee:	10 be       	out	0x30, r1	; 48
    10f0:	c4 98       	cbi	0x18, 4	; 24
    10f2:	88 e8       	ldi	r24, 0x88	; 136
    10f4:	93 e1       	ldi	r25, 0x13	; 19
    10f6:	08 c0       	rjmp	.+16     	; 0x1108 <__stack+0x9>
    10f8:	f5 e0       	ldi	r31, 0x05	; 5
    10fa:	fa 95       	dec	r31
    10fc:	f1 f7       	brne	.-4      	; 0x10fa <_ZN13mySensorGaris11KalibrasiRBEh+0x51e>
    10fe:	00 00       	nop
    1100:	01 97       	sbiw	r24, 0x01	; 1
    1102:	00 97       	sbiw	r24, 0x00	; 0
    1104:	09 f4       	brne	.+2      	; 0x1108 <__stack+0x9>
    1106:	7e c1       	rjmp	.+764    	; 0x1404 <__stack+0x305>
    1108:	20 91 2d 02 	lds	r18, 0x022D
    110c:	22 23       	and	r18, r18
    110e:	a1 f3       	breq	.-24     	; 0x10f8 <_ZN13mySensorGaris11KalibrasiRBEh+0x51c>
    1110:	e8 94       	clt
    1112:	21 f8       	bld	r2, 1
    1114:	e0 91 2e 02 	lds	r30, 0x022E
    1118:	f0 e0       	ldi	r31, 0x00	; 0
    111a:	e0 5d       	subi	r30, 0xD0	; 208
    111c:	fd 4f       	sbci	r31, 0xFD	; 253
    111e:	90 81       	ld	r25, Z
    1120:	80 91 2e 02 	lds	r24, 0x022E
    1124:	8f 5f       	subi	r24, 0xFF	; 255
    1126:	80 93 2e 02 	sts	0x022E, r24
    112a:	80 31       	cpi	r24, 0x10	; 16
    112c:	11 f4       	brne	.+4      	; 0x1132 <__stack+0x33>
    112e:	10 92 2e 02 	sts	0x022E, r1
    1132:	f8 94       	cli
    1134:	80 91 2d 02 	lds	r24, 0x022D
    1138:	81 50       	subi	r24, 0x01	; 1
    113a:	80 93 2d 02 	sts	0x022D, r24
    113e:	78 94       	sei
    1140:	19 13       	cpse	r17, r25
    1142:	0b c0       	rjmp	.+22     	; 0x115a <__stack+0x5b>
    1144:	ce 01       	movw	r24, r28
    1146:	0e 94 d6 04 	call	0x9ac	; 0x9ac <_ZN13mySensorGaris22PesanKalibrasiBerhasilEv>
    114a:	81 e0       	ldi	r24, 0x01	; 1
    114c:	bd c0       	rjmp	.+378    	; 0x12c8 <__stack+0x1c9>
    114e:	80 91 9b 00 	lds	r24, 0x009B
    1152:	85 ff       	sbrs	r24, 5
    1154:	fc cf       	rjmp	.-8      	; 0x114e <__stack+0x4f>
    1156:	10 92 9c 00 	sts	0x009C, r1
    115a:	d8 98       	cbi	0x1b, 0	; 27
    115c:	20 fc       	sbrc	r2, 0
    115e:	fb c0       	rjmp	.+502    	; 0x1356 <__stack+0x257>
    1160:	84 e0       	ldi	r24, 0x04	; 4
    1162:	8b bb       	out	0x1b, r24	; 27
    1164:	25 e0       	ldi	r18, 0x05	; 5
    1166:	2a 95       	dec	r18
    1168:	f1 f7       	brne	.-4      	; 0x1166 <__stack+0x67>
    116a:	00 00       	nop
    116c:	da 98       	cbi	0x1b, 2	; 27
    116e:	7a e1       	ldi	r23, 0x1A	; 26
    1170:	7a 95       	dec	r23
    1172:	f1 f7       	brne	.-4      	; 0x1170 <__stack+0x71>
    1174:	00 c0       	rjmp	.+0      	; 0x1176 <__stack+0x77>
    1176:	20 fc       	sbrc	r2, 0
    1178:	39 c1       	rjmp	.+626    	; 0x13ec <__stack+0x2ed>
    117a:	84 e1       	ldi	r24, 0x14	; 20
    117c:	8b bb       	out	0x1b, r24	; 27
    117e:	85 e0       	ldi	r24, 0x05	; 5
    1180:	8a 95       	dec	r24
    1182:	f1 f7       	brne	.-4      	; 0x1180 <__stack+0x81>
    1184:	00 00       	nop
    1186:	da 98       	cbi	0x1b, 2	; 27
    1188:	ef ee       	ldi	r30, 0xEF	; 239
    118a:	fa e0       	ldi	r31, 0x0A	; 10
    118c:	31 97       	sbiw	r30, 0x01	; 1
    118e:	f1 f7       	brne	.-4      	; 0x118c <__stack+0x8d>
    1190:	00 c0       	rjmp	.+0      	; 0x1192 <__stack+0x93>
    1192:	00 00       	nop
    1194:	da 9a       	sbi	0x1b, 2	; 27
    1196:	8f e3       	ldi	r24, 0x3F	; 63
    1198:	9f e1       	ldi	r25, 0x1F	; 31
    119a:	01 97       	sbiw	r24, 0x01	; 1
    119c:	f1 f7       	brne	.-4      	; 0x119a <__stack+0x9b>
    119e:	00 c0       	rjmp	.+0      	; 0x11a0 <__stack+0xa1>
    11a0:	00 00       	nop
    11a2:	d8 98       	cbi	0x1b, 0	; 27
    11a4:	20 fe       	sbrs	r2, 0
    11a6:	0a c1       	rjmp	.+532    	; 0x13bc <__stack+0x2bd>
    11a8:	8c e8       	ldi	r24, 0x8C	; 140
    11aa:	8b bb       	out	0x1b, r24	; 27
    11ac:	95 e0       	ldi	r25, 0x05	; 5
    11ae:	9a 95       	dec	r25
    11b0:	f1 f7       	brne	.-4      	; 0x11ae <__stack+0xaf>
    11b2:	00 00       	nop
    11b4:	da 98       	cbi	0x1b, 2	; 27
    11b6:	ea e1       	ldi	r30, 0x1A	; 26
    11b8:	ea 95       	dec	r30
    11ba:	f1 f7       	brne	.-4      	; 0x11b8 <__stack+0xb9>
    11bc:	00 c0       	rjmp	.+0      	; 0x11be <__stack+0xbf>
    11be:	20 fc       	sbrc	r2, 0
    11c0:	0f c1       	rjmp	.+542    	; 0x13e0 <__stack+0x2e1>
    11c2:	84 e0       	ldi	r24, 0x04	; 4
    11c4:	8b bb       	out	0x1b, r24	; 27
    11c6:	f5 e0       	ldi	r31, 0x05	; 5
    11c8:	fa 95       	dec	r31
    11ca:	f1 f7       	brne	.-4      	; 0x11c8 <__stack+0xc9>
    11cc:	00 00       	nop
    11ce:	da 98       	cbi	0x1b, 2	; 27
    11d0:	8f ee       	ldi	r24, 0xEF	; 239
    11d2:	9a e0       	ldi	r25, 0x0A	; 10
    11d4:	01 97       	sbiw	r24, 0x01	; 1
    11d6:	f1 f7       	brne	.-4      	; 0x11d4 <__stack+0xd5>
    11d8:	00 c0       	rjmp	.+0      	; 0x11da <__stack+0xdb>
    11da:	00 00       	nop
    11dc:	da 9a       	sbi	0x1b, 2	; 27
    11de:	e5 e2       	ldi	r30, 0x25	; 37
    11e0:	f1 e0       	ldi	r31, 0x01	; 1
    11e2:	8b e4       	ldi	r24, 0x4B	; 75
    11e4:	20 fc       	sbrc	r2, 0
    11e6:	95 c0       	rjmp	.+298    	; 0x1312 <__stack+0x213>
    11e8:	d8 9a       	sbi	0x1b, 0	; 27
    11ea:	98 2f       	mov	r25, r24
    11ec:	90 7f       	andi	r25, 0xF0	; 240
    11ee:	95 60       	ori	r25, 0x05	; 5
    11f0:	9b bb       	out	0x1b, r25	; 27
    11f2:	25 e0       	ldi	r18, 0x05	; 5
    11f4:	2a 95       	dec	r18
    11f6:	f1 f7       	brne	.-4      	; 0x11f4 <__stack+0xf5>
    11f8:	00 00       	nop
    11fa:	da 98       	cbi	0x1b, 2	; 27
    11fc:	7a e1       	ldi	r23, 0x1A	; 26
    11fe:	7a 95       	dec	r23
    1200:	f1 f7       	brne	.-4      	; 0x11fe <__stack+0xff>
    1202:	00 c0       	rjmp	.+0      	; 0x1204 <__stack+0x105>
    1204:	20 e1       	ldi	r18, 0x10	; 16
    1206:	82 9f       	mul	r24, r18
    1208:	c0 01       	movw	r24, r0
    120a:	11 24       	eor	r1, r1
    120c:	85 60       	ori	r24, 0x05	; 5
    120e:	8b bb       	out	0x1b, r24	; 27
    1210:	75 e0       	ldi	r23, 0x05	; 5
    1212:	7a 95       	dec	r23
    1214:	f1 f7       	brne	.-4      	; 0x1212 <__stack+0x113>
    1216:	00 00       	nop
    1218:	da 98       	cbi	0x1b, 2	; 27
    121a:	85 ed       	ldi	r24, 0xD5	; 213
    121c:	8a 95       	dec	r24
    121e:	f1 f7       	brne	.-4      	; 0x121c <__stack+0x11d>
    1220:	00 00       	nop
    1222:	da 9a       	sbi	0x1b, 2	; 27
    1224:	81 91       	ld	r24, Z+
    1226:	81 11       	cpse	r24, r1
    1228:	df cf       	rjmp	.-66     	; 0x11e8 <__stack+0xe9>
    122a:	d8 98       	cbi	0x1b, 0	; 27
    122c:	20 fe       	sbrs	r2, 0
    122e:	c3 c0       	rjmp	.+390    	; 0x13b6 <__stack+0x2b7>
    1230:	8c ec       	ldi	r24, 0xCC	; 204
    1232:	8b bb       	out	0x1b, r24	; 27
    1234:	95 e0       	ldi	r25, 0x05	; 5
    1236:	9a 95       	dec	r25
    1238:	f1 f7       	brne	.-4      	; 0x1236 <__stack+0x137>
    123a:	00 00       	nop
    123c:	da 98       	cbi	0x1b, 2	; 27
    123e:	ea e1       	ldi	r30, 0x1A	; 26
    1240:	ea 95       	dec	r30
    1242:	f1 f7       	brne	.-4      	; 0x1240 <__stack+0x141>
    1244:	00 c0       	rjmp	.+0      	; 0x1246 <__stack+0x147>
    1246:	20 fc       	sbrc	r2, 0
    1248:	ce c0       	rjmp	.+412    	; 0x13e6 <__stack+0x2e7>
    124a:	84 e0       	ldi	r24, 0x04	; 4
    124c:	8b bb       	out	0x1b, r24	; 27
    124e:	f5 e0       	ldi	r31, 0x05	; 5
    1250:	fa 95       	dec	r31
    1252:	f1 f7       	brne	.-4      	; 0x1250 <__stack+0x151>
    1254:	00 00       	nop
    1256:	da 98       	cbi	0x1b, 2	; 27
    1258:	8f ee       	ldi	r24, 0xEF	; 239
    125a:	9a e0       	ldi	r25, 0x0A	; 10
    125c:	01 97       	sbiw	r24, 0x01	; 1
    125e:	f1 f7       	brne	.-4      	; 0x125c <__stack+0x15d>
    1260:	00 c0       	rjmp	.+0      	; 0x1262 <__stack+0x163>
    1262:	00 00       	nop
    1264:	da 9a       	sbi	0x1b, 2	; 27
    1266:	e6 e4       	ldi	r30, 0x46	; 70
    1268:	f1 e0       	ldi	r31, 0x01	; 1
    126a:	20 fc       	sbrc	r2, 0
    126c:	77 c0       	rjmp	.+238    	; 0x135c <__stack+0x25d>
    126e:	81 91       	ld	r24, Z+
    1270:	d8 9a       	sbi	0x1b, 0	; 27
    1272:	98 2f       	mov	r25, r24
    1274:	90 7f       	andi	r25, 0xF0	; 240
    1276:	95 60       	ori	r25, 0x05	; 5
    1278:	9b bb       	out	0x1b, r25	; 27
    127a:	95 e0       	ldi	r25, 0x05	; 5
    127c:	9a 95       	dec	r25
    127e:	f1 f7       	brne	.-4      	; 0x127c <__stack+0x17d>
    1280:	00 00       	nop
    1282:	da 98       	cbi	0x1b, 2	; 27
    1284:	2a e1       	ldi	r18, 0x1A	; 26
    1286:	2a 95       	dec	r18
    1288:	f1 f7       	brne	.-4      	; 0x1286 <__stack+0x187>
    128a:	00 c0       	rjmp	.+0      	; 0x128c <__stack+0x18d>
    128c:	70 e1       	ldi	r23, 0x10	; 16
    128e:	87 9f       	mul	r24, r23
    1290:	c0 01       	movw	r24, r0
    1292:	11 24       	eor	r1, r1
    1294:	85 60       	ori	r24, 0x05	; 5
    1296:	8b bb       	out	0x1b, r24	; 27
    1298:	85 e0       	ldi	r24, 0x05	; 5
    129a:	8a 95       	dec	r24
    129c:	f1 f7       	brne	.-4      	; 0x129a <__stack+0x19b>
    129e:	00 00       	nop
    12a0:	da 98       	cbi	0x1b, 2	; 27
    12a2:	95 ed       	ldi	r25, 0xD5	; 213
    12a4:	9a 95       	dec	r25
    12a6:	f1 f7       	brne	.-4      	; 0x12a4 <__stack+0x1a5>
    12a8:	00 00       	nop
    12aa:	da 9a       	sbi	0x1b, 2	; 27
    12ac:	2f e7       	ldi	r18, 0x7F	; 127
    12ae:	78 e3       	ldi	r23, 0x38	; 56
    12b0:	81 e0       	ldi	r24, 0x01	; 1
    12b2:	21 50       	subi	r18, 0x01	; 1
    12b4:	70 40       	sbci	r23, 0x00	; 0
    12b6:	80 40       	sbci	r24, 0x00	; 0
    12b8:	e1 f7       	brne	.-8      	; 0x12b2 <__stack+0x1b3>
    12ba:	00 c0       	rjmp	.+0      	; 0x12bc <__stack+0x1bd>
    12bc:	00 00       	nop
    12be:	91 e0       	ldi	r25, 0x01	; 1
    12c0:	e6 35       	cpi	r30, 0x56	; 86
    12c2:	f9 07       	cpc	r31, r25
    12c4:	a1 f6       	brne	.-88     	; 0x126e <__stack+0x16f>
    12c6:	80 e0       	ldi	r24, 0x00	; 0
    12c8:	df 91       	pop	r29
    12ca:	cf 91       	pop	r28
    12cc:	1f 91       	pop	r17
    12ce:	08 95       	ret
    12d0:	80 91 9b 00 	lds	r24, 0x009B
    12d4:	85 fd       	sbrc	r24, 5
    12d6:	3f cf       	rjmp	.-386    	; 0x1156 <__stack+0x57>
    12d8:	80 91 9b 00 	lds	r24, 0x009B
    12dc:	85 ff       	sbrs	r24, 5
    12de:	f8 cf       	rjmp	.-16     	; 0x12d0 <__stack+0x1d1>
    12e0:	3a cf       	rjmp	.-396    	; 0x1156 <__stack+0x57>
    12e2:	95 60       	ori	r25, 0x05	; 5
    12e4:	9b bb       	out	0x1b, r25	; 27
    12e6:	f5 cd       	rjmp	.-1046   	; 0xed2 <_ZN13mySensorGaris11KalibrasiRBEh+0x2f6>
    12e8:	8c 60       	ori	r24, 0x0C	; 12
    12ea:	8b bb       	out	0x1b, r24	; 27
    12ec:	dd cd       	rjmp	.-1094   	; 0xea8 <_ZN13mySensorGaris11KalibrasiRBEh+0x2cc>
    12ee:	8d 60       	ori	r24, 0x0D	; 13
    12f0:	8b bb       	out	0x1b, r24	; 27
    12f2:	00 ce       	rjmp	.-1024   	; 0xef4 <_ZN13mySensorGaris11KalibrasiRBEh+0x318>
    12f4:	84 e8       	ldi	r24, 0x84	; 132
    12f6:	8b bb       	out	0x1b, r24	; 27
    12f8:	70 cd       	rjmp	.-1312   	; 0xdda <_ZN13mySensorGaris11KalibrasiRBEh+0x1fe>
    12fa:	84 e0       	ldi	r24, 0x04	; 4
    12fc:	8b bb       	out	0x1b, r24	; 27
    12fe:	41 cd       	rjmp	.-1406   	; 0xd82 <_ZN13mySensorGaris11KalibrasiRBEh+0x1a6>
    1300:	84 ec       	ldi	r24, 0xC4	; 196
    1302:	8b bb       	out	0x1b, r24	; 27
    1304:	dc cc       	rjmp	.-1608   	; 0xcbe <_ZN13mySensorGaris11KalibrasiRBEh+0xe2>
    1306:	84 e8       	ldi	r24, 0x84	; 132
    1308:	8b bb       	out	0x1b, r24	; 27
    130a:	95 cc       	rjmp	.-1750   	; 0xc36 <_ZN13mySensorGaris11KalibrasiRBEh+0x5a>
    130c:	84 e0       	ldi	r24, 0x04	; 4
    130e:	8b bb       	out	0x1b, r24	; 27
    1310:	6e cc       	rjmp	.-1828   	; 0xbee <_ZN13mySensorGaris11KalibrasiRBEh+0x12>
    1312:	d8 9a       	sbi	0x1b, 0	; 27
    1314:	98 2f       	mov	r25, r24
    1316:	90 7f       	andi	r25, 0xF0	; 240
    1318:	9d 60       	ori	r25, 0x0D	; 13
    131a:	9b bb       	out	0x1b, r25	; 27
    131c:	25 e0       	ldi	r18, 0x05	; 5
    131e:	2a 95       	dec	r18
    1320:	f1 f7       	brne	.-4      	; 0x131e <__stack+0x21f>
    1322:	00 00       	nop
    1324:	da 98       	cbi	0x1b, 2	; 27
    1326:	7a e1       	ldi	r23, 0x1A	; 26
    1328:	7a 95       	dec	r23
    132a:	f1 f7       	brne	.-4      	; 0x1328 <__stack+0x229>
    132c:	00 c0       	rjmp	.+0      	; 0x132e <__stack+0x22f>
    132e:	20 e1       	ldi	r18, 0x10	; 16
    1330:	82 9f       	mul	r24, r18
    1332:	c0 01       	movw	r24, r0
    1334:	11 24       	eor	r1, r1
    1336:	8d 60       	ori	r24, 0x0D	; 13
    1338:	8b bb       	out	0x1b, r24	; 27
    133a:	75 e0       	ldi	r23, 0x05	; 5
    133c:	7a 95       	dec	r23
    133e:	f1 f7       	brne	.-4      	; 0x133c <__stack+0x23d>
    1340:	00 00       	nop
    1342:	da 98       	cbi	0x1b, 2	; 27
    1344:	85 ed       	ldi	r24, 0xD5	; 213
    1346:	8a 95       	dec	r24
    1348:	f1 f7       	brne	.-4      	; 0x1346 <__stack+0x247>
    134a:	00 00       	nop
    134c:	da 9a       	sbi	0x1b, 2	; 27
    134e:	81 91       	ld	r24, Z+
    1350:	81 11       	cpse	r24, r1
    1352:	df cf       	rjmp	.-66     	; 0x1312 <__stack+0x213>
    1354:	6a cf       	rjmp	.-300    	; 0x122a <__stack+0x12b>
    1356:	8c e0       	ldi	r24, 0x0C	; 12
    1358:	8b bb       	out	0x1b, r24	; 27
    135a:	04 cf       	rjmp	.-504    	; 0x1164 <__stack+0x65>
    135c:	81 91       	ld	r24, Z+
    135e:	d8 9a       	sbi	0x1b, 0	; 27
    1360:	98 2f       	mov	r25, r24
    1362:	90 7f       	andi	r25, 0xF0	; 240
    1364:	9d 60       	ori	r25, 0x0D	; 13
    1366:	9b bb       	out	0x1b, r25	; 27
    1368:	95 e0       	ldi	r25, 0x05	; 5
    136a:	9a 95       	dec	r25
    136c:	f1 f7       	brne	.-4      	; 0x136a <__stack+0x26b>
    136e:	00 00       	nop
    1370:	da 98       	cbi	0x1b, 2	; 27
    1372:	2a e1       	ldi	r18, 0x1A	; 26
    1374:	2a 95       	dec	r18
    1376:	f1 f7       	brne	.-4      	; 0x1374 <__stack+0x275>
    1378:	00 c0       	rjmp	.+0      	; 0x137a <__stack+0x27b>
    137a:	70 e1       	ldi	r23, 0x10	; 16
    137c:	87 9f       	mul	r24, r23
    137e:	c0 01       	movw	r24, r0
    1380:	11 24       	eor	r1, r1
    1382:	8d 60       	ori	r24, 0x0D	; 13
    1384:	8b bb       	out	0x1b, r24	; 27
    1386:	85 e0       	ldi	r24, 0x05	; 5
    1388:	8a 95       	dec	r24
    138a:	f1 f7       	brne	.-4      	; 0x1388 <__stack+0x289>
    138c:	00 00       	nop
    138e:	da 98       	cbi	0x1b, 2	; 27
    1390:	95 ed       	ldi	r25, 0xD5	; 213
    1392:	9a 95       	dec	r25
    1394:	f1 f7       	brne	.-4      	; 0x1392 <__stack+0x293>
    1396:	00 00       	nop
    1398:	da 9a       	sbi	0x1b, 2	; 27
    139a:	2f e7       	ldi	r18, 0x7F	; 127
    139c:	78 e3       	ldi	r23, 0x38	; 56
    139e:	81 e0       	ldi	r24, 0x01	; 1
    13a0:	21 50       	subi	r18, 0x01	; 1
    13a2:	70 40       	sbci	r23, 0x00	; 0
    13a4:	80 40       	sbci	r24, 0x00	; 0
    13a6:	e1 f7       	brne	.-8      	; 0x13a0 <__stack+0x2a1>
    13a8:	00 c0       	rjmp	.+0      	; 0x13aa <__stack+0x2ab>
    13aa:	00 00       	nop
    13ac:	91 e0       	ldi	r25, 0x01	; 1
    13ae:	e6 35       	cpi	r30, 0x56	; 86
    13b0:	f9 07       	cpc	r31, r25
    13b2:	a1 f6       	brne	.-88     	; 0x135c <__stack+0x25d>
    13b4:	88 cf       	rjmp	.-240    	; 0x12c6 <__stack+0x1c7>
    13b6:	84 ec       	ldi	r24, 0xC4	; 196
    13b8:	8b bb       	out	0x1b, r24	; 27
    13ba:	3c cf       	rjmp	.-392    	; 0x1234 <__stack+0x135>
    13bc:	84 e8       	ldi	r24, 0x84	; 132
    13be:	8b bb       	out	0x1b, r24	; 27
    13c0:	f5 ce       	rjmp	.-534    	; 0x11ac <__stack+0xad>
    13c2:	8c e0       	ldi	r24, 0x0C	; 12
    13c4:	8b bb       	out	0x1b, r24	; 27
    13c6:	16 cd       	rjmp	.-1492   	; 0xdf4 <_ZN13mySensorGaris11KalibrasiRBEh+0x218>
    13c8:	8c e1       	ldi	r24, 0x1C	; 28
    13ca:	8b bb       	out	0x1b, r24	; 27
    13cc:	e7 cc       	rjmp	.-1586   	; 0xd9c <_ZN13mySensorGaris11KalibrasiRBEh+0x1c0>
    13ce:	8c e1       	ldi	r24, 0x1C	; 28
    13d0:	8b bb       	out	0x1b, r24	; 27
    13d2:	1a cc       	rjmp	.-1996   	; 0xc08 <_ZN13mySensorGaris11KalibrasiRBEh+0x2c>
    13d4:	8c e0       	ldi	r24, 0x0C	; 12
    13d6:	8b bb       	out	0x1b, r24	; 27
    13d8:	7f cc       	rjmp	.-1794   	; 0xcd8 <_ZN13mySensorGaris11KalibrasiRBEh+0xfc>
    13da:	8c e0       	ldi	r24, 0x0C	; 12
    13dc:	8b bb       	out	0x1b, r24	; 27
    13de:	38 cc       	rjmp	.-1936   	; 0xc50 <_ZN13mySensorGaris11KalibrasiRBEh+0x74>
    13e0:	8c e0       	ldi	r24, 0x0C	; 12
    13e2:	8b bb       	out	0x1b, r24	; 27
    13e4:	f0 ce       	rjmp	.-544    	; 0x11c6 <__stack+0xc7>
    13e6:	8c e0       	ldi	r24, 0x0C	; 12
    13e8:	8b bb       	out	0x1b, r24	; 27
    13ea:	31 cf       	rjmp	.-414    	; 0x124e <__stack+0x14f>
    13ec:	8c e1       	ldi	r24, 0x1C	; 28
    13ee:	8b bb       	out	0x1b, r24	; 27
    13f0:	c6 ce       	rjmp	.-628    	; 0x117e <__stack+0x7f>
    13f2:	80 91 9b 00 	lds	r24, 0x009B
    13f6:	85 fd       	sbrc	r24, 5
    13f8:	ae ce       	rjmp	.-676    	; 0x1156 <__stack+0x57>
    13fa:	80 91 9b 00 	lds	r24, 0x009B
    13fe:	85 ff       	sbrs	r24, 5
    1400:	f8 cf       	rjmp	.-16     	; 0x13f2 <__stack+0x2f3>
    1402:	a9 ce       	rjmp	.-686    	; 0x1156 <__stack+0x57>
    1404:	68 94       	set
    1406:	21 f8       	bld	r2, 1
    1408:	a8 ce       	rjmp	.-688    	; 0x115a <__stack+0x5b>

0000140a <_ZN11myScanGaris17UpdateSensorGarisEhh>:
    140a:	42 30       	cpi	r20, 0x02	; 2
    140c:	c9 f1       	breq	.+114    	; 0x1480 <_ZN11myScanGaris17UpdateSensorGarisEhh+0x76>
    140e:	90 f4       	brcc	.+36     	; 0x1434 <_ZN11myScanGaris17UpdateSensorGarisEhh+0x2a>
    1410:	44 23       	and	r20, r20
    1412:	61 f1       	breq	.+88     	; 0x146c <_ZN11myScanGaris17UpdateSensorGarisEhh+0x62>
    1414:	41 30       	cpi	r20, 0x01	; 1
    1416:	41 f4       	brne	.+16     	; 0x1428 <_ZN11myScanGaris17UpdateSensorGarisEhh+0x1e>
    1418:	66 23       	and	r22, r22
    141a:	c1 f0       	breq	.+48     	; 0x144c <_ZN11myScanGaris17UpdateSensorGarisEhh+0x42>
    141c:	63 30       	cpi	r22, 0x03	; 3
    141e:	b1 f0       	breq	.+44     	; 0x144c <_ZN11myScanGaris17UpdateSensorGarisEhh+0x42>
    1420:	64 30       	cpi	r22, 0x04	; 4
    1422:	61 f1       	breq	.+88     	; 0x147c <_ZN11myScanGaris17UpdateSensorGarisEhh+0x72>
    1424:	62 30       	cpi	r22, 0x02	; 2
    1426:	91 f0       	breq	.+36     	; 0x144c <_ZN11myScanGaris17UpdateSensorGarisEhh+0x42>
    1428:	20 e4       	ldi	r18, 0x40	; 64
    142a:	fc 01       	movw	r30, r24
    142c:	21 83       	std	Z+1, r18	; 0x01
    142e:	e8 94       	clt
    1430:	31 f8       	bld	r3, 1
    1432:	08 95       	ret
    1434:	43 30       	cpi	r20, 0x03	; 3
    1436:	81 f0       	breq	.+32     	; 0x1458 <_ZN11myScanGaris17UpdateSensorGarisEhh+0x4e>
    1438:	44 30       	cpi	r20, 0x04	; 4
    143a:	b1 f7       	brne	.-20     	; 0x1428 <_ZN11myScanGaris17UpdateSensorGarisEhh+0x1e>
    143c:	61 30       	cpi	r22, 0x01	; 1
    143e:	31 f4       	brne	.+12     	; 0x144c <_ZN11myScanGaris17UpdateSensorGarisEhh+0x42>
    1440:	20 e1       	ldi	r18, 0x10	; 16
    1442:	fc 01       	movw	r30, r24
    1444:	21 83       	std	Z+1, r18	; 0x01
    1446:	68 94       	set
    1448:	31 f8       	bld	r3, 1
    144a:	08 95       	ret
    144c:	20 e4       	ldi	r18, 0x40	; 64
    144e:	fc 01       	movw	r30, r24
    1450:	21 83       	std	Z+1, r18	; 0x01
    1452:	68 94       	set
    1454:	31 f8       	bld	r3, 1
    1456:	08 95       	ret
    1458:	66 23       	and	r22, r22
    145a:	81 f0       	breq	.+32     	; 0x147c <_ZN11myScanGaris17UpdateSensorGarisEhh+0x72>
    145c:	62 30       	cpi	r22, 0x02	; 2
    145e:	21 f7       	brne	.-56     	; 0x1428 <_ZN11myScanGaris17UpdateSensorGarisEhh+0x1e>
    1460:	20 e2       	ldi	r18, 0x20	; 32
    1462:	fc 01       	movw	r30, r24
    1464:	21 83       	std	Z+1, r18	; 0x01
    1466:	e8 94       	clt
    1468:	31 f8       	bld	r3, 1
    146a:	08 95       	ret
    146c:	61 30       	cpi	r22, 0x01	; 1
    146e:	e1 f2       	breq	.-72     	; 0x1428 <_ZN11myScanGaris17UpdateSensorGarisEhh+0x1e>
    1470:	64 30       	cpi	r22, 0x04	; 4
    1472:	d1 f2       	breq	.-76     	; 0x1428 <_ZN11myScanGaris17UpdateSensorGarisEhh+0x1e>
    1474:	62 30       	cpi	r22, 0x02	; 2
    1476:	a1 f3       	breq	.-24     	; 0x1460 <_ZN11myScanGaris17UpdateSensorGarisEhh+0x56>
    1478:	63 30       	cpi	r22, 0x03	; 3
    147a:	b1 f6       	brne	.-84     	; 0x1428 <_ZN11myScanGaris17UpdateSensorGarisEhh+0x1e>
    147c:	20 e1       	ldi	r18, 0x10	; 16
    147e:	d5 cf       	rjmp	.-86     	; 0x142a <_ZN11myScanGaris17UpdateSensorGarisEhh+0x20>
    1480:	66 23       	and	r22, r22
    1482:	71 f3       	breq	.-36     	; 0x1460 <_ZN11myScanGaris17UpdateSensorGarisEhh+0x56>
    1484:	63 30       	cpi	r22, 0x03	; 3
    1486:	81 f6       	brne	.-96     	; 0x1428 <_ZN11myScanGaris17UpdateSensorGarisEhh+0x1e>
    1488:	20 e2       	ldi	r18, 0x20	; 32
    148a:	eb cf       	rjmp	.-42     	; 0x1462 <_ZN11myScanGaris17UpdateSensorGarisEhh+0x58>

0000148c <_ZN11myScanGaris21UpdateSensorPertigaanEhh>:
    148c:	42 30       	cpi	r20, 0x02	; 2
    148e:	c9 f1       	breq	.+114    	; 0x1502 <_ZN11myScanGaris21UpdateSensorPertigaanEhh+0x76>
    1490:	90 f4       	brcc	.+36     	; 0x14b6 <_ZN11myScanGaris21UpdateSensorPertigaanEhh+0x2a>
    1492:	44 23       	and	r20, r20
    1494:	61 f1       	breq	.+88     	; 0x14ee <_ZN11myScanGaris21UpdateSensorPertigaanEhh+0x62>
    1496:	41 30       	cpi	r20, 0x01	; 1
    1498:	41 f4       	brne	.+16     	; 0x14aa <_ZN11myScanGaris21UpdateSensorPertigaanEhh+0x1e>
    149a:	66 23       	and	r22, r22
    149c:	c1 f0       	breq	.+48     	; 0x14ce <_ZN11myScanGaris21UpdateSensorPertigaanEhh+0x42>
    149e:	63 30       	cpi	r22, 0x03	; 3
    14a0:	b1 f0       	breq	.+44     	; 0x14ce <_ZN11myScanGaris21UpdateSensorPertigaanEhh+0x42>
    14a2:	64 30       	cpi	r22, 0x04	; 4
    14a4:	61 f1       	breq	.+88     	; 0x14fe <_ZN11myScanGaris21UpdateSensorPertigaanEhh+0x72>
    14a6:	62 30       	cpi	r22, 0x02	; 2
    14a8:	91 f0       	breq	.+36     	; 0x14ce <_ZN11myScanGaris21UpdateSensorPertigaanEhh+0x42>
    14aa:	20 e4       	ldi	r18, 0x40	; 64
    14ac:	fc 01       	movw	r30, r24
    14ae:	22 83       	std	Z+2, r18	; 0x02
    14b0:	e8 94       	clt
    14b2:	32 f8       	bld	r3, 2
    14b4:	08 95       	ret
    14b6:	43 30       	cpi	r20, 0x03	; 3
    14b8:	81 f0       	breq	.+32     	; 0x14da <_ZN11myScanGaris21UpdateSensorPertigaanEhh+0x4e>
    14ba:	44 30       	cpi	r20, 0x04	; 4
    14bc:	b1 f7       	brne	.-20     	; 0x14aa <_ZN11myScanGaris21UpdateSensorPertigaanEhh+0x1e>
    14be:	61 30       	cpi	r22, 0x01	; 1
    14c0:	31 f4       	brne	.+12     	; 0x14ce <_ZN11myScanGaris21UpdateSensorPertigaanEhh+0x42>
    14c2:	20 e1       	ldi	r18, 0x10	; 16
    14c4:	fc 01       	movw	r30, r24
    14c6:	22 83       	std	Z+2, r18	; 0x02
    14c8:	68 94       	set
    14ca:	32 f8       	bld	r3, 2
    14cc:	08 95       	ret
    14ce:	20 e4       	ldi	r18, 0x40	; 64
    14d0:	fc 01       	movw	r30, r24
    14d2:	22 83       	std	Z+2, r18	; 0x02
    14d4:	68 94       	set
    14d6:	32 f8       	bld	r3, 2
    14d8:	08 95       	ret
    14da:	66 23       	and	r22, r22
    14dc:	81 f0       	breq	.+32     	; 0x14fe <_ZN11myScanGaris21UpdateSensorPertigaanEhh+0x72>
    14de:	62 30       	cpi	r22, 0x02	; 2
    14e0:	21 f7       	brne	.-56     	; 0x14aa <_ZN11myScanGaris21UpdateSensorPertigaanEhh+0x1e>
    14e2:	20 e2       	ldi	r18, 0x20	; 32
    14e4:	fc 01       	movw	r30, r24
    14e6:	22 83       	std	Z+2, r18	; 0x02
    14e8:	e8 94       	clt
    14ea:	32 f8       	bld	r3, 2
    14ec:	08 95       	ret
    14ee:	61 30       	cpi	r22, 0x01	; 1
    14f0:	e1 f2       	breq	.-72     	; 0x14aa <_ZN11myScanGaris21UpdateSensorPertigaanEhh+0x1e>
    14f2:	64 30       	cpi	r22, 0x04	; 4
    14f4:	d1 f2       	breq	.-76     	; 0x14aa <_ZN11myScanGaris21UpdateSensorPertigaanEhh+0x1e>
    14f6:	62 30       	cpi	r22, 0x02	; 2
    14f8:	a1 f3       	breq	.-24     	; 0x14e2 <_ZN11myScanGaris21UpdateSensorPertigaanEhh+0x56>
    14fa:	63 30       	cpi	r22, 0x03	; 3
    14fc:	b1 f6       	brne	.-84     	; 0x14aa <_ZN11myScanGaris21UpdateSensorPertigaanEhh+0x1e>
    14fe:	20 e1       	ldi	r18, 0x10	; 16
    1500:	d5 cf       	rjmp	.-86     	; 0x14ac <_ZN11myScanGaris21UpdateSensorPertigaanEhh+0x20>
    1502:	66 23       	and	r22, r22
    1504:	71 f3       	breq	.-36     	; 0x14e2 <_ZN11myScanGaris21UpdateSensorPertigaanEhh+0x56>
    1506:	63 30       	cpi	r22, 0x03	; 3
    1508:	81 f6       	brne	.-96     	; 0x14aa <_ZN11myScanGaris21UpdateSensorPertigaanEhh+0x1e>
    150a:	20 e2       	ldi	r18, 0x20	; 32
    150c:	eb cf       	rjmp	.-42     	; 0x14e4 <_ZN11myScanGaris21UpdateSensorPertigaanEhh+0x58>

0000150e <_ZN11myScanGaris4ScanEj>:
    150e:	ef 92       	push	r14
    1510:	ff 92       	push	r15
    1512:	0f 93       	push	r16
    1514:	1f 93       	push	r17
    1516:	cf 93       	push	r28
    1518:	df 93       	push	r29
    151a:	ec 01       	movw	r28, r24
    151c:	8b 01       	movw	r16, r22
    151e:	69 81       	ldd	r22, Y+1	; 0x01
    1520:	88 81       	ld	r24, Y
    1522:	0e 94 78 00 	call	0xf0	; 0xf0 <_ZN13mySensorGaris9BacaGarisEhh.constprop.12>
    1526:	31 fc       	sbrc	r3, 1
    1528:	80 95       	com	r24
    152a:	d8 98       	cbi	0x1b, 0	; 27
    152c:	20 fe       	sbrs	r2, 0
    152e:	d9 c0       	rjmp	.+434    	; 0x16e2 <_ZN11myScanGaris4ScanEj+0x1d4>
    1530:	9c e8       	ldi	r25, 0x8C	; 140
    1532:	9b bb       	out	0x1b, r25	; 27
    1534:	25 e0       	ldi	r18, 0x05	; 5
    1536:	2a 95       	dec	r18
    1538:	f1 f7       	brne	.-4      	; 0x1536 <_ZN11myScanGaris4ScanEj+0x28>
    153a:	00 00       	nop
    153c:	da 98       	cbi	0x1b, 2	; 27
    153e:	3a e1       	ldi	r19, 0x1A	; 26
    1540:	3a 95       	dec	r19
    1542:	f1 f7       	brne	.-4      	; 0x1540 <_ZN11myScanGaris4ScanEj+0x32>
    1544:	00 c0       	rjmp	.+0      	; 0x1546 <_ZN11myScanGaris4ScanEj+0x38>
    1546:	20 fc       	sbrc	r2, 0
    1548:	dd c0       	rjmp	.+442    	; 0x1704 <_ZN11myScanGaris4ScanEj+0x1f6>
    154a:	94 e0       	ldi	r25, 0x04	; 4
    154c:	9b bb       	out	0x1b, r25	; 27
    154e:	65 e0       	ldi	r22, 0x05	; 5
    1550:	6a 95       	dec	r22
    1552:	f1 f7       	brne	.-4      	; 0x1550 <_ZN11myScanGaris4ScanEj+0x42>
    1554:	00 00       	nop
    1556:	da 98       	cbi	0x1b, 2	; 27
    1558:	ef ee       	ldi	r30, 0xEF	; 239
    155a:	fa e0       	ldi	r31, 0x0A	; 10
    155c:	31 97       	sbiw	r30, 0x01	; 1
    155e:	f1 f7       	brne	.-4      	; 0x155c <_ZN11myScanGaris4ScanEj+0x4e>
    1560:	00 c0       	rjmp	.+0      	; 0x1562 <_ZN11myScanGaris4ScanEj+0x54>
    1562:	00 00       	nop
    1564:	da 9a       	sbi	0x1b, 2	; 27
    1566:	a8 2f       	mov	r26, r24
    1568:	b0 e0       	ldi	r27, 0x00	; 0
    156a:	47 e0       	ldi	r20, 0x07	; 7
    156c:	50 e0       	ldi	r21, 0x00	; 0
    156e:	92 2d       	mov	r25, r2
    1570:	91 70       	andi	r25, 0x01	; 1
    1572:	75 e1       	ldi	r23, 0x15	; 21
    1574:	2d e1       	ldi	r18, 0x1D	; 29
    1576:	e2 2e       	mov	r14, r18
    1578:	35 e3       	ldi	r19, 0x35	; 53
    157a:	2d e3       	ldi	r18, 0x3D	; 61
    157c:	65 e0       	ldi	r22, 0x05	; 5
    157e:	ed e0       	ldi	r30, 0x0D	; 13
    1580:	fe 2e       	mov	r15, r30
    1582:	1c c0       	rjmp	.+56     	; 0x15bc <_ZN11myScanGaris4ScanEj+0xae>
    1584:	99 23       	and	r25, r25
    1586:	a1 f1       	breq	.+104    	; 0x15f0 <_ZN11myScanGaris4ScanEj+0xe2>
    1588:	2b bb       	out	0x1b, r18	; 27
    158a:	f5 e0       	ldi	r31, 0x05	; 5
    158c:	fa 95       	dec	r31
    158e:	f1 f7       	brne	.-4      	; 0x158c <_ZN11myScanGaris4ScanEj+0x7e>
    1590:	00 00       	nop
    1592:	da 98       	cbi	0x1b, 2	; 27
    1594:	ea e1       	ldi	r30, 0x1A	; 26
    1596:	ea 95       	dec	r30
    1598:	f1 f7       	brne	.-4      	; 0x1596 <_ZN11myScanGaris4ScanEj+0x88>
    159a:	00 c0       	rjmp	.+0      	; 0x159c <_ZN11myScanGaris4ScanEj+0x8e>
    159c:	91 11       	cpse	r25, r1
    159e:	2c c0       	rjmp	.+88     	; 0x15f8 <_ZN11myScanGaris4ScanEj+0xea>
    15a0:	6b bb       	out	0x1b, r22	; 27
    15a2:	f5 e0       	ldi	r31, 0x05	; 5
    15a4:	fa 95       	dec	r31
    15a6:	f1 f7       	brne	.-4      	; 0x15a4 <_ZN11myScanGaris4ScanEj+0x96>
    15a8:	00 00       	nop
    15aa:	da 98       	cbi	0x1b, 2	; 27
    15ac:	e5 ed       	ldi	r30, 0xD5	; 213
    15ae:	ea 95       	dec	r30
    15b0:	f1 f7       	brne	.-4      	; 0x15ae <_ZN11myScanGaris4ScanEj+0xa0>
    15b2:	00 00       	nop
    15b4:	da 9a       	sbi	0x1b, 2	; 27
    15b6:	41 50       	subi	r20, 0x01	; 1
    15b8:	51 09       	sbc	r21, r1
    15ba:	10 f1       	brcs	.+68     	; 0x1600 <_ZN11myScanGaris4ScanEj+0xf2>
    15bc:	fd 01       	movw	r30, r26
    15be:	04 2e       	mov	r0, r20
    15c0:	02 c0       	rjmp	.+4      	; 0x15c6 <_ZN11myScanGaris4ScanEj+0xb8>
    15c2:	f5 95       	asr	r31
    15c4:	e7 95       	ror	r30
    15c6:	0a 94       	dec	r0
    15c8:	e2 f7       	brpl	.-8      	; 0x15c2 <_ZN11myScanGaris4ScanEj+0xb4>
    15ca:	d8 9a       	sbi	0x1b, 0	; 27
    15cc:	e0 ff       	sbrs	r30, 0
    15ce:	da cf       	rjmp	.-76     	; 0x1584 <_ZN11myScanGaris4ScanEj+0x76>
    15d0:	99 23       	and	r25, r25
    15d2:	81 f0       	breq	.+32     	; 0x15f4 <_ZN11myScanGaris4ScanEj+0xe6>
    15d4:	2b bb       	out	0x1b, r18	; 27
    15d6:	f5 e0       	ldi	r31, 0x05	; 5
    15d8:	fa 95       	dec	r31
    15da:	f1 f7       	brne	.-4      	; 0x15d8 <_ZN11myScanGaris4ScanEj+0xca>
    15dc:	00 00       	nop
    15de:	da 98       	cbi	0x1b, 2	; 27
    15e0:	ea e1       	ldi	r30, 0x1A	; 26
    15e2:	ea 95       	dec	r30
    15e4:	f1 f7       	brne	.-4      	; 0x15e2 <_ZN11myScanGaris4ScanEj+0xd4>
    15e6:	00 c0       	rjmp	.+0      	; 0x15e8 <_ZN11myScanGaris4ScanEj+0xda>
    15e8:	91 11       	cpse	r25, r1
    15ea:	08 c0       	rjmp	.+16     	; 0x15fc <_ZN11myScanGaris4ScanEj+0xee>
    15ec:	7b bb       	out	0x1b, r23	; 27
    15ee:	d9 cf       	rjmp	.-78     	; 0x15a2 <_ZN11myScanGaris4ScanEj+0x94>
    15f0:	3b bb       	out	0x1b, r19	; 27
    15f2:	cb cf       	rjmp	.-106    	; 0x158a <_ZN11myScanGaris4ScanEj+0x7c>
    15f4:	3b bb       	out	0x1b, r19	; 27
    15f6:	ef cf       	rjmp	.-34     	; 0x15d6 <_ZN11myScanGaris4ScanEj+0xc8>
    15f8:	fb ba       	out	0x1b, r15	; 27
    15fa:	d3 cf       	rjmp	.-90     	; 0x15a2 <_ZN11myScanGaris4ScanEj+0x94>
    15fc:	eb ba       	out	0x1b, r14	; 27
    15fe:	d1 cf       	rjmp	.-94     	; 0x15a2 <_ZN11myScanGaris4ScanEj+0x94>
    1600:	80 31       	cpi	r24, 0x10	; 16
    1602:	09 f4       	brne	.+2      	; 0x1606 <_ZN11myScanGaris4ScanEj+0xf8>
    1604:	bc c0       	rjmp	.+376    	; 0x177e <_ZN11myScanGaris4ScanEj+0x270>
    1606:	08 f4       	brcc	.+2      	; 0x160a <_ZN11myScanGaris4ScanEj+0xfc>
    1608:	6f c0       	rjmp	.+222    	; 0x16e8 <_ZN11myScanGaris4ScanEj+0x1da>
    160a:	80 33       	cpi	r24, 0x30	; 48
    160c:	09 f4       	brne	.+2      	; 0x1610 <_ZN11myScanGaris4ScanEj+0x102>
    160e:	bb c0       	rjmp	.+374    	; 0x1786 <_ZN11myScanGaris4ScanEj+0x278>
    1610:	08 f4       	brcc	.+2      	; 0x1614 <_ZN11myScanGaris4ScanEj+0x106>
    1612:	a8 c0       	rjmp	.+336    	; 0x1764 <_ZN11myScanGaris4ScanEj+0x256>
    1614:	80 36       	cpi	r24, 0x60	; 96
    1616:	09 f4       	brne	.+2      	; 0x161a <_ZN11myScanGaris4ScanEj+0x10c>
    1618:	7a c0       	rjmp	.+244    	; 0x170e <_ZN11myScanGaris4ScanEj+0x200>
    161a:	80 3c       	cpi	r24, 0xC0	; 192
    161c:	09 f4       	brne	.+2      	; 0x1620 <_ZN11myScanGaris4ScanEj+0x112>
    161e:	b7 c0       	rjmp	.+366    	; 0x178e <_ZN11myScanGaris4ScanEj+0x280>
    1620:	80 34       	cpi	r24, 0x40	; 64
    1622:	09 f4       	brne	.+2      	; 0x1626 <_ZN11myScanGaris4ScanEj+0x118>
    1624:	b2 c0       	rjmp	.+356    	; 0x178a <_ZN11myScanGaris4ScanEj+0x27c>
    1626:	80 91 45 02 	lds	r24, 0x0245
    162a:	ed 81       	ldd	r30, Y+5	; 0x05
    162c:	e8 0f       	add	r30, r24
    162e:	e0 93 45 02 	sts	0x0245, r30
    1632:	80 91 44 02 	lds	r24, 0x0244
    1636:	fe 2f       	mov	r31, r30
    1638:	f8 1b       	sub	r31, r24
    163a:	e0 93 44 02 	sts	0x0244, r30
    163e:	98 01       	movw	r18, r16
    1640:	a9 e8       	ldi	r26, 0x89	; 137
    1642:	b8 e8       	ldi	r27, 0x88	; 136
    1644:	0e 94 97 1a 	call	0x352e	; 0x352e <__umulhisi3>
    1648:	9c 01       	movw	r18, r24
    164a:	32 95       	swap	r19
    164c:	22 95       	swap	r18
    164e:	2f 70       	andi	r18, 0x0F	; 15
    1650:	23 27       	eor	r18, r19
    1652:	3f 70       	andi	r19, 0x0F	; 15
    1654:	23 27       	eor	r18, r19
    1656:	26 5f       	subi	r18, 0xF6	; 246
    1658:	3f 4f       	sbci	r19, 0xFF	; 255
    165a:	6e 2f       	mov	r22, r30
    165c:	62 03       	mulsu	r22, r18
    165e:	a0 01       	movw	r20, r0
    1660:	63 9f       	mul	r22, r19
    1662:	50 0d       	add	r21, r0
    1664:	11 24       	eor	r1, r1
    1666:	84 e6       	ldi	r24, 0x64	; 100
    1668:	f8 02       	muls	r31, r24
    166a:	40 0d       	add	r20, r0
    166c:	51 1d       	adc	r21, r1
    166e:	11 24       	eor	r1, r1
    1670:	88 81       	ld	r24, Y
    1672:	81 11       	cpse	r24, r1
    1674:	4e c0       	rjmp	.+156    	; 0x1712 <_ZN11myScanGaris4ScanEj+0x204>
    1676:	ca 01       	movw	r24, r20
    1678:	80 0f       	add	r24, r16
    167a:	91 1f       	adc	r25, r17
    167c:	f8 01       	movw	r30, r16
    167e:	e4 1b       	sub	r30, r20
    1680:	f5 0b       	sbc	r31, r21
    1682:	af 01       	movw	r20, r30
    1684:	80 37       	cpi	r24, 0x70	; 112
    1686:	fe ef       	ldi	r31, 0xFE	; 254
    1688:	9f 07       	cpc	r25, r31
    168a:	14 f4       	brge	.+4      	; 0x1690 <_ZN11myScanGaris4ScanEj+0x182>
    168c:	80 e7       	ldi	r24, 0x70	; 112
    168e:	9e ef       	ldi	r25, 0xFE	; 254
    1690:	81 39       	cpi	r24, 0x91	; 145
    1692:	21 e0       	ldi	r18, 0x01	; 1
    1694:	92 07       	cpc	r25, r18
    1696:	14 f0       	brlt	.+4      	; 0x169c <_ZN11myScanGaris4ScanEj+0x18e>
    1698:	80 e9       	ldi	r24, 0x90	; 144
    169a:	91 e0       	ldi	r25, 0x01	; 1
    169c:	40 37       	cpi	r20, 0x70	; 112
    169e:	3e ef       	ldi	r19, 0xFE	; 254
    16a0:	53 07       	cpc	r21, r19
    16a2:	14 f4       	brge	.+4      	; 0x16a8 <_ZN11myScanGaris4ScanEj+0x19a>
    16a4:	40 e7       	ldi	r20, 0x70	; 112
    16a6:	5e ef       	ldi	r21, 0xFE	; 254
    16a8:	41 39       	cpi	r20, 0x91	; 145
    16aa:	61 e0       	ldi	r22, 0x01	; 1
    16ac:	56 07       	cpc	r21, r22
    16ae:	14 f0       	brlt	.+4      	; 0x16b4 <_ZN11myScanGaris4ScanEj+0x1a6>
    16b0:	40 e9       	ldi	r20, 0x90	; 144
    16b2:	51 e0       	ldi	r21, 0x01	; 1
    16b4:	e8 94       	clt
    16b6:	23 f8       	bld	r2, 3
    16b8:	97 fd       	sbrc	r25, 7
    16ba:	34 c0       	rjmp	.+104    	; 0x1724 <_ZN11myScanGaris4ScanEj+0x216>
    16bc:	90 93 85 00 	sts	0x0085, r25
    16c0:	80 93 84 00 	sts	0x0084, r24
    16c4:	1d 9a       	sbi	0x03, 5	; 3
    16c6:	57 fd       	sbrc	r21, 7
    16c8:	37 c0       	rjmp	.+110    	; 0x1738 <_ZN11myScanGaris4ScanEj+0x22a>
    16ca:	50 93 87 00 	sts	0x0087, r21
    16ce:	40 93 86 00 	sts	0x0086, r20
    16d2:	1a 9a       	sbi	0x03, 2	; 3
    16d4:	df 91       	pop	r29
    16d6:	cf 91       	pop	r28
    16d8:	1f 91       	pop	r17
    16da:	0f 91       	pop	r16
    16dc:	ff 90       	pop	r15
    16de:	ef 90       	pop	r14
    16e0:	08 95       	ret
    16e2:	94 e8       	ldi	r25, 0x84	; 132
    16e4:	9b bb       	out	0x1b, r25	; 27
    16e6:	26 cf       	rjmp	.-436    	; 0x1534 <_ZN11myScanGaris4ScanEj+0x26>
    16e8:	84 30       	cpi	r24, 0x04	; 4
    16ea:	09 f4       	brne	.+2      	; 0x16ee <_ZN11myScanGaris4ScanEj+0x1e0>
    16ec:	46 c0       	rjmp	.+140    	; 0x177a <_ZN11myScanGaris4ScanEj+0x26c>
    16ee:	98 f1       	brcs	.+102    	; 0x1756 <_ZN11myScanGaris4ScanEj+0x248>
    16f0:	88 30       	cpi	r24, 0x08	; 8
    16f2:	59 f0       	breq	.+22     	; 0x170a <_ZN11myScanGaris4ScanEj+0x1fc>
    16f4:	8c 30       	cpi	r24, 0x0C	; 12
    16f6:	09 f4       	brne	.+2      	; 0x16fa <_ZN11myScanGaris4ScanEj+0x1ec>
    16f8:	44 c0       	rjmp	.+136    	; 0x1782 <_ZN11myScanGaris4ScanEj+0x274>
    16fa:	86 30       	cpi	r24, 0x06	; 6
    16fc:	09 f0       	breq	.+2      	; 0x1700 <_ZN11myScanGaris4ScanEj+0x1f2>
    16fe:	93 cf       	rjmp	.-218    	; 0x1626 <_ZN11myScanGaris4ScanEj+0x118>
    1700:	84 e0       	ldi	r24, 0x04	; 4
    1702:	93 cf       	rjmp	.-218    	; 0x162a <_ZN11myScanGaris4ScanEj+0x11c>
    1704:	9c e0       	ldi	r25, 0x0C	; 12
    1706:	9b bb       	out	0x1b, r25	; 27
    1708:	22 cf       	rjmp	.-444    	; 0x154e <_ZN11myScanGaris4ScanEj+0x40>
    170a:	81 e0       	ldi	r24, 0x01	; 1
    170c:	8e cf       	rjmp	.-228    	; 0x162a <_ZN11myScanGaris4ScanEj+0x11c>
    170e:	8c ef       	ldi	r24, 0xFC	; 252
    1710:	8c cf       	rjmp	.-232    	; 0x162a <_ZN11myScanGaris4ScanEj+0x11c>
    1712:	ca 01       	movw	r24, r20
    1714:	80 1b       	sub	r24, r16
    1716:	91 0b       	sbc	r25, r17
    1718:	40 0f       	add	r20, r16
    171a:	51 1f       	adc	r21, r17
    171c:	51 95       	neg	r21
    171e:	41 95       	neg	r20
    1720:	51 09       	sbc	r21, r1
    1722:	b0 cf       	rjmp	.-160    	; 0x1684 <_ZN11myScanGaris4ScanEj+0x176>
    1724:	91 95       	neg	r25
    1726:	81 95       	neg	r24
    1728:	91 09       	sbc	r25, r1
    172a:	90 93 85 00 	sts	0x0085, r25
    172e:	80 93 84 00 	sts	0x0084, r24
    1732:	1d 98       	cbi	0x03, 5	; 3
    1734:	57 ff       	sbrs	r21, 7
    1736:	c9 cf       	rjmp	.-110    	; 0x16ca <_ZN11myScanGaris4ScanEj+0x1bc>
    1738:	51 95       	neg	r21
    173a:	41 95       	neg	r20
    173c:	51 09       	sbc	r21, r1
    173e:	50 93 87 00 	sts	0x0087, r21
    1742:	40 93 86 00 	sts	0x0086, r20
    1746:	1a 98       	cbi	0x03, 2	; 3
    1748:	df 91       	pop	r29
    174a:	cf 91       	pop	r28
    174c:	1f 91       	pop	r17
    174e:	0f 91       	pop	r16
    1750:	ff 90       	pop	r15
    1752:	ef 90       	pop	r14
    1754:	08 95       	ret
    1756:	82 30       	cpi	r24, 0x02	; 2
    1758:	61 f0       	breq	.+24     	; 0x1772 <_ZN11myScanGaris4ScanEj+0x264>
    175a:	83 30       	cpi	r24, 0x03	; 3
    175c:	09 f0       	breq	.+2      	; 0x1760 <_ZN11myScanGaris4ScanEj+0x252>
    175e:	63 cf       	rjmp	.-314    	; 0x1626 <_ZN11myScanGaris4ScanEj+0x118>
    1760:	86 e0       	ldi	r24, 0x06	; 6
    1762:	63 cf       	rjmp	.-314    	; 0x162a <_ZN11myScanGaris4ScanEj+0x11c>
    1764:	88 31       	cpi	r24, 0x18	; 24
    1766:	39 f0       	breq	.+14     	; 0x1776 <_ZN11myScanGaris4ScanEj+0x268>
    1768:	80 32       	cpi	r24, 0x20	; 32
    176a:	09 f0       	breq	.+2      	; 0x176e <_ZN11myScanGaris4ScanEj+0x260>
    176c:	5c cf       	rjmp	.-328    	; 0x1626 <_ZN11myScanGaris4ScanEj+0x118>
    176e:	8d ef       	ldi	r24, 0xFD	; 253
    1770:	5c cf       	rjmp	.-328    	; 0x162a <_ZN11myScanGaris4ScanEj+0x11c>
    1772:	85 e0       	ldi	r24, 0x05	; 5
    1774:	5a cf       	rjmp	.-332    	; 0x162a <_ZN11myScanGaris4ScanEj+0x11c>
    1776:	80 e0       	ldi	r24, 0x00	; 0
    1778:	58 cf       	rjmp	.-336    	; 0x162a <_ZN11myScanGaris4ScanEj+0x11c>
    177a:	83 e0       	ldi	r24, 0x03	; 3
    177c:	56 cf       	rjmp	.-340    	; 0x162a <_ZN11myScanGaris4ScanEj+0x11c>
    177e:	8f ef       	ldi	r24, 0xFF	; 255
    1780:	54 cf       	rjmp	.-344    	; 0x162a <_ZN11myScanGaris4ScanEj+0x11c>
    1782:	82 e0       	ldi	r24, 0x02	; 2
    1784:	52 cf       	rjmp	.-348    	; 0x162a <_ZN11myScanGaris4ScanEj+0x11c>
    1786:	8e ef       	ldi	r24, 0xFE	; 254
    1788:	50 cf       	rjmp	.-352    	; 0x162a <_ZN11myScanGaris4ScanEj+0x11c>
    178a:	8b ef       	ldi	r24, 0xFB	; 251
    178c:	4e cf       	rjmp	.-356    	; 0x162a <_ZN11myScanGaris4ScanEj+0x11c>
    178e:	8a ef       	ldi	r24, 0xFA	; 250
    1790:	4c cf       	rjmp	.-360    	; 0x162a <_ZN11myScanGaris4ScanEj+0x11c>

00001792 <_ZN11myScanGaris16ScanSampaiSensorEjh>:
    1792:	ff 92       	push	r15
    1794:	0f 93       	push	r16
    1796:	1f 93       	push	r17
    1798:	cf 93       	push	r28
    179a:	df 93       	push	r29
    179c:	ec 01       	movw	r28, r24
    179e:	8b 01       	movw	r16, r22
    17a0:	f4 2e       	mov	r15, r20
    17a2:	30 fe       	sbrs	r3, 0
    17a4:	85 c0       	rjmp	.+266    	; 0x18b0 <_ZN11myScanGaris16ScanSampaiSensorEjh+0x11e>
    17a6:	80 e5       	ldi	r24, 0x50	; 80
    17a8:	90 e0       	ldi	r25, 0x00	; 0
    17aa:	9c 83       	std	Y+4, r25	; 0x04
    17ac:	8b 83       	std	Y+3, r24	; 0x03
    17ae:	60 e5       	ldi	r22, 0x50	; 80
    17b0:	70 e0       	ldi	r23, 0x00	; 0
    17b2:	60 17       	cp	r22, r16
    17b4:	71 07       	cpc	r23, r17
    17b6:	20 f4       	brcc	.+8      	; 0x17c0 <_ZN11myScanGaris16ScanSampaiSensorEjh+0x2e>
    17b8:	6b 5f       	subi	r22, 0xFB	; 251
    17ba:	7f 4f       	sbci	r23, 0xFF	; 255
    17bc:	7c 83       	std	Y+4, r23	; 0x04
    17be:	6b 83       	std	Y+3, r22	; 0x03
    17c0:	ce 01       	movw	r24, r28
    17c2:	0e 94 87 0a 	call	0x150e	; 0x150e <_ZN11myScanGaris4ScanEj>
    17c6:	98 81       	ld	r25, Y
    17c8:	8a 81       	ldd	r24, Y+2	; 0x02
    17ca:	98 2b       	or	r25, r24
    17cc:	80 91 9b 00 	lds	r24, 0x009B
    17d0:	85 ff       	sbrs	r24, 5
    17d2:	fc cf       	rjmp	.-8      	; 0x17cc <_ZN11myScanGaris16ScanSampaiSensorEjh+0x3a>
    17d4:	90 93 9c 00 	sts	0x009C, r25
    17d8:	28 e8       	ldi	r18, 0x88	; 136
    17da:	33 e1       	ldi	r19, 0x13	; 19
    17dc:	09 c0       	rjmp	.+18     	; 0x17f0 <_ZN11myScanGaris16ScanSampaiSensorEjh+0x5e>
    17de:	85 e0       	ldi	r24, 0x05	; 5
    17e0:	8a 95       	dec	r24
    17e2:	f1 f7       	brne	.-4      	; 0x17e0 <_ZN11myScanGaris16ScanSampaiSensorEjh+0x4e>
    17e4:	00 00       	nop
    17e6:	21 50       	subi	r18, 0x01	; 1
    17e8:	31 09       	sbc	r19, r1
    17ea:	21 15       	cp	r18, r1
    17ec:	31 05       	cpc	r19, r1
    17ee:	41 f1       	breq	.+80     	; 0x1840 <_ZN11myScanGaris16ScanSampaiSensorEjh+0xae>
    17f0:	80 91 2d 02 	lds	r24, 0x022D
    17f4:	88 23       	and	r24, r24
    17f6:	99 f3       	breq	.-26     	; 0x17de <_ZN11myScanGaris16ScanSampaiSensorEjh+0x4c>
    17f8:	e8 94       	clt
    17fa:	21 f8       	bld	r2, 1
    17fc:	e0 91 2e 02 	lds	r30, 0x022E
    1800:	f0 e0       	ldi	r31, 0x00	; 0
    1802:	e0 5d       	subi	r30, 0xD0	; 208
    1804:	fd 4f       	sbci	r31, 0xFD	; 253
    1806:	20 81       	ld	r18, Z
    1808:	80 91 2e 02 	lds	r24, 0x022E
    180c:	8f 5f       	subi	r24, 0xFF	; 255
    180e:	80 93 2e 02 	sts	0x022E, r24
    1812:	80 31       	cpi	r24, 0x10	; 16
    1814:	11 f4       	brne	.+4      	; 0x181a <_ZN11myScanGaris16ScanSampaiSensorEjh+0x88>
    1816:	10 92 2e 02 	sts	0x022E, r1
    181a:	f8 94       	cli
    181c:	80 91 2d 02 	lds	r24, 0x022D
    1820:	81 50       	subi	r24, 0x01	; 1
    1822:	80 93 2d 02 	sts	0x022D, r24
    1826:	78 94       	sei
    1828:	82 2f       	mov	r24, r18
    182a:	98 17       	cp	r25, r24
    182c:	71 f0       	breq	.+28     	; 0x184a <_ZN11myScanGaris16ScanSampaiSensorEjh+0xb8>
    182e:	80 e0       	ldi	r24, 0x00	; 0
    1830:	32 fc       	sbrc	r3, 2
    1832:	80 95       	com	r24
    1834:	8f 21       	and	r24, r15
    1836:	8f 15       	cp	r24, r15
    1838:	a9 f1       	breq	.+106    	; 0x18a4 <_ZN11myScanGaris16ScanSampaiSensorEjh+0x112>
    183a:	6b 81       	ldd	r22, Y+3	; 0x03
    183c:	7c 81       	ldd	r23, Y+4	; 0x04
    183e:	b9 cf       	rjmp	.-142    	; 0x17b2 <_ZN11myScanGaris16ScanSampaiSensorEjh+0x20>
    1840:	68 94       	set
    1842:	21 f8       	bld	r2, 1
    1844:	80 e0       	ldi	r24, 0x00	; 0
    1846:	98 13       	cpse	r25, r24
    1848:	f2 cf       	rjmp	.-28     	; 0x182e <_ZN11myScanGaris16ScanSampaiSensorEjh+0x9c>
    184a:	28 e8       	ldi	r18, 0x88	; 136
    184c:	33 e1       	ldi	r19, 0x13	; 19
    184e:	09 c0       	rjmp	.+18     	; 0x1862 <_ZN11myScanGaris16ScanSampaiSensorEjh+0xd0>
    1850:	85 e0       	ldi	r24, 0x05	; 5
    1852:	8a 95       	dec	r24
    1854:	f1 f7       	brne	.-4      	; 0x1852 <_ZN11myScanGaris16ScanSampaiSensorEjh+0xc0>
    1856:	00 00       	nop
    1858:	21 50       	subi	r18, 0x01	; 1
    185a:	31 09       	sbc	r19, r1
    185c:	21 15       	cp	r18, r1
    185e:	31 05       	cpc	r19, r1
    1860:	e9 f0       	breq	.+58     	; 0x189c <_ZN11myScanGaris16ScanSampaiSensorEjh+0x10a>
    1862:	80 91 2d 02 	lds	r24, 0x022D
    1866:	88 23       	and	r24, r24
    1868:	99 f3       	breq	.-26     	; 0x1850 <_ZN11myScanGaris16ScanSampaiSensorEjh+0xbe>
    186a:	e8 94       	clt
    186c:	21 f8       	bld	r2, 1
    186e:	e0 91 2e 02 	lds	r30, 0x022E
    1872:	f0 e0       	ldi	r31, 0x00	; 0
    1874:	e0 5d       	subi	r30, 0xD0	; 208
    1876:	fd 4f       	sbci	r31, 0xFD	; 253
    1878:	80 81       	ld	r24, Z
    187a:	90 91 2e 02 	lds	r25, 0x022E
    187e:	9f 5f       	subi	r25, 0xFF	; 255
    1880:	90 93 2e 02 	sts	0x022E, r25
    1884:	90 31       	cpi	r25, 0x10	; 16
    1886:	11 f4       	brne	.+4      	; 0x188c <_ZN11myScanGaris16ScanSampaiSensorEjh+0xfa>
    1888:	10 92 2e 02 	sts	0x022E, r1
    188c:	f8 94       	cli
    188e:	90 91 2d 02 	lds	r25, 0x022D
    1892:	91 50       	subi	r25, 0x01	; 1
    1894:	90 93 2d 02 	sts	0x022D, r25
    1898:	78 94       	sei
    189a:	ca cf       	rjmp	.-108    	; 0x1830 <_ZN11myScanGaris16ScanSampaiSensorEjh+0x9e>
    189c:	68 94       	set
    189e:	21 f8       	bld	r2, 1
    18a0:	80 e0       	ldi	r24, 0x00	; 0
    18a2:	c6 cf       	rjmp	.-116    	; 0x1830 <_ZN11myScanGaris16ScanSampaiSensorEjh+0x9e>
    18a4:	df 91       	pop	r29
    18a6:	cf 91       	pop	r28
    18a8:	1f 91       	pop	r17
    18aa:	0f 91       	pop	r16
    18ac:	ff 90       	pop	r15
    18ae:	08 95       	ret
    18b0:	6b 81       	ldd	r22, Y+3	; 0x03
    18b2:	7c 81       	ldd	r23, Y+4	; 0x04
    18b4:	06 17       	cp	r16, r22
    18b6:	17 07       	cpc	r17, r23
    18b8:	08 f0       	brcs	.+2      	; 0x18bc <_ZN11myScanGaris16ScanSampaiSensorEjh+0x12a>
    18ba:	7b cf       	rjmp	.-266    	; 0x17b2 <_ZN11myScanGaris16ScanSampaiSensorEjh+0x20>
    18bc:	1c 83       	std	Y+4, r17	; 0x04
    18be:	0b 83       	std	Y+3, r16	; 0x03
    18c0:	b8 01       	movw	r22, r16
    18c2:	77 cf       	rjmp	.-274    	; 0x17b2 <_ZN11myScanGaris16ScanSampaiSensorEjh+0x20>

000018c4 <_ZN11myScanGaris16ScanSelamaSensorEjh>:
    18c4:	ff 92       	push	r15
    18c6:	0f 93       	push	r16
    18c8:	1f 93       	push	r17
    18ca:	cf 93       	push	r28
    18cc:	df 93       	push	r29
    18ce:	ec 01       	movw	r28, r24
    18d0:	8b 01       	movw	r16, r22
    18d2:	f4 2e       	mov	r15, r20
    18d4:	b8 01       	movw	r22, r16
    18d6:	ce 01       	movw	r24, r28
    18d8:	0e 94 87 0a 	call	0x150e	; 0x150e <_ZN11myScanGaris4ScanEj>
    18dc:	98 81       	ld	r25, Y
    18de:	8a 81       	ldd	r24, Y+2	; 0x02
    18e0:	98 2b       	or	r25, r24
    18e2:	80 91 9b 00 	lds	r24, 0x009B
    18e6:	85 ff       	sbrs	r24, 5
    18e8:	fc cf       	rjmp	.-8      	; 0x18e2 <_ZN11myScanGaris16ScanSelamaSensorEjh+0x1e>
    18ea:	90 93 9c 00 	sts	0x009C, r25
    18ee:	28 e8       	ldi	r18, 0x88	; 136
    18f0:	33 e1       	ldi	r19, 0x13	; 19
    18f2:	09 c0       	rjmp	.+18     	; 0x1906 <_ZN11myScanGaris16ScanSelamaSensorEjh+0x42>
    18f4:	85 e0       	ldi	r24, 0x05	; 5
    18f6:	8a 95       	dec	r24
    18f8:	f1 f7       	brne	.-4      	; 0x18f6 <_ZN11myScanGaris16ScanSelamaSensorEjh+0x32>
    18fa:	00 00       	nop
    18fc:	21 50       	subi	r18, 0x01	; 1
    18fe:	31 09       	sbc	r19, r1
    1900:	21 15       	cp	r18, r1
    1902:	31 05       	cpc	r19, r1
    1904:	61 f1       	breq	.+88     	; 0x195e <_ZN11myScanGaris16ScanSelamaSensorEjh+0x9a>
    1906:	80 91 2d 02 	lds	r24, 0x022D
    190a:	88 23       	and	r24, r24
    190c:	99 f3       	breq	.-26     	; 0x18f4 <_ZN11myScanGaris16ScanSelamaSensorEjh+0x30>
    190e:	e8 94       	clt
    1910:	21 f8       	bld	r2, 1
    1912:	e0 91 2e 02 	lds	r30, 0x022E
    1916:	f0 e0       	ldi	r31, 0x00	; 0
    1918:	e0 5d       	subi	r30, 0xD0	; 208
    191a:	fd 4f       	sbci	r31, 0xFD	; 253
    191c:	20 81       	ld	r18, Z
    191e:	80 91 2e 02 	lds	r24, 0x022E
    1922:	8f 5f       	subi	r24, 0xFF	; 255
    1924:	80 93 2e 02 	sts	0x022E, r24
    1928:	80 31       	cpi	r24, 0x10	; 16
    192a:	11 f4       	brne	.+4      	; 0x1930 <_ZN11myScanGaris16ScanSelamaSensorEjh+0x6c>
    192c:	10 92 2e 02 	sts	0x022E, r1
    1930:	f8 94       	cli
    1932:	80 91 2d 02 	lds	r24, 0x022D
    1936:	81 50       	subi	r24, 0x01	; 1
    1938:	80 93 2d 02 	sts	0x022D, r24
    193c:	78 94       	sei
    193e:	82 2f       	mov	r24, r18
    1940:	98 17       	cp	r25, r24
    1942:	91 f0       	breq	.+36     	; 0x1968 <_ZN11myScanGaris16ScanSelamaSensorEjh+0xa4>
    1944:	80 e0       	ldi	r24, 0x00	; 0
    1946:	32 fc       	sbrc	r3, 2
    1948:	80 95       	com	r24
    194a:	8f 21       	and	r24, r15
    194c:	8f 15       	cp	r24, r15
    194e:	09 f4       	brne	.+2      	; 0x1952 <_ZN11myScanGaris16ScanSelamaSensorEjh+0x8e>
    1950:	c1 cf       	rjmp	.-126    	; 0x18d4 <_ZN11myScanGaris16ScanSelamaSensorEjh+0x10>
    1952:	df 91       	pop	r29
    1954:	cf 91       	pop	r28
    1956:	1f 91       	pop	r17
    1958:	0f 91       	pop	r16
    195a:	ff 90       	pop	r15
    195c:	08 95       	ret
    195e:	68 94       	set
    1960:	21 f8       	bld	r2, 1
    1962:	80 e0       	ldi	r24, 0x00	; 0
    1964:	98 13       	cpse	r25, r24
    1966:	ee cf       	rjmp	.-36     	; 0x1944 <_ZN11myScanGaris16ScanSelamaSensorEjh+0x80>
    1968:	28 e8       	ldi	r18, 0x88	; 136
    196a:	33 e1       	ldi	r19, 0x13	; 19
    196c:	09 c0       	rjmp	.+18     	; 0x1980 <_ZN11myScanGaris16ScanSelamaSensorEjh+0xbc>
    196e:	85 e0       	ldi	r24, 0x05	; 5
    1970:	8a 95       	dec	r24
    1972:	f1 f7       	brne	.-4      	; 0x1970 <_ZN11myScanGaris16ScanSelamaSensorEjh+0xac>
    1974:	00 00       	nop
    1976:	21 50       	subi	r18, 0x01	; 1
    1978:	31 09       	sbc	r19, r1
    197a:	21 15       	cp	r18, r1
    197c:	31 05       	cpc	r19, r1
    197e:	e9 f0       	breq	.+58     	; 0x19ba <_ZN11myScanGaris16ScanSelamaSensorEjh+0xf6>
    1980:	80 91 2d 02 	lds	r24, 0x022D
    1984:	88 23       	and	r24, r24
    1986:	99 f3       	breq	.-26     	; 0x196e <_ZN11myScanGaris16ScanSelamaSensorEjh+0xaa>
    1988:	e8 94       	clt
    198a:	21 f8       	bld	r2, 1
    198c:	e0 91 2e 02 	lds	r30, 0x022E
    1990:	f0 e0       	ldi	r31, 0x00	; 0
    1992:	e0 5d       	subi	r30, 0xD0	; 208
    1994:	fd 4f       	sbci	r31, 0xFD	; 253
    1996:	80 81       	ld	r24, Z
    1998:	90 91 2e 02 	lds	r25, 0x022E
    199c:	9f 5f       	subi	r25, 0xFF	; 255
    199e:	90 93 2e 02 	sts	0x022E, r25
    19a2:	90 31       	cpi	r25, 0x10	; 16
    19a4:	11 f4       	brne	.+4      	; 0x19aa <_ZN11myScanGaris16ScanSelamaSensorEjh+0xe6>
    19a6:	10 92 2e 02 	sts	0x022E, r1
    19aa:	f8 94       	cli
    19ac:	90 91 2d 02 	lds	r25, 0x022D
    19b0:	91 50       	subi	r25, 0x01	; 1
    19b2:	90 93 2d 02 	sts	0x022D, r25
    19b6:	78 94       	sei
    19b8:	c6 cf       	rjmp	.-116    	; 0x1946 <_ZN11myScanGaris16ScanSelamaSensorEjh+0x82>
    19ba:	68 94       	set
    19bc:	21 f8       	bld	r2, 1
    19be:	80 e0       	ldi	r24, 0x00	; 0
    19c0:	c2 cf       	rjmp	.-124    	; 0x1946 <_ZN11myScanGaris16ScanSelamaSensorEjh+0x82>

000019c2 <_ZN11myScanGaris10Scan3KananEj>:
    19c2:	cf 93       	push	r28
    19c4:	df 93       	push	r29
    19c6:	ec 01       	movw	r28, r24
    19c8:	47 e0       	ldi	r20, 0x07	; 7
    19ca:	0e 94 c9 0b 	call	0x1792	; 0x1792 <_ZN11myScanGaris16ScanSampaiSensorEjh>
    19ce:	47 e0       	ldi	r20, 0x07	; 7
    19d0:	66 e9       	ldi	r22, 0x96	; 150
    19d2:	70 e0       	ldi	r23, 0x00	; 0
    19d4:	ce 01       	movw	r24, r28
    19d6:	0e 94 62 0c 	call	0x18c4	; 0x18c4 <_ZN11myScanGaris16ScanSelamaSensorEjh>
    19da:	68 94       	set
    19dc:	23 f8       	bld	r2, 3
    19de:	10 92 21 02 	sts	0x0221, r1
    19e2:	10 92 22 02 	sts	0x0222, r1
    19e6:	10 92 85 00 	sts	0x0085, r1
    19ea:	10 92 84 00 	sts	0x0084, r1
    19ee:	10 92 87 00 	sts	0x0087, r1
    19f2:	10 92 86 00 	sts	0x0086, r1
    19f6:	22 fe       	sbrs	r2, 2
    19f8:	05 c0       	rjmp	.+10     	; 0x1a04 <_ZN11myScanGaris10Scan3KananEj+0x42>
    19fa:	e8 94       	clt
    19fc:	30 f8       	bld	r3, 0
    19fe:	df 91       	pop	r29
    1a00:	cf 91       	pop	r28
    1a02:	08 95       	ret
    1a04:	68 94       	set
    1a06:	22 f8       	bld	r2, 2
    1a08:	80 e2       	ldi	r24, 0x20	; 32
    1a0a:	87 b9       	out	0x07, r24	; 7
    1a0c:	85 e3       	ldi	r24, 0x35	; 53
    1a0e:	8a 95       	dec	r24
    1a10:	f1 f7       	brne	.-4      	; 0x1a0e <_ZN11myScanGaris10Scan3KananEj+0x4c>
    1a12:	00 00       	nop
    1a14:	36 9a       	sbi	0x06, 6	; 6
    1a16:	34 9b       	sbis	0x06, 4	; 6
    1a18:	fe cf       	rjmp	.-4      	; 0x1a16 <_ZN11myScanGaris10Scan3KananEj+0x54>
    1a1a:	34 9a       	sbi	0x06, 4	; 6
    1a1c:	e8 94       	clt
    1a1e:	22 f8       	bld	r2, 2
    1a20:	85 b1       	in	r24, 0x05	; 5
    1a22:	84 36       	cpi	r24, 0x64	; 100
    1a24:	50 f7       	brcc	.-44     	; 0x19fa <_ZN11myScanGaris10Scan3KananEj+0x38>
    1a26:	0e 94 70 03 	call	0x6e0	; 0x6e0 <_ZN5myADC9CekBatereEv.part.6>

00001a2a <_ZN11myScanGaris9Scan3KiriEj>:
    1a2a:	cf 93       	push	r28
    1a2c:	df 93       	push	r29
    1a2e:	ec 01       	movw	r28, r24
    1a30:	40 ee       	ldi	r20, 0xE0	; 224
    1a32:	0e 94 c9 0b 	call	0x1792	; 0x1792 <_ZN11myScanGaris16ScanSampaiSensorEjh>
    1a36:	40 ee       	ldi	r20, 0xE0	; 224
    1a38:	66 e9       	ldi	r22, 0x96	; 150
    1a3a:	70 e0       	ldi	r23, 0x00	; 0
    1a3c:	ce 01       	movw	r24, r28
    1a3e:	0e 94 62 0c 	call	0x18c4	; 0x18c4 <_ZN11myScanGaris16ScanSelamaSensorEjh>
    1a42:	68 94       	set
    1a44:	23 f8       	bld	r2, 3
    1a46:	10 92 21 02 	sts	0x0221, r1
    1a4a:	10 92 22 02 	sts	0x0222, r1
    1a4e:	10 92 85 00 	sts	0x0085, r1
    1a52:	10 92 84 00 	sts	0x0084, r1
    1a56:	10 92 87 00 	sts	0x0087, r1
    1a5a:	10 92 86 00 	sts	0x0086, r1
    1a5e:	22 fe       	sbrs	r2, 2
    1a60:	05 c0       	rjmp	.+10     	; 0x1a6c <_ZN11myScanGaris9Scan3KiriEj+0x42>
    1a62:	e8 94       	clt
    1a64:	30 f8       	bld	r3, 0
    1a66:	df 91       	pop	r29
    1a68:	cf 91       	pop	r28
    1a6a:	08 95       	ret
    1a6c:	68 94       	set
    1a6e:	22 f8       	bld	r2, 2
    1a70:	80 e2       	ldi	r24, 0x20	; 32
    1a72:	87 b9       	out	0x07, r24	; 7
    1a74:	85 e3       	ldi	r24, 0x35	; 53
    1a76:	8a 95       	dec	r24
    1a78:	f1 f7       	brne	.-4      	; 0x1a76 <_ZN11myScanGaris9Scan3KiriEj+0x4c>
    1a7a:	00 00       	nop
    1a7c:	36 9a       	sbi	0x06, 6	; 6
    1a7e:	34 9b       	sbis	0x06, 4	; 6
    1a80:	fe cf       	rjmp	.-4      	; 0x1a7e <_ZN11myScanGaris9Scan3KiriEj+0x54>
    1a82:	34 9a       	sbi	0x06, 4	; 6
    1a84:	e8 94       	clt
    1a86:	22 f8       	bld	r2, 2
    1a88:	85 b1       	in	r24, 0x05	; 5
    1a8a:	84 36       	cpi	r24, 0x64	; 100
    1a8c:	50 f7       	brcc	.-44     	; 0x1a62 <_ZN11myScanGaris9Scan3KiriEj+0x38>
    1a8e:	0e 94 70 03 	call	0x6e0	; 0x6e0 <_ZN5myADC9CekBatereEv.part.6>

00001a92 <_ZN11myScanGaris10Scan2KananEj>:
    1a92:	cf 93       	push	r28
    1a94:	df 93       	push	r29
    1a96:	ec 01       	movw	r28, r24
    1a98:	43 e0       	ldi	r20, 0x03	; 3
    1a9a:	0e 94 c9 0b 	call	0x1792	; 0x1792 <_ZN11myScanGaris16ScanSampaiSensorEjh>
    1a9e:	43 e0       	ldi	r20, 0x03	; 3
    1aa0:	66 e9       	ldi	r22, 0x96	; 150
    1aa2:	70 e0       	ldi	r23, 0x00	; 0
    1aa4:	ce 01       	movw	r24, r28
    1aa6:	0e 94 62 0c 	call	0x18c4	; 0x18c4 <_ZN11myScanGaris16ScanSelamaSensorEjh>
    1aaa:	68 94       	set
    1aac:	23 f8       	bld	r2, 3
    1aae:	10 92 21 02 	sts	0x0221, r1
    1ab2:	10 92 22 02 	sts	0x0222, r1
    1ab6:	10 92 85 00 	sts	0x0085, r1
    1aba:	10 92 84 00 	sts	0x0084, r1
    1abe:	10 92 87 00 	sts	0x0087, r1
    1ac2:	10 92 86 00 	sts	0x0086, r1
    1ac6:	22 fe       	sbrs	r2, 2
    1ac8:	05 c0       	rjmp	.+10     	; 0x1ad4 <_ZN11myScanGaris10Scan2KananEj+0x42>
    1aca:	e8 94       	clt
    1acc:	30 f8       	bld	r3, 0
    1ace:	df 91       	pop	r29
    1ad0:	cf 91       	pop	r28
    1ad2:	08 95       	ret
    1ad4:	68 94       	set
    1ad6:	22 f8       	bld	r2, 2
    1ad8:	80 e2       	ldi	r24, 0x20	; 32
    1ada:	87 b9       	out	0x07, r24	; 7
    1adc:	85 e3       	ldi	r24, 0x35	; 53
    1ade:	8a 95       	dec	r24
    1ae0:	f1 f7       	brne	.-4      	; 0x1ade <_ZN11myScanGaris10Scan2KananEj+0x4c>
    1ae2:	00 00       	nop
    1ae4:	36 9a       	sbi	0x06, 6	; 6
    1ae6:	34 9b       	sbis	0x06, 4	; 6
    1ae8:	fe cf       	rjmp	.-4      	; 0x1ae6 <_ZN11myScanGaris10Scan2KananEj+0x54>
    1aea:	34 9a       	sbi	0x06, 4	; 6
    1aec:	e8 94       	clt
    1aee:	22 f8       	bld	r2, 2
    1af0:	85 b1       	in	r24, 0x05	; 5
    1af2:	84 36       	cpi	r24, 0x64	; 100
    1af4:	50 f7       	brcc	.-44     	; 0x1aca <_ZN11myScanGaris10Scan2KananEj+0x38>
    1af6:	0e 94 70 03 	call	0x6e0	; 0x6e0 <_ZN5myADC9CekBatereEv.part.6>

00001afa <_ZN11myScanGaris9Scan2KiriEj>:
    1afa:	cf 93       	push	r28
    1afc:	df 93       	push	r29
    1afe:	ec 01       	movw	r28, r24
    1b00:	40 ec       	ldi	r20, 0xC0	; 192
    1b02:	0e 94 c9 0b 	call	0x1792	; 0x1792 <_ZN11myScanGaris16ScanSampaiSensorEjh>
    1b06:	40 ec       	ldi	r20, 0xC0	; 192
    1b08:	66 e9       	ldi	r22, 0x96	; 150
    1b0a:	70 e0       	ldi	r23, 0x00	; 0
    1b0c:	ce 01       	movw	r24, r28
    1b0e:	0e 94 62 0c 	call	0x18c4	; 0x18c4 <_ZN11myScanGaris16ScanSelamaSensorEjh>
    1b12:	68 94       	set
    1b14:	23 f8       	bld	r2, 3
    1b16:	10 92 21 02 	sts	0x0221, r1
    1b1a:	10 92 22 02 	sts	0x0222, r1
    1b1e:	10 92 85 00 	sts	0x0085, r1
    1b22:	10 92 84 00 	sts	0x0084, r1
    1b26:	10 92 87 00 	sts	0x0087, r1
    1b2a:	10 92 86 00 	sts	0x0086, r1
    1b2e:	22 fe       	sbrs	r2, 2
    1b30:	05 c0       	rjmp	.+10     	; 0x1b3c <_ZN11myScanGaris9Scan2KiriEj+0x42>
    1b32:	e8 94       	clt
    1b34:	30 f8       	bld	r3, 0
    1b36:	df 91       	pop	r29
    1b38:	cf 91       	pop	r28
    1b3a:	08 95       	ret
    1b3c:	68 94       	set
    1b3e:	22 f8       	bld	r2, 2
    1b40:	80 e2       	ldi	r24, 0x20	; 32
    1b42:	87 b9       	out	0x07, r24	; 7
    1b44:	85 e3       	ldi	r24, 0x35	; 53
    1b46:	8a 95       	dec	r24
    1b48:	f1 f7       	brne	.-4      	; 0x1b46 <_ZN11myScanGaris9Scan2KiriEj+0x4c>
    1b4a:	00 00       	nop
    1b4c:	36 9a       	sbi	0x06, 6	; 6
    1b4e:	34 9b       	sbis	0x06, 4	; 6
    1b50:	fe cf       	rjmp	.-4      	; 0x1b4e <_ZN11myScanGaris9Scan2KiriEj+0x54>
    1b52:	34 9a       	sbi	0x06, 4	; 6
    1b54:	e8 94       	clt
    1b56:	22 f8       	bld	r2, 2
    1b58:	85 b1       	in	r24, 0x05	; 5
    1b5a:	84 36       	cpi	r24, 0x64	; 100
    1b5c:	50 f7       	brcc	.-44     	; 0x1b32 <_ZN11myScanGaris9Scan2KiriEj+0x38>
    1b5e:	0e 94 70 03 	call	0x6e0	; 0x6e0 <_ZN5myADC9CekBatereEv.part.6>

00001b62 <_ZN11myScanGaris11Scan3TengahEj>:
    1b62:	cf 92       	push	r12
    1b64:	df 92       	push	r13
    1b66:	ef 92       	push	r14
    1b68:	ff 92       	push	r15
    1b6a:	0f 93       	push	r16
    1b6c:	1f 93       	push	r17
    1b6e:	cf 93       	push	r28
    1b70:	df 93       	push	r29
    1b72:	ec 01       	movw	r28, r24
    1b74:	8b 01       	movw	r16, r22
    1b76:	30 fe       	sbrs	r3, 0
    1b78:	74 c1       	rjmp	.+744    	; 0x1e62 <_ZN11myScanGaris11Scan3TengahEj+0x300>
    1b7a:	80 e5       	ldi	r24, 0x50	; 80
    1b7c:	90 e0       	ldi	r25, 0x00	; 0
    1b7e:	9c 83       	std	Y+4, r25	; 0x04
    1b80:	8b 83       	std	Y+3, r24	; 0x03
    1b82:	60 e5       	ldi	r22, 0x50	; 80
    1b84:	70 e0       	ldi	r23, 0x00	; 0
    1b86:	05 c0       	rjmp	.+10     	; 0x1b92 <_ZN11myScanGaris11Scan3TengahEj+0x30>
    1b88:	8c 71       	andi	r24, 0x1C	; 28
    1b8a:	8c 31       	cpi	r24, 0x1C	; 28
    1b8c:	b1 f0       	breq	.+44     	; 0x1bba <_ZN11myScanGaris11Scan3TengahEj+0x58>
    1b8e:	6b 81       	ldd	r22, Y+3	; 0x03
    1b90:	7c 81       	ldd	r23, Y+4	; 0x04
    1b92:	60 17       	cp	r22, r16
    1b94:	71 07       	cpc	r23, r17
    1b96:	20 f4       	brcc	.+8      	; 0x1ba0 <_ZN11myScanGaris11Scan3TengahEj+0x3e>
    1b98:	6b 5f       	subi	r22, 0xFB	; 251
    1b9a:	7f 4f       	sbci	r23, 0xFF	; 255
    1b9c:	7c 83       	std	Y+4, r23	; 0x04
    1b9e:	6b 83       	std	Y+3, r22	; 0x03
    1ba0:	ce 01       	movw	r24, r28
    1ba2:	0e 94 87 0a 	call	0x150e	; 0x150e <_ZN11myScanGaris4ScanEj>
    1ba6:	6a 81       	ldd	r22, Y+2	; 0x02
    1ba8:	88 81       	ld	r24, Y
    1baa:	0e 94 78 00 	call	0xf0	; 0xf0 <_ZN13mySensorGaris9BacaGarisEhh.constprop.12>
    1bae:	32 fc       	sbrc	r3, 2
    1bb0:	80 95       	com	r24
    1bb2:	98 2f       	mov	r25, r24
    1bb4:	98 73       	andi	r25, 0x38	; 56
    1bb6:	98 33       	cpi	r25, 0x38	; 56
    1bb8:	39 f7       	brne	.-50     	; 0x1b88 <_ZN11myScanGaris11Scan3TengahEj+0x26>
    1bba:	05 e1       	ldi	r16, 0x15	; 21
    1bbc:	fd e1       	ldi	r31, 0x1D	; 29
    1bbe:	ef 2e       	mov	r14, r31
    1bc0:	a5 e3       	ldi	r26, 0x35	; 53
    1bc2:	ca 2e       	mov	r12, r26
    1bc4:	bd e3       	ldi	r27, 0x3D	; 61
    1bc6:	db 2e       	mov	r13, r27
    1bc8:	15 e0       	ldi	r17, 0x05	; 5
    1bca:	8d e0       	ldi	r24, 0x0D	; 13
    1bcc:	f8 2e       	mov	r15, r24
    1bce:	69 81       	ldd	r22, Y+1	; 0x01
    1bd0:	88 81       	ld	r24, Y
    1bd2:	0e 94 78 00 	call	0xf0	; 0xf0 <_ZN13mySensorGaris9BacaGarisEhh.constprop.12>
    1bd6:	31 fc       	sbrc	r3, 1
    1bd8:	80 95       	com	r24
    1bda:	d8 98       	cbi	0x1b, 0	; 27
    1bdc:	20 fe       	sbrs	r2, 0
    1bde:	f3 c0       	rjmp	.+486    	; 0x1dc6 <_ZN11myScanGaris11Scan3TengahEj+0x264>
    1be0:	9c e8       	ldi	r25, 0x8C	; 140
    1be2:	9b bb       	out	0x1b, r25	; 27
    1be4:	35 e0       	ldi	r19, 0x05	; 5
    1be6:	3a 95       	dec	r19
    1be8:	f1 f7       	brne	.-4      	; 0x1be6 <_ZN11myScanGaris11Scan3TengahEj+0x84>
    1bea:	00 00       	nop
    1bec:	da 98       	cbi	0x1b, 2	; 27
    1bee:	4a e1       	ldi	r20, 0x1A	; 26
    1bf0:	4a 95       	dec	r20
    1bf2:	f1 f7       	brne	.-4      	; 0x1bf0 <_ZN11myScanGaris11Scan3TengahEj+0x8e>
    1bf4:	00 c0       	rjmp	.+0      	; 0x1bf6 <_ZN11myScanGaris11Scan3TengahEj+0x94>
    1bf6:	20 fc       	sbrc	r2, 0
    1bf8:	fc c0       	rjmp	.+504    	; 0x1df2 <_ZN11myScanGaris11Scan3TengahEj+0x290>
    1bfa:	94 e0       	ldi	r25, 0x04	; 4
    1bfc:	9b bb       	out	0x1b, r25	; 27
    1bfe:	95 e0       	ldi	r25, 0x05	; 5
    1c00:	9a 95       	dec	r25
    1c02:	f1 f7       	brne	.-4      	; 0x1c00 <_ZN11myScanGaris11Scan3TengahEj+0x9e>
    1c04:	00 00       	nop
    1c06:	da 98       	cbi	0x1b, 2	; 27
    1c08:	ef ee       	ldi	r30, 0xEF	; 239
    1c0a:	fa e0       	ldi	r31, 0x0A	; 10
    1c0c:	31 97       	sbiw	r30, 0x01	; 1
    1c0e:	f1 f7       	brne	.-4      	; 0x1c0c <_ZN11myScanGaris11Scan3TengahEj+0xaa>
    1c10:	00 c0       	rjmp	.+0      	; 0x1c12 <_ZN11myScanGaris11Scan3TengahEj+0xb0>
    1c12:	00 00       	nop
    1c14:	da 9a       	sbi	0x1b, 2	; 27
    1c16:	68 2f       	mov	r22, r24
    1c18:	70 e0       	ldi	r23, 0x00	; 0
    1c1a:	27 e0       	ldi	r18, 0x07	; 7
    1c1c:	30 e0       	ldi	r19, 0x00	; 0
    1c1e:	92 2d       	mov	r25, r2
    1c20:	91 70       	andi	r25, 0x01	; 1
    1c22:	1d c0       	rjmp	.+58     	; 0x1c5e <_ZN11myScanGaris11Scan3TengahEj+0xfc>
    1c24:	99 23       	and	r25, r25
    1c26:	09 f4       	brne	.+2      	; 0x1c2a <_ZN11myScanGaris11Scan3TengahEj+0xc8>
    1c28:	c6 c0       	rjmp	.+396    	; 0x1db6 <_ZN11myScanGaris11Scan3TengahEj+0x254>
    1c2a:	db ba       	out	0x1b, r13	; 27
    1c2c:	f5 e0       	ldi	r31, 0x05	; 5
    1c2e:	fa 95       	dec	r31
    1c30:	f1 f7       	brne	.-4      	; 0x1c2e <_ZN11myScanGaris11Scan3TengahEj+0xcc>
    1c32:	00 00       	nop
    1c34:	da 98       	cbi	0x1b, 2	; 27
    1c36:	4a e1       	ldi	r20, 0x1A	; 26
    1c38:	4a 95       	dec	r20
    1c3a:	f1 f7       	brne	.-4      	; 0x1c38 <_ZN11myScanGaris11Scan3TengahEj+0xd6>
    1c3c:	00 c0       	rjmp	.+0      	; 0x1c3e <_ZN11myScanGaris11Scan3TengahEj+0xdc>
    1c3e:	91 11       	cpse	r25, r1
    1c40:	be c0       	rjmp	.+380    	; 0x1dbe <_ZN11myScanGaris11Scan3TengahEj+0x25c>
    1c42:	1b bb       	out	0x1b, r17	; 27
    1c44:	e5 e0       	ldi	r30, 0x05	; 5
    1c46:	ea 95       	dec	r30
    1c48:	f1 f7       	brne	.-4      	; 0x1c46 <_ZN11myScanGaris11Scan3TengahEj+0xe4>
    1c4a:	00 00       	nop
    1c4c:	da 98       	cbi	0x1b, 2	; 27
    1c4e:	f5 ed       	ldi	r31, 0xD5	; 213
    1c50:	fa 95       	dec	r31
    1c52:	f1 f7       	brne	.-4      	; 0x1c50 <_ZN11myScanGaris11Scan3TengahEj+0xee>
    1c54:	00 00       	nop
    1c56:	da 9a       	sbi	0x1b, 2	; 27
    1c58:	21 50       	subi	r18, 0x01	; 1
    1c5a:	31 09       	sbc	r19, r1
    1c5c:	38 f1       	brcs	.+78     	; 0x1cac <_ZN11myScanGaris11Scan3TengahEj+0x14a>
    1c5e:	ab 01       	movw	r20, r22
    1c60:	02 2e       	mov	r0, r18
    1c62:	02 c0       	rjmp	.+4      	; 0x1c68 <_ZN11myScanGaris11Scan3TengahEj+0x106>
    1c64:	55 95       	asr	r21
    1c66:	47 95       	ror	r20
    1c68:	0a 94       	dec	r0
    1c6a:	e2 f7       	brpl	.-8      	; 0x1c64 <_ZN11myScanGaris11Scan3TengahEj+0x102>
    1c6c:	d8 9a       	sbi	0x1b, 0	; 27
    1c6e:	40 ff       	sbrs	r20, 0
    1c70:	d9 cf       	rjmp	.-78     	; 0x1c24 <_ZN11myScanGaris11Scan3TengahEj+0xc2>
    1c72:	99 23       	and	r25, r25
    1c74:	09 f4       	brne	.+2      	; 0x1c78 <_ZN11myScanGaris11Scan3TengahEj+0x116>
    1c76:	a1 c0       	rjmp	.+322    	; 0x1dba <_ZN11myScanGaris11Scan3TengahEj+0x258>
    1c78:	db ba       	out	0x1b, r13	; 27
    1c7a:	45 e0       	ldi	r20, 0x05	; 5
    1c7c:	4a 95       	dec	r20
    1c7e:	f1 f7       	brne	.-4      	; 0x1c7c <_ZN11myScanGaris11Scan3TengahEj+0x11a>
    1c80:	00 00       	nop
    1c82:	da 98       	cbi	0x1b, 2	; 27
    1c84:	ea e1       	ldi	r30, 0x1A	; 26
    1c86:	ea 95       	dec	r30
    1c88:	f1 f7       	brne	.-4      	; 0x1c86 <_ZN11myScanGaris11Scan3TengahEj+0x124>
    1c8a:	00 c0       	rjmp	.+0      	; 0x1c8c <_ZN11myScanGaris11Scan3TengahEj+0x12a>
    1c8c:	91 11       	cpse	r25, r1
    1c8e:	99 c0       	rjmp	.+306    	; 0x1dc2 <_ZN11myScanGaris11Scan3TengahEj+0x260>
    1c90:	0b bb       	out	0x1b, r16	; 27
    1c92:	f5 e0       	ldi	r31, 0x05	; 5
    1c94:	fa 95       	dec	r31
    1c96:	f1 f7       	brne	.-4      	; 0x1c94 <_ZN11myScanGaris11Scan3TengahEj+0x132>
    1c98:	00 00       	nop
    1c9a:	da 98       	cbi	0x1b, 2	; 27
    1c9c:	45 ed       	ldi	r20, 0xD5	; 213
    1c9e:	4a 95       	dec	r20
    1ca0:	f1 f7       	brne	.-4      	; 0x1c9e <_ZN11myScanGaris11Scan3TengahEj+0x13c>
    1ca2:	00 00       	nop
    1ca4:	da 9a       	sbi	0x1b, 2	; 27
    1ca6:	21 50       	subi	r18, 0x01	; 1
    1ca8:	31 09       	sbc	r19, r1
    1caa:	c8 f6       	brcc	.-78     	; 0x1c5e <_ZN11myScanGaris11Scan3TengahEj+0xfc>
    1cac:	80 31       	cpi	r24, 0x10	; 16
    1cae:	09 f4       	brne	.+2      	; 0x1cb2 <_ZN11myScanGaris11Scan3TengahEj+0x150>
    1cb0:	ce c0       	rjmp	.+412    	; 0x1e4e <_ZN11myScanGaris11Scan3TengahEj+0x2ec>
    1cb2:	08 f0       	brcs	.+2      	; 0x1cb6 <_ZN11myScanGaris11Scan3TengahEj+0x154>
    1cb4:	92 c0       	rjmp	.+292    	; 0x1dda <_ZN11myScanGaris11Scan3TengahEj+0x278>
    1cb6:	84 30       	cpi	r24, 0x04	; 4
    1cb8:	09 f4       	brne	.+2      	; 0x1cbc <_ZN11myScanGaris11Scan3TengahEj+0x15a>
    1cba:	bf c0       	rjmp	.+382    	; 0x1e3a <_ZN11myScanGaris11Scan3TengahEj+0x2d8>
    1cbc:	08 f4       	brcc	.+2      	; 0x1cc0 <_ZN11myScanGaris11Scan3TengahEj+0x15e>
    1cbe:	af c0       	rjmp	.+350    	; 0x1e1e <_ZN11myScanGaris11Scan3TengahEj+0x2bc>
    1cc0:	88 30       	cpi	r24, 0x08	; 8
    1cc2:	09 f4       	brne	.+2      	; 0x1cc6 <_ZN11myScanGaris11Scan3TengahEj+0x164>
    1cc4:	bc c0       	rjmp	.+376    	; 0x1e3e <_ZN11myScanGaris11Scan3TengahEj+0x2dc>
    1cc6:	8c 30       	cpi	r24, 0x0C	; 12
    1cc8:	09 f4       	brne	.+2      	; 0x1ccc <_ZN11myScanGaris11Scan3TengahEj+0x16a>
    1cca:	bf c0       	rjmp	.+382    	; 0x1e4a <_ZN11myScanGaris11Scan3TengahEj+0x2e8>
    1ccc:	86 30       	cpi	r24, 0x06	; 6
    1cce:	09 f4       	brne	.+2      	; 0x1cd2 <_ZN11myScanGaris11Scan3TengahEj+0x170>
    1cd0:	ba c0       	rjmp	.+372    	; 0x1e46 <_ZN11myScanGaris11Scan3TengahEj+0x2e4>
    1cd2:	90 91 45 02 	lds	r25, 0x0245
    1cd6:	8d 81       	ldd	r24, Y+5	; 0x05
    1cd8:	89 0f       	add	r24, r25
    1cda:	80 93 45 02 	sts	0x0245, r24
    1cde:	90 91 44 02 	lds	r25, 0x0244
    1ce2:	28 2f       	mov	r18, r24
    1ce4:	29 1b       	sub	r18, r25
    1ce6:	80 93 44 02 	sts	0x0244, r24
    1cea:	fd e0       	ldi	r31, 0x0D	; 13
    1cec:	8f 02       	muls	r24, r31
    1cee:	c0 01       	movw	r24, r0
    1cf0:	11 24       	eor	r1, r1
    1cf2:	34 e6       	ldi	r19, 0x64	; 100
    1cf4:	23 02       	muls	r18, r19
    1cf6:	80 0d       	add	r24, r0
    1cf8:	91 1d       	adc	r25, r1
    1cfa:	11 24       	eor	r1, r1
    1cfc:	28 81       	ld	r18, Y
    1cfe:	ac 01       	movw	r20, r24
    1d00:	21 11       	cpse	r18, r1
    1d02:	64 c0       	rjmp	.+200    	; 0x1dcc <_ZN11myScanGaris11Scan3TengahEj+0x26a>
    1d04:	4c 59       	subi	r20, 0x9C	; 156
    1d06:	5f 4f       	sbci	r21, 0xFF	; 255
    1d08:	24 e6       	ldi	r18, 0x64	; 100
    1d0a:	30 e0       	ldi	r19, 0x00	; 0
    1d0c:	28 1b       	sub	r18, r24
    1d0e:	39 0b       	sbc	r19, r25
    1d10:	ca 01       	movw	r24, r20
    1d12:	80 37       	cpi	r24, 0x70	; 112
    1d14:	4e ef       	ldi	r20, 0xFE	; 254
    1d16:	94 07       	cpc	r25, r20
    1d18:	14 f4       	brge	.+4      	; 0x1d1e <_ZN11myScanGaris11Scan3TengahEj+0x1bc>
    1d1a:	80 e7       	ldi	r24, 0x70	; 112
    1d1c:	9e ef       	ldi	r25, 0xFE	; 254
    1d1e:	81 39       	cpi	r24, 0x91	; 145
    1d20:	e1 e0       	ldi	r30, 0x01	; 1
    1d22:	9e 07       	cpc	r25, r30
    1d24:	14 f0       	brlt	.+4      	; 0x1d2a <_ZN11myScanGaris11Scan3TengahEj+0x1c8>
    1d26:	80 e9       	ldi	r24, 0x90	; 144
    1d28:	91 e0       	ldi	r25, 0x01	; 1
    1d2a:	20 37       	cpi	r18, 0x70	; 112
    1d2c:	fe ef       	ldi	r31, 0xFE	; 254
    1d2e:	3f 07       	cpc	r19, r31
    1d30:	14 f4       	brge	.+4      	; 0x1d36 <_ZN11myScanGaris11Scan3TengahEj+0x1d4>
    1d32:	20 e7       	ldi	r18, 0x70	; 112
    1d34:	3e ef       	ldi	r19, 0xFE	; 254
    1d36:	21 39       	cpi	r18, 0x91	; 145
    1d38:	41 e0       	ldi	r20, 0x01	; 1
    1d3a:	34 07       	cpc	r19, r20
    1d3c:	14 f0       	brlt	.+4      	; 0x1d42 <_ZN11myScanGaris11Scan3TengahEj+0x1e0>
    1d3e:	20 e9       	ldi	r18, 0x90	; 144
    1d40:	31 e0       	ldi	r19, 0x01	; 1
    1d42:	e8 94       	clt
    1d44:	23 f8       	bld	r2, 3
    1d46:	97 fd       	sbrc	r25, 7
    1d48:	57 c0       	rjmp	.+174    	; 0x1df8 <_ZN11myScanGaris11Scan3TengahEj+0x296>
    1d4a:	90 93 85 00 	sts	0x0085, r25
    1d4e:	80 93 84 00 	sts	0x0084, r24
    1d52:	1d 9a       	sbi	0x03, 5	; 3
    1d54:	37 fd       	sbrc	r19, 7
    1d56:	5a c0       	rjmp	.+180    	; 0x1e0c <_ZN11myScanGaris11Scan3TengahEj+0x2aa>
    1d58:	30 93 87 00 	sts	0x0087, r19
    1d5c:	20 93 86 00 	sts	0x0086, r18
    1d60:	1a 9a       	sbi	0x03, 2	; 3
    1d62:	6a 81       	ldd	r22, Y+2	; 0x02
    1d64:	88 81       	ld	r24, Y
    1d66:	0e 94 78 00 	call	0xf0	; 0xf0 <_ZN13mySensorGaris9BacaGarisEhh.constprop.12>
    1d6a:	32 fc       	sbrc	r3, 2
    1d6c:	80 95       	com	r24
    1d6e:	98 2f       	mov	r25, r24
    1d70:	98 73       	andi	r25, 0x38	; 56
    1d72:	98 33       	cpi	r25, 0x38	; 56
    1d74:	09 f4       	brne	.+2      	; 0x1d78 <_ZN11myScanGaris11Scan3TengahEj+0x216>
    1d76:	2b cf       	rjmp	.-426    	; 0x1bce <_ZN11myScanGaris11Scan3TengahEj+0x6c>
    1d78:	8c 71       	andi	r24, 0x1C	; 28
    1d7a:	8c 31       	cpi	r24, 0x1C	; 28
    1d7c:	09 f4       	brne	.+2      	; 0x1d80 <_ZN11myScanGaris11Scan3TengahEj+0x21e>
    1d7e:	27 cf       	rjmp	.-434    	; 0x1bce <_ZN11myScanGaris11Scan3TengahEj+0x6c>
    1d80:	68 94       	set
    1d82:	23 f8       	bld	r2, 3
    1d84:	10 92 21 02 	sts	0x0221, r1
    1d88:	10 92 22 02 	sts	0x0222, r1
    1d8c:	10 92 85 00 	sts	0x0085, r1
    1d90:	10 92 84 00 	sts	0x0084, r1
    1d94:	10 92 87 00 	sts	0x0087, r1
    1d98:	10 92 86 00 	sts	0x0086, r1
    1d9c:	22 fe       	sbrs	r2, 2
    1d9e:	6b c0       	rjmp	.+214    	; 0x1e76 <_ZN11myScanGaris11Scan3TengahEj+0x314>
    1da0:	e8 94       	clt
    1da2:	30 f8       	bld	r3, 0
    1da4:	df 91       	pop	r29
    1da6:	cf 91       	pop	r28
    1da8:	1f 91       	pop	r17
    1daa:	0f 91       	pop	r16
    1dac:	ff 90       	pop	r15
    1dae:	ef 90       	pop	r14
    1db0:	df 90       	pop	r13
    1db2:	cf 90       	pop	r12
    1db4:	08 95       	ret
    1db6:	cb ba       	out	0x1b, r12	; 27
    1db8:	39 cf       	rjmp	.-398    	; 0x1c2c <_ZN11myScanGaris11Scan3TengahEj+0xca>
    1dba:	cb ba       	out	0x1b, r12	; 27
    1dbc:	5e cf       	rjmp	.-324    	; 0x1c7a <_ZN11myScanGaris11Scan3TengahEj+0x118>
    1dbe:	fb ba       	out	0x1b, r15	; 27
    1dc0:	41 cf       	rjmp	.-382    	; 0x1c44 <_ZN11myScanGaris11Scan3TengahEj+0xe2>
    1dc2:	eb ba       	out	0x1b, r14	; 27
    1dc4:	66 cf       	rjmp	.-308    	; 0x1c92 <_ZN11myScanGaris11Scan3TengahEj+0x130>
    1dc6:	94 e8       	ldi	r25, 0x84	; 132
    1dc8:	9b bb       	out	0x1b, r25	; 27
    1dca:	0c cf       	rjmp	.-488    	; 0x1be4 <_ZN11myScanGaris11Scan3TengahEj+0x82>
    1dcc:	44 56       	subi	r20, 0x64	; 100
    1dce:	51 09       	sbc	r21, r1
    1dd0:	2c e9       	ldi	r18, 0x9C	; 156
    1dd2:	3f ef       	ldi	r19, 0xFF	; 255
    1dd4:	28 1b       	sub	r18, r24
    1dd6:	39 0b       	sbc	r19, r25
    1dd8:	9b cf       	rjmp	.-202    	; 0x1d10 <_ZN11myScanGaris11Scan3TengahEj+0x1ae>
    1dda:	80 33       	cpi	r24, 0x30	; 48
    1ddc:	f1 f1       	breq	.+124    	; 0x1e5a <_ZN11myScanGaris11Scan3TengahEj+0x2f8>
    1dde:	30 f1       	brcs	.+76     	; 0x1e2c <_ZN11myScanGaris11Scan3TengahEj+0x2ca>
    1de0:	80 36       	cpi	r24, 0x60	; 96
    1de2:	c9 f1       	breq	.+114    	; 0x1e56 <_ZN11myScanGaris11Scan3TengahEj+0x2f4>
    1de4:	80 3c       	cpi	r24, 0xC0	; 192
    1de6:	a9 f1       	breq	.+106    	; 0x1e52 <_ZN11myScanGaris11Scan3TengahEj+0x2f0>
    1de8:	80 34       	cpi	r24, 0x40	; 64
    1dea:	09 f0       	breq	.+2      	; 0x1dee <_ZN11myScanGaris11Scan3TengahEj+0x28c>
    1dec:	72 cf       	rjmp	.-284    	; 0x1cd2 <_ZN11myScanGaris11Scan3TengahEj+0x170>
    1dee:	9b ef       	ldi	r25, 0xFB	; 251
    1df0:	72 cf       	rjmp	.-284    	; 0x1cd6 <_ZN11myScanGaris11Scan3TengahEj+0x174>
    1df2:	9c e0       	ldi	r25, 0x0C	; 12
    1df4:	9b bb       	out	0x1b, r25	; 27
    1df6:	03 cf       	rjmp	.-506    	; 0x1bfe <_ZN11myScanGaris11Scan3TengahEj+0x9c>
    1df8:	91 95       	neg	r25
    1dfa:	81 95       	neg	r24
    1dfc:	91 09       	sbc	r25, r1
    1dfe:	90 93 85 00 	sts	0x0085, r25
    1e02:	80 93 84 00 	sts	0x0084, r24
    1e06:	1d 98       	cbi	0x03, 5	; 3
    1e08:	37 ff       	sbrs	r19, 7
    1e0a:	a6 cf       	rjmp	.-180    	; 0x1d58 <_ZN11myScanGaris11Scan3TengahEj+0x1f6>
    1e0c:	31 95       	neg	r19
    1e0e:	21 95       	neg	r18
    1e10:	31 09       	sbc	r19, r1
    1e12:	30 93 87 00 	sts	0x0087, r19
    1e16:	20 93 86 00 	sts	0x0086, r18
    1e1a:	1a 98       	cbi	0x03, 2	; 3
    1e1c:	a2 cf       	rjmp	.-188    	; 0x1d62 <_ZN11myScanGaris11Scan3TengahEj+0x200>
    1e1e:	82 30       	cpi	r24, 0x02	; 2
    1e20:	f1 f0       	breq	.+60     	; 0x1e5e <_ZN11myScanGaris11Scan3TengahEj+0x2fc>
    1e22:	83 30       	cpi	r24, 0x03	; 3
    1e24:	09 f0       	breq	.+2      	; 0x1e28 <_ZN11myScanGaris11Scan3TengahEj+0x2c6>
    1e26:	55 cf       	rjmp	.-342    	; 0x1cd2 <_ZN11myScanGaris11Scan3TengahEj+0x170>
    1e28:	96 e0       	ldi	r25, 0x06	; 6
    1e2a:	55 cf       	rjmp	.-342    	; 0x1cd6 <_ZN11myScanGaris11Scan3TengahEj+0x174>
    1e2c:	88 31       	cpi	r24, 0x18	; 24
    1e2e:	49 f0       	breq	.+18     	; 0x1e42 <_ZN11myScanGaris11Scan3TengahEj+0x2e0>
    1e30:	80 32       	cpi	r24, 0x20	; 32
    1e32:	09 f0       	breq	.+2      	; 0x1e36 <_ZN11myScanGaris11Scan3TengahEj+0x2d4>
    1e34:	4e cf       	rjmp	.-356    	; 0x1cd2 <_ZN11myScanGaris11Scan3TengahEj+0x170>
    1e36:	9d ef       	ldi	r25, 0xFD	; 253
    1e38:	4e cf       	rjmp	.-356    	; 0x1cd6 <_ZN11myScanGaris11Scan3TengahEj+0x174>
    1e3a:	93 e0       	ldi	r25, 0x03	; 3
    1e3c:	4c cf       	rjmp	.-360    	; 0x1cd6 <_ZN11myScanGaris11Scan3TengahEj+0x174>
    1e3e:	91 e0       	ldi	r25, 0x01	; 1
    1e40:	4a cf       	rjmp	.-364    	; 0x1cd6 <_ZN11myScanGaris11Scan3TengahEj+0x174>
    1e42:	90 e0       	ldi	r25, 0x00	; 0
    1e44:	48 cf       	rjmp	.-368    	; 0x1cd6 <_ZN11myScanGaris11Scan3TengahEj+0x174>
    1e46:	94 e0       	ldi	r25, 0x04	; 4
    1e48:	46 cf       	rjmp	.-372    	; 0x1cd6 <_ZN11myScanGaris11Scan3TengahEj+0x174>
    1e4a:	92 e0       	ldi	r25, 0x02	; 2
    1e4c:	44 cf       	rjmp	.-376    	; 0x1cd6 <_ZN11myScanGaris11Scan3TengahEj+0x174>
    1e4e:	9f ef       	ldi	r25, 0xFF	; 255
    1e50:	42 cf       	rjmp	.-380    	; 0x1cd6 <_ZN11myScanGaris11Scan3TengahEj+0x174>
    1e52:	9a ef       	ldi	r25, 0xFA	; 250
    1e54:	40 cf       	rjmp	.-384    	; 0x1cd6 <_ZN11myScanGaris11Scan3TengahEj+0x174>
    1e56:	9c ef       	ldi	r25, 0xFC	; 252
    1e58:	3e cf       	rjmp	.-388    	; 0x1cd6 <_ZN11myScanGaris11Scan3TengahEj+0x174>
    1e5a:	9e ef       	ldi	r25, 0xFE	; 254
    1e5c:	3c cf       	rjmp	.-392    	; 0x1cd6 <_ZN11myScanGaris11Scan3TengahEj+0x174>
    1e5e:	95 e0       	ldi	r25, 0x05	; 5
    1e60:	3a cf       	rjmp	.-396    	; 0x1cd6 <_ZN11myScanGaris11Scan3TengahEj+0x174>
    1e62:	6b 81       	ldd	r22, Y+3	; 0x03
    1e64:	7c 81       	ldd	r23, Y+4	; 0x04
    1e66:	06 17       	cp	r16, r22
    1e68:	17 07       	cpc	r17, r23
    1e6a:	08 f0       	brcs	.+2      	; 0x1e6e <_ZN11myScanGaris11Scan3TengahEj+0x30c>
    1e6c:	92 ce       	rjmp	.-732    	; 0x1b92 <_ZN11myScanGaris11Scan3TengahEj+0x30>
    1e6e:	1c 83       	std	Y+4, r17	; 0x04
    1e70:	0b 83       	std	Y+3, r16	; 0x03
    1e72:	b8 01       	movw	r22, r16
    1e74:	8e ce       	rjmp	.-740    	; 0x1b92 <_ZN11myScanGaris11Scan3TengahEj+0x30>
    1e76:	68 94       	set
    1e78:	22 f8       	bld	r2, 2
    1e7a:	80 e2       	ldi	r24, 0x20	; 32
    1e7c:	87 b9       	out	0x07, r24	; 7
    1e7e:	85 e3       	ldi	r24, 0x35	; 53
    1e80:	8a 95       	dec	r24
    1e82:	f1 f7       	brne	.-4      	; 0x1e80 <_ZN11myScanGaris11Scan3TengahEj+0x31e>
    1e84:	00 00       	nop
    1e86:	36 9a       	sbi	0x06, 6	; 6
    1e88:	34 9b       	sbis	0x06, 4	; 6
    1e8a:	fe cf       	rjmp	.-4      	; 0x1e88 <_ZN11myScanGaris11Scan3TengahEj+0x326>
    1e8c:	34 9a       	sbi	0x06, 4	; 6
    1e8e:	e8 94       	clt
    1e90:	22 f8       	bld	r2, 2
    1e92:	85 b1       	in	r24, 0x05	; 5
    1e94:	84 36       	cpi	r24, 0x64	; 100
    1e96:	08 f0       	brcs	.+2      	; 0x1e9a <_ZN11myScanGaris11Scan3TengahEj+0x338>
    1e98:	83 cf       	rjmp	.-250    	; 0x1da0 <_ZN11myScanGaris11Scan3TengahEj+0x23e>
    1e9a:	0e 94 70 03 	call	0x6e0	; 0x6e0 <_ZN5myADC9CekBatereEv.part.6>

00001e9e <_ZN11myScanGaris17TungguSensorMasukEh>:
    1e9e:	fc 01       	movw	r30, r24
    1ea0:	43 e0       	ldi	r20, 0x03	; 3
    1ea2:	53 2d       	mov	r21, r3
    1ea4:	54 70       	andi	r21, 0x04	; 4
    1ea6:	90 81       	ld	r25, Z
    1ea8:	82 81       	ldd	r24, Z+2	; 0x02
    1eaa:	98 2b       	or	r25, r24
    1eac:	80 91 9b 00 	lds	r24, 0x009B
    1eb0:	85 ff       	sbrs	r24, 5
    1eb2:	fc cf       	rjmp	.-8      	; 0x1eac <_ZN11myScanGaris17TungguSensorMasukEh+0xe>
    1eb4:	90 93 9c 00 	sts	0x009C, r25
    1eb8:	28 e8       	ldi	r18, 0x88	; 136
    1eba:	33 e1       	ldi	r19, 0x13	; 19
    1ebc:	09 c0       	rjmp	.+18     	; 0x1ed0 <_ZN11myScanGaris17TungguSensorMasukEh+0x32>
    1ebe:	85 e0       	ldi	r24, 0x05	; 5
    1ec0:	8a 95       	dec	r24
    1ec2:	f1 f7       	brne	.-4      	; 0x1ec0 <_ZN11myScanGaris17TungguSensorMasukEh+0x22>
    1ec4:	00 00       	nop
    1ec6:	21 50       	subi	r18, 0x01	; 1
    1ec8:	31 09       	sbc	r19, r1
    1eca:	21 15       	cp	r18, r1
    1ecc:	31 05       	cpc	r19, r1
    1ece:	51 f1       	breq	.+84     	; 0x1f24 <_ZN11myScanGaris17TungguSensorMasukEh+0x86>
    1ed0:	80 91 2d 02 	lds	r24, 0x022D
    1ed4:	88 23       	and	r24, r24
    1ed6:	99 f3       	breq	.-26     	; 0x1ebe <_ZN11myScanGaris17TungguSensorMasukEh+0x20>
    1ed8:	e8 94       	clt
    1eda:	21 f8       	bld	r2, 1
    1edc:	a0 91 2e 02 	lds	r26, 0x022E
    1ee0:	b0 e0       	ldi	r27, 0x00	; 0
    1ee2:	a0 5d       	subi	r26, 0xD0	; 208
    1ee4:	bd 4f       	sbci	r27, 0xFD	; 253
    1ee6:	2c 91       	ld	r18, X
    1ee8:	80 91 2e 02 	lds	r24, 0x022E
    1eec:	8f 5f       	subi	r24, 0xFF	; 255
    1eee:	80 93 2e 02 	sts	0x022E, r24
    1ef2:	80 31       	cpi	r24, 0x10	; 16
    1ef4:	11 f4       	brne	.+4      	; 0x1efa <_ZN11myScanGaris17TungguSensorMasukEh+0x5c>
    1ef6:	10 92 2e 02 	sts	0x022E, r1
    1efa:	f8 94       	cli
    1efc:	80 91 2d 02 	lds	r24, 0x022D
    1f00:	81 50       	subi	r24, 0x01	; 1
    1f02:	80 93 2d 02 	sts	0x022D, r24
    1f06:	78 94       	sei
    1f08:	82 2f       	mov	r24, r18
    1f0a:	98 17       	cp	r25, r24
    1f0c:	81 f0       	breq	.+32     	; 0x1f2e <_ZN11myScanGaris17TungguSensorMasukEh+0x90>
    1f0e:	80 e0       	ldi	r24, 0x00	; 0
    1f10:	51 11       	cpse	r21, r1
    1f12:	80 95       	com	r24
    1f14:	86 23       	and	r24, r22
    1f16:	39 f2       	breq	.-114    	; 0x1ea6 <_ZN11myScanGaris17TungguSensorMasukEh+0x8>
    1f18:	8f ef       	ldi	r24, 0xFF	; 255
    1f1a:	84 0f       	add	r24, r20
    1f1c:	44 23       	and	r20, r20
    1f1e:	a1 f1       	breq	.+104    	; 0x1f88 <_ZN11myScanGaris17TungguSensorMasukEh+0xea>
    1f20:	48 2f       	mov	r20, r24
    1f22:	c1 cf       	rjmp	.-126    	; 0x1ea6 <_ZN11myScanGaris17TungguSensorMasukEh+0x8>
    1f24:	68 94       	set
    1f26:	21 f8       	bld	r2, 1
    1f28:	80 e0       	ldi	r24, 0x00	; 0
    1f2a:	98 13       	cpse	r25, r24
    1f2c:	f0 cf       	rjmp	.-32     	; 0x1f0e <_ZN11myScanGaris17TungguSensorMasukEh+0x70>
    1f2e:	28 e8       	ldi	r18, 0x88	; 136
    1f30:	33 e1       	ldi	r19, 0x13	; 19
    1f32:	09 c0       	rjmp	.+18     	; 0x1f46 <_ZN11myScanGaris17TungguSensorMasukEh+0xa8>
    1f34:	85 e0       	ldi	r24, 0x05	; 5
    1f36:	8a 95       	dec	r24
    1f38:	f1 f7       	brne	.-4      	; 0x1f36 <_ZN11myScanGaris17TungguSensorMasukEh+0x98>
    1f3a:	00 00       	nop
    1f3c:	21 50       	subi	r18, 0x01	; 1
    1f3e:	31 09       	sbc	r19, r1
    1f40:	21 15       	cp	r18, r1
    1f42:	31 05       	cpc	r19, r1
    1f44:	e9 f0       	breq	.+58     	; 0x1f80 <_ZN11myScanGaris17TungguSensorMasukEh+0xe2>
    1f46:	80 91 2d 02 	lds	r24, 0x022D
    1f4a:	88 23       	and	r24, r24
    1f4c:	99 f3       	breq	.-26     	; 0x1f34 <_ZN11myScanGaris17TungguSensorMasukEh+0x96>
    1f4e:	e8 94       	clt
    1f50:	21 f8       	bld	r2, 1
    1f52:	a0 91 2e 02 	lds	r26, 0x022E
    1f56:	b0 e0       	ldi	r27, 0x00	; 0
    1f58:	a0 5d       	subi	r26, 0xD0	; 208
    1f5a:	bd 4f       	sbci	r27, 0xFD	; 253
    1f5c:	8c 91       	ld	r24, X
    1f5e:	90 91 2e 02 	lds	r25, 0x022E
    1f62:	9f 5f       	subi	r25, 0xFF	; 255
    1f64:	90 93 2e 02 	sts	0x022E, r25
    1f68:	90 31       	cpi	r25, 0x10	; 16
    1f6a:	11 f4       	brne	.+4      	; 0x1f70 <_ZN11myScanGaris17TungguSensorMasukEh+0xd2>
    1f6c:	10 92 2e 02 	sts	0x022E, r1
    1f70:	f8 94       	cli
    1f72:	90 91 2d 02 	lds	r25, 0x022D
    1f76:	91 50       	subi	r25, 0x01	; 1
    1f78:	90 93 2d 02 	sts	0x022D, r25
    1f7c:	78 94       	sei
    1f7e:	c8 cf       	rjmp	.-112    	; 0x1f10 <_ZN11myScanGaris17TungguSensorMasukEh+0x72>
    1f80:	68 94       	set
    1f82:	21 f8       	bld	r2, 1
    1f84:	80 e0       	ldi	r24, 0x00	; 0
    1f86:	c4 cf       	rjmp	.-120    	; 0x1f10 <_ZN11myScanGaris17TungguSensorMasukEh+0x72>
    1f88:	68 94       	set
    1f8a:	23 f8       	bld	r2, 3
    1f8c:	10 92 21 02 	sts	0x0221, r1
    1f90:	10 92 22 02 	sts	0x0222, r1
    1f94:	10 92 85 00 	sts	0x0085, r1
    1f98:	10 92 84 00 	sts	0x0084, r1
    1f9c:	10 92 87 00 	sts	0x0087, r1
    1fa0:	10 92 86 00 	sts	0x0086, r1
    1fa4:	22 fe       	sbrs	r2, 2
    1fa6:	03 c0       	rjmp	.+6      	; 0x1fae <_ZN11myScanGaris17TungguSensorMasukEh+0x110>
    1fa8:	68 94       	set
    1faa:	30 f8       	bld	r3, 0
    1fac:	08 95       	ret
    1fae:	68 94       	set
    1fb0:	22 f8       	bld	r2, 2
    1fb2:	80 e2       	ldi	r24, 0x20	; 32
    1fb4:	87 b9       	out	0x07, r24	; 7
    1fb6:	85 e3       	ldi	r24, 0x35	; 53
    1fb8:	8a 95       	dec	r24
    1fba:	f1 f7       	brne	.-4      	; 0x1fb8 <_ZN11myScanGaris17TungguSensorMasukEh+0x11a>
    1fbc:	00 00       	nop
    1fbe:	36 9a       	sbi	0x06, 6	; 6
    1fc0:	34 9b       	sbis	0x06, 4	; 6
    1fc2:	fe cf       	rjmp	.-4      	; 0x1fc0 <_ZN11myScanGaris17TungguSensorMasukEh+0x122>
    1fc4:	34 9a       	sbi	0x06, 4	; 6
    1fc6:	e8 94       	clt
    1fc8:	22 f8       	bld	r2, 2
    1fca:	85 b1       	in	r24, 0x05	; 5
    1fcc:	84 36       	cpi	r24, 0x64	; 100
    1fce:	60 f7       	brcc	.-40     	; 0x1fa8 <_ZN11myScanGaris17TungguSensorMasukEh+0x10a>
    1fd0:	0e 94 70 03 	call	0x6e0	; 0x6e0 <_ZN5myADC9CekBatereEv.part.6>

00001fd4 <_ZN11myScanGaris22TungguSensorKananBelokEv>:
    1fd4:	fc 01       	movw	r30, r24
    1fd6:	8f e3       	ldi	r24, 0x3F	; 63
    1fd8:	9c e9       	ldi	r25, 0x9C	; 156
    1fda:	01 97       	sbiw	r24, 0x01	; 1
    1fdc:	f1 f7       	brne	.-4      	; 0x1fda <_ZN11myScanGaris22TungguSensorKananBelokEv+0x6>
    1fde:	00 c0       	rjmp	.+0      	; 0x1fe0 <_ZN11myScanGaris22TungguSensorKananBelokEv+0xc>
    1fe0:	00 00       	nop
    1fe2:	4b e0       	ldi	r20, 0x0B	; 11
    1fe4:	53 2d       	mov	r21, r3
    1fe6:	54 70       	andi	r21, 0x04	; 4
    1fe8:	90 81       	ld	r25, Z
    1fea:	82 81       	ldd	r24, Z+2	; 0x02
    1fec:	98 2b       	or	r25, r24
    1fee:	80 91 9b 00 	lds	r24, 0x009B
    1ff2:	85 ff       	sbrs	r24, 5
    1ff4:	fc cf       	rjmp	.-8      	; 0x1fee <_ZN11myScanGaris22TungguSensorKananBelokEv+0x1a>
    1ff6:	90 93 9c 00 	sts	0x009C, r25
    1ffa:	28 e8       	ldi	r18, 0x88	; 136
    1ffc:	33 e1       	ldi	r19, 0x13	; 19
    1ffe:	09 c0       	rjmp	.+18     	; 0x2012 <_ZN11myScanGaris22TungguSensorKananBelokEv+0x3e>
    2000:	85 e0       	ldi	r24, 0x05	; 5
    2002:	8a 95       	dec	r24
    2004:	f1 f7       	brne	.-4      	; 0x2002 <_ZN11myScanGaris22TungguSensorKananBelokEv+0x2e>
    2006:	00 00       	nop
    2008:	21 50       	subi	r18, 0x01	; 1
    200a:	31 09       	sbc	r19, r1
    200c:	21 15       	cp	r18, r1
    200e:	31 05       	cpc	r19, r1
    2010:	59 f1       	breq	.+86     	; 0x2068 <_ZN11myScanGaris22TungguSensorKananBelokEv+0x94>
    2012:	80 91 2d 02 	lds	r24, 0x022D
    2016:	88 23       	and	r24, r24
    2018:	99 f3       	breq	.-26     	; 0x2000 <_ZN11myScanGaris22TungguSensorKananBelokEv+0x2c>
    201a:	e8 94       	clt
    201c:	21 f8       	bld	r2, 1
    201e:	a0 91 2e 02 	lds	r26, 0x022E
    2022:	b0 e0       	ldi	r27, 0x00	; 0
    2024:	a0 5d       	subi	r26, 0xD0	; 208
    2026:	bd 4f       	sbci	r27, 0xFD	; 253
    2028:	2c 91       	ld	r18, X
    202a:	80 91 2e 02 	lds	r24, 0x022E
    202e:	8f 5f       	subi	r24, 0xFF	; 255
    2030:	80 93 2e 02 	sts	0x022E, r24
    2034:	80 31       	cpi	r24, 0x10	; 16
    2036:	11 f4       	brne	.+4      	; 0x203c <_ZN11myScanGaris22TungguSensorKananBelokEv+0x68>
    2038:	10 92 2e 02 	sts	0x022E, r1
    203c:	f8 94       	cli
    203e:	80 91 2d 02 	lds	r24, 0x022D
    2042:	81 50       	subi	r24, 0x01	; 1
    2044:	80 93 2d 02 	sts	0x022D, r24
    2048:	78 94       	sei
    204a:	82 2f       	mov	r24, r18
    204c:	98 17       	cp	r25, r24
    204e:	89 f0       	breq	.+34     	; 0x2072 <_ZN11myScanGaris22TungguSensorKananBelokEv+0x9e>
    2050:	80 e0       	ldi	r24, 0x00	; 0
    2052:	51 11       	cpse	r21, r1
    2054:	80 95       	com	r24
    2056:	83 70       	andi	r24, 0x03	; 3
    2058:	19 f0       	breq	.+6      	; 0x2060 <_ZN11myScanGaris22TungguSensorKananBelokEv+0x8c>
    205a:	41 50       	subi	r20, 0x01	; 1
    205c:	09 f0       	breq	.+2      	; 0x2060 <_ZN11myScanGaris22TungguSensorKananBelokEv+0x8c>
    205e:	c4 cf       	rjmp	.-120    	; 0x1fe8 <_ZN11myScanGaris22TungguSensorKananBelokEv+0x14>
    2060:	63 e0       	ldi	r22, 0x03	; 3
    2062:	cf 01       	movw	r24, r30
    2064:	0c 94 4f 0f 	jmp	0x1e9e	; 0x1e9e <_ZN11myScanGaris17TungguSensorMasukEh>
    2068:	68 94       	set
    206a:	21 f8       	bld	r2, 1
    206c:	80 e0       	ldi	r24, 0x00	; 0
    206e:	98 13       	cpse	r25, r24
    2070:	ef cf       	rjmp	.-34     	; 0x2050 <_ZN11myScanGaris22TungguSensorKananBelokEv+0x7c>
    2072:	28 e8       	ldi	r18, 0x88	; 136
    2074:	33 e1       	ldi	r19, 0x13	; 19
    2076:	09 c0       	rjmp	.+18     	; 0x208a <_ZN11myScanGaris22TungguSensorKananBelokEv+0xb6>
    2078:	95 e0       	ldi	r25, 0x05	; 5
    207a:	9a 95       	dec	r25
    207c:	f1 f7       	brne	.-4      	; 0x207a <_ZN11myScanGaris22TungguSensorKananBelokEv+0xa6>
    207e:	00 00       	nop
    2080:	21 50       	subi	r18, 0x01	; 1
    2082:	31 09       	sbc	r19, r1
    2084:	21 15       	cp	r18, r1
    2086:	31 05       	cpc	r19, r1
    2088:	e9 f0       	breq	.+58     	; 0x20c4 <_ZN11myScanGaris22TungguSensorKananBelokEv+0xf0>
    208a:	80 91 2d 02 	lds	r24, 0x022D
    208e:	88 23       	and	r24, r24
    2090:	99 f3       	breq	.-26     	; 0x2078 <_ZN11myScanGaris22TungguSensorKananBelokEv+0xa4>
    2092:	e8 94       	clt
    2094:	21 f8       	bld	r2, 1
    2096:	a0 91 2e 02 	lds	r26, 0x022E
    209a:	b0 e0       	ldi	r27, 0x00	; 0
    209c:	a0 5d       	subi	r26, 0xD0	; 208
    209e:	bd 4f       	sbci	r27, 0xFD	; 253
    20a0:	8c 91       	ld	r24, X
    20a2:	90 91 2e 02 	lds	r25, 0x022E
    20a6:	9f 5f       	subi	r25, 0xFF	; 255
    20a8:	90 93 2e 02 	sts	0x022E, r25
    20ac:	90 31       	cpi	r25, 0x10	; 16
    20ae:	11 f4       	brne	.+4      	; 0x20b4 <_ZN11myScanGaris22TungguSensorKananBelokEv+0xe0>
    20b0:	10 92 2e 02 	sts	0x022E, r1
    20b4:	f8 94       	cli
    20b6:	90 91 2d 02 	lds	r25, 0x022D
    20ba:	91 50       	subi	r25, 0x01	; 1
    20bc:	90 93 2d 02 	sts	0x022D, r25
    20c0:	78 94       	sei
    20c2:	c7 cf       	rjmp	.-114    	; 0x2052 <_ZN11myScanGaris22TungguSensorKananBelokEv+0x7e>
    20c4:	68 94       	set
    20c6:	21 f8       	bld	r2, 1
    20c8:	80 e0       	ldi	r24, 0x00	; 0
    20ca:	c3 cf       	rjmp	.-122    	; 0x2052 <_ZN11myScanGaris22TungguSensorKananBelokEv+0x7e>

000020cc <_ZN11myScanGaris21TungguSensorKiriBelokEv>:
    20cc:	fc 01       	movw	r30, r24
    20ce:	8f e3       	ldi	r24, 0x3F	; 63
    20d0:	9c e9       	ldi	r25, 0x9C	; 156
    20d2:	01 97       	sbiw	r24, 0x01	; 1
    20d4:	f1 f7       	brne	.-4      	; 0x20d2 <_ZN11myScanGaris21TungguSensorKiriBelokEv+0x6>
    20d6:	00 c0       	rjmp	.+0      	; 0x20d8 <_ZN11myScanGaris21TungguSensorKiriBelokEv+0xc>
    20d8:	00 00       	nop
    20da:	4b e0       	ldi	r20, 0x0B	; 11
    20dc:	53 2d       	mov	r21, r3
    20de:	54 70       	andi	r21, 0x04	; 4
    20e0:	90 81       	ld	r25, Z
    20e2:	82 81       	ldd	r24, Z+2	; 0x02
    20e4:	98 2b       	or	r25, r24
    20e6:	80 91 9b 00 	lds	r24, 0x009B
    20ea:	85 ff       	sbrs	r24, 5
    20ec:	fc cf       	rjmp	.-8      	; 0x20e6 <_ZN11myScanGaris21TungguSensorKiriBelokEv+0x1a>
    20ee:	90 93 9c 00 	sts	0x009C, r25
    20f2:	28 e8       	ldi	r18, 0x88	; 136
    20f4:	33 e1       	ldi	r19, 0x13	; 19
    20f6:	09 c0       	rjmp	.+18     	; 0x210a <_ZN11myScanGaris21TungguSensorKiriBelokEv+0x3e>
    20f8:	85 e0       	ldi	r24, 0x05	; 5
    20fa:	8a 95       	dec	r24
    20fc:	f1 f7       	brne	.-4      	; 0x20fa <_ZN11myScanGaris21TungguSensorKiriBelokEv+0x2e>
    20fe:	00 00       	nop
    2100:	21 50       	subi	r18, 0x01	; 1
    2102:	31 09       	sbc	r19, r1
    2104:	21 15       	cp	r18, r1
    2106:	31 05       	cpc	r19, r1
    2108:	59 f1       	breq	.+86     	; 0x2160 <_ZN11myScanGaris21TungguSensorKiriBelokEv+0x94>
    210a:	80 91 2d 02 	lds	r24, 0x022D
    210e:	88 23       	and	r24, r24
    2110:	99 f3       	breq	.-26     	; 0x20f8 <_ZN11myScanGaris21TungguSensorKiriBelokEv+0x2c>
    2112:	e8 94       	clt
    2114:	21 f8       	bld	r2, 1
    2116:	a0 91 2e 02 	lds	r26, 0x022E
    211a:	b0 e0       	ldi	r27, 0x00	; 0
    211c:	a0 5d       	subi	r26, 0xD0	; 208
    211e:	bd 4f       	sbci	r27, 0xFD	; 253
    2120:	2c 91       	ld	r18, X
    2122:	80 91 2e 02 	lds	r24, 0x022E
    2126:	8f 5f       	subi	r24, 0xFF	; 255
    2128:	80 93 2e 02 	sts	0x022E, r24
    212c:	80 31       	cpi	r24, 0x10	; 16
    212e:	11 f4       	brne	.+4      	; 0x2134 <_ZN11myScanGaris21TungguSensorKiriBelokEv+0x68>
    2130:	10 92 2e 02 	sts	0x022E, r1
    2134:	f8 94       	cli
    2136:	80 91 2d 02 	lds	r24, 0x022D
    213a:	81 50       	subi	r24, 0x01	; 1
    213c:	80 93 2d 02 	sts	0x022D, r24
    2140:	78 94       	sei
    2142:	82 2f       	mov	r24, r18
    2144:	98 17       	cp	r25, r24
    2146:	89 f0       	breq	.+34     	; 0x216a <_ZN11myScanGaris21TungguSensorKiriBelokEv+0x9e>
    2148:	80 e0       	ldi	r24, 0x00	; 0
    214a:	51 11       	cpse	r21, r1
    214c:	80 95       	com	r24
    214e:	80 7c       	andi	r24, 0xC0	; 192
    2150:	19 f0       	breq	.+6      	; 0x2158 <_ZN11myScanGaris21TungguSensorKiriBelokEv+0x8c>
    2152:	41 50       	subi	r20, 0x01	; 1
    2154:	09 f0       	breq	.+2      	; 0x2158 <_ZN11myScanGaris21TungguSensorKiriBelokEv+0x8c>
    2156:	c4 cf       	rjmp	.-120    	; 0x20e0 <_ZN11myScanGaris21TungguSensorKiriBelokEv+0x14>
    2158:	60 ec       	ldi	r22, 0xC0	; 192
    215a:	cf 01       	movw	r24, r30
    215c:	0c 94 4f 0f 	jmp	0x1e9e	; 0x1e9e <_ZN11myScanGaris17TungguSensorMasukEh>
    2160:	68 94       	set
    2162:	21 f8       	bld	r2, 1
    2164:	80 e0       	ldi	r24, 0x00	; 0
    2166:	98 13       	cpse	r25, r24
    2168:	ef cf       	rjmp	.-34     	; 0x2148 <_ZN11myScanGaris21TungguSensorKiriBelokEv+0x7c>
    216a:	28 e8       	ldi	r18, 0x88	; 136
    216c:	33 e1       	ldi	r19, 0x13	; 19
    216e:	09 c0       	rjmp	.+18     	; 0x2182 <_ZN11myScanGaris21TungguSensorKiriBelokEv+0xb6>
    2170:	95 e0       	ldi	r25, 0x05	; 5
    2172:	9a 95       	dec	r25
    2174:	f1 f7       	brne	.-4      	; 0x2172 <_ZN11myScanGaris21TungguSensorKiriBelokEv+0xa6>
    2176:	00 00       	nop
    2178:	21 50       	subi	r18, 0x01	; 1
    217a:	31 09       	sbc	r19, r1
    217c:	21 15       	cp	r18, r1
    217e:	31 05       	cpc	r19, r1
    2180:	e9 f0       	breq	.+58     	; 0x21bc <_ZN11myScanGaris21TungguSensorKiriBelokEv+0xf0>
    2182:	80 91 2d 02 	lds	r24, 0x022D
    2186:	88 23       	and	r24, r24
    2188:	99 f3       	breq	.-26     	; 0x2170 <_ZN11myScanGaris21TungguSensorKiriBelokEv+0xa4>
    218a:	e8 94       	clt
    218c:	21 f8       	bld	r2, 1
    218e:	a0 91 2e 02 	lds	r26, 0x022E
    2192:	b0 e0       	ldi	r27, 0x00	; 0
    2194:	a0 5d       	subi	r26, 0xD0	; 208
    2196:	bd 4f       	sbci	r27, 0xFD	; 253
    2198:	8c 91       	ld	r24, X
    219a:	90 91 2e 02 	lds	r25, 0x022E
    219e:	9f 5f       	subi	r25, 0xFF	; 255
    21a0:	90 93 2e 02 	sts	0x022E, r25
    21a4:	90 31       	cpi	r25, 0x10	; 16
    21a6:	11 f4       	brne	.+4      	; 0x21ac <_ZN11myScanGaris21TungguSensorKiriBelokEv+0xe0>
    21a8:	10 92 2e 02 	sts	0x022E, r1
    21ac:	f8 94       	cli
    21ae:	90 91 2d 02 	lds	r25, 0x022D
    21b2:	91 50       	subi	r25, 0x01	; 1
    21b4:	90 93 2d 02 	sts	0x022D, r25
    21b8:	78 94       	sei
    21ba:	c7 cf       	rjmp	.-114    	; 0x214a <_ZN11myScanGaris21TungguSensorKiriBelokEv+0x7e>
    21bc:	68 94       	set
    21be:	21 f8       	bld	r2, 1
    21c0:	80 e0       	ldi	r24, 0x00	; 0
    21c2:	c3 cf       	rjmp	.-122    	; 0x214a <_ZN11myScanGaris21TungguSensorKiriBelokEv+0x7e>

000021c4 <_ZN11myScanGaris18BelokKananGarisPIDEhh>:
    21c4:	fc 01       	movw	r30, r24
    21c6:	20 81       	ld	r18, Z
    21c8:	22 23       	and	r18, r18
    21ca:	f1 f0       	breq	.+60     	; 0x2208 <_ZN11myScanGaris18BelokKananGarisPIDEhh+0x44>
    21cc:	40 93 21 02 	sts	0x0221, r20
    21d0:	1d 9a       	sbi	0x03, 5	; 3
    21d2:	60 93 22 02 	sts	0x0222, r22
    21d6:	1a 98       	cbi	0x03, 2	; 3
    21d8:	68 94       	set
    21da:	23 f8       	bld	r2, 3
    21dc:	22 fc       	sbrc	r2, 2
    21de:	0c 94 ea 0f 	jmp	0x1fd4	; 0x1fd4 <_ZN11myScanGaris22TungguSensorKananBelokEv>
    21e2:	68 94       	set
    21e4:	22 f8       	bld	r2, 2
    21e6:	20 e2       	ldi	r18, 0x20	; 32
    21e8:	27 b9       	out	0x07, r18	; 7
    21ea:	25 e3       	ldi	r18, 0x35	; 53
    21ec:	2a 95       	dec	r18
    21ee:	f1 f7       	brne	.-4      	; 0x21ec <_ZN11myScanGaris18BelokKananGarisPIDEhh+0x28>
    21f0:	00 00       	nop
    21f2:	36 9a       	sbi	0x06, 6	; 6
    21f4:	34 9b       	sbis	0x06, 4	; 6
    21f6:	fe cf       	rjmp	.-4      	; 0x21f4 <_ZN11myScanGaris18BelokKananGarisPIDEhh+0x30>
    21f8:	34 9a       	sbi	0x06, 4	; 6
    21fa:	e8 94       	clt
    21fc:	22 f8       	bld	r2, 2
    21fe:	25 b1       	in	r18, 0x05	; 5
    2200:	24 36       	cpi	r18, 0x64	; 100
    2202:	68 f7       	brcc	.-38     	; 0x21de <_ZN11myScanGaris18BelokKananGarisPIDEhh+0x1a>
    2204:	0e 94 70 03 	call	0x6e0	; 0x6e0 <_ZN5myADC9CekBatereEv.part.6>
    2208:	60 93 21 02 	sts	0x0221, r22
    220c:	1d 9a       	sbi	0x03, 5	; 3
    220e:	40 93 22 02 	sts	0x0222, r20
    2212:	1a 98       	cbi	0x03, 2	; 3
    2214:	68 94       	set
    2216:	23 f8       	bld	r2, 3
    2218:	22 fc       	sbrc	r2, 2
    221a:	e1 cf       	rjmp	.-62     	; 0x21de <_ZN11myScanGaris18BelokKananGarisPIDEhh+0x1a>
    221c:	68 94       	set
    221e:	22 f8       	bld	r2, 2
    2220:	20 e2       	ldi	r18, 0x20	; 32
    2222:	27 b9       	out	0x07, r18	; 7
    2224:	f5 e3       	ldi	r31, 0x35	; 53
    2226:	fa 95       	dec	r31
    2228:	f1 f7       	brne	.-4      	; 0x2226 <_ZN11myScanGaris18BelokKananGarisPIDEhh+0x62>
    222a:	00 00       	nop
    222c:	36 9a       	sbi	0x06, 6	; 6
    222e:	34 9b       	sbis	0x06, 4	; 6
    2230:	fe cf       	rjmp	.-4      	; 0x222e <_ZN11myScanGaris18BelokKananGarisPIDEhh+0x6a>
    2232:	34 9a       	sbi	0x06, 4	; 6
    2234:	e8 94       	clt
    2236:	22 f8       	bld	r2, 2
    2238:	25 b1       	in	r18, 0x05	; 5
    223a:	24 36       	cpi	r18, 0x64	; 100
    223c:	80 f6       	brcc	.-96     	; 0x21de <_ZN11myScanGaris18BelokKananGarisPIDEhh+0x1a>
    223e:	e2 cf       	rjmp	.-60     	; 0x2204 <_ZN11myScanGaris18BelokKananGarisPIDEhh+0x40>

00002240 <_ZN11myScanGaris17BelokKiriGarisPIDEhh>:
    2240:	fc 01       	movw	r30, r24
    2242:	20 81       	ld	r18, Z
    2244:	22 23       	and	r18, r18
    2246:	f1 f0       	breq	.+60     	; 0x2284 <_ZN11myScanGaris17BelokKiriGarisPIDEhh+0x44>
    2248:	40 93 21 02 	sts	0x0221, r20
    224c:	1d 98       	cbi	0x03, 5	; 3
    224e:	60 93 22 02 	sts	0x0222, r22
    2252:	1a 9a       	sbi	0x03, 2	; 3
    2254:	68 94       	set
    2256:	23 f8       	bld	r2, 3
    2258:	22 fc       	sbrc	r2, 2
    225a:	0c 94 66 10 	jmp	0x20cc	; 0x20cc <_ZN11myScanGaris21TungguSensorKiriBelokEv>
    225e:	68 94       	set
    2260:	22 f8       	bld	r2, 2
    2262:	20 e2       	ldi	r18, 0x20	; 32
    2264:	27 b9       	out	0x07, r18	; 7
    2266:	25 e3       	ldi	r18, 0x35	; 53
    2268:	2a 95       	dec	r18
    226a:	f1 f7       	brne	.-4      	; 0x2268 <_ZN11myScanGaris17BelokKiriGarisPIDEhh+0x28>
    226c:	00 00       	nop
    226e:	36 9a       	sbi	0x06, 6	; 6
    2270:	34 9b       	sbis	0x06, 4	; 6
    2272:	fe cf       	rjmp	.-4      	; 0x2270 <_ZN11myScanGaris17BelokKiriGarisPIDEhh+0x30>
    2274:	34 9a       	sbi	0x06, 4	; 6
    2276:	e8 94       	clt
    2278:	22 f8       	bld	r2, 2
    227a:	25 b1       	in	r18, 0x05	; 5
    227c:	24 36       	cpi	r18, 0x64	; 100
    227e:	68 f7       	brcc	.-38     	; 0x225a <_ZN11myScanGaris17BelokKiriGarisPIDEhh+0x1a>
    2280:	0e 94 70 03 	call	0x6e0	; 0x6e0 <_ZN5myADC9CekBatereEv.part.6>
    2284:	60 93 21 02 	sts	0x0221, r22
    2288:	1d 98       	cbi	0x03, 5	; 3
    228a:	40 93 22 02 	sts	0x0222, r20
    228e:	1a 9a       	sbi	0x03, 2	; 3
    2290:	68 94       	set
    2292:	23 f8       	bld	r2, 3
    2294:	22 fc       	sbrc	r2, 2
    2296:	e1 cf       	rjmp	.-62     	; 0x225a <_ZN11myScanGaris17BelokKiriGarisPIDEhh+0x1a>
    2298:	68 94       	set
    229a:	22 f8       	bld	r2, 2
    229c:	20 e2       	ldi	r18, 0x20	; 32
    229e:	27 b9       	out	0x07, r18	; 7
    22a0:	f5 e3       	ldi	r31, 0x35	; 53
    22a2:	fa 95       	dec	r31
    22a4:	f1 f7       	brne	.-4      	; 0x22a2 <_ZN11myScanGaris17BelokKiriGarisPIDEhh+0x62>
    22a6:	00 00       	nop
    22a8:	36 9a       	sbi	0x06, 6	; 6
    22aa:	34 9b       	sbis	0x06, 4	; 6
    22ac:	fe cf       	rjmp	.-4      	; 0x22aa <_ZN11myScanGaris17BelokKiriGarisPIDEhh+0x6a>
    22ae:	34 9a       	sbi	0x06, 4	; 6
    22b0:	e8 94       	clt
    22b2:	22 f8       	bld	r2, 2
    22b4:	25 b1       	in	r18, 0x05	; 5
    22b6:	24 36       	cpi	r18, 0x64	; 100
    22b8:	80 f6       	brcc	.-96     	; 0x225a <_ZN11myScanGaris17BelokKiriGarisPIDEhh+0x1a>
    22ba:	e2 cf       	rjmp	.-60     	; 0x2280 <_ZN11myScanGaris17BelokKiriGarisPIDEhh+0x40>

000022bc <_ZN11myScanGaris24BelokKananSampaiGarisPIDEhhh>:
    22bc:	fc 01       	movw	r30, r24
    22be:	30 81       	ld	r19, Z
    22c0:	33 23       	and	r19, r19
    22c2:	01 f1       	breq	.+64     	; 0x2304 <_ZN11myScanGaris24BelokKananSampaiGarisPIDEhhh+0x48>
    22c4:	40 93 21 02 	sts	0x0221, r20
    22c8:	1d 9a       	sbi	0x03, 5	; 3
    22ca:	60 93 22 02 	sts	0x0222, r22
    22ce:	1a 98       	cbi	0x03, 2	; 3
    22d0:	68 94       	set
    22d2:	23 f8       	bld	r2, 3
    22d4:	22 fe       	sbrs	r2, 2
    22d6:	03 c0       	rjmp	.+6      	; 0x22de <_ZN11myScanGaris24BelokKananSampaiGarisPIDEhhh+0x22>
    22d8:	62 2f       	mov	r22, r18
    22da:	0c 94 4f 0f 	jmp	0x1e9e	; 0x1e9e <_ZN11myScanGaris17TungguSensorMasukEh>
    22de:	68 94       	set
    22e0:	22 f8       	bld	r2, 2
    22e2:	30 e2       	ldi	r19, 0x20	; 32
    22e4:	37 b9       	out	0x07, r19	; 7
    22e6:	35 e3       	ldi	r19, 0x35	; 53
    22e8:	3a 95       	dec	r19
    22ea:	f1 f7       	brne	.-4      	; 0x22e8 <_ZN11myScanGaris24BelokKananSampaiGarisPIDEhhh+0x2c>
    22ec:	00 00       	nop
    22ee:	36 9a       	sbi	0x06, 6	; 6
    22f0:	34 9b       	sbis	0x06, 4	; 6
    22f2:	fe cf       	rjmp	.-4      	; 0x22f0 <_ZN11myScanGaris24BelokKananSampaiGarisPIDEhhh+0x34>
    22f4:	34 9a       	sbi	0x06, 4	; 6
    22f6:	e8 94       	clt
    22f8:	22 f8       	bld	r2, 2
    22fa:	35 b1       	in	r19, 0x05	; 5
    22fc:	34 36       	cpi	r19, 0x64	; 100
    22fe:	60 f7       	brcc	.-40     	; 0x22d8 <_ZN11myScanGaris24BelokKananSampaiGarisPIDEhhh+0x1c>
    2300:	0e 94 70 03 	call	0x6e0	; 0x6e0 <_ZN5myADC9CekBatereEv.part.6>
    2304:	60 93 21 02 	sts	0x0221, r22
    2308:	1d 9a       	sbi	0x03, 5	; 3
    230a:	40 93 22 02 	sts	0x0222, r20
    230e:	1a 98       	cbi	0x03, 2	; 3
    2310:	68 94       	set
    2312:	23 f8       	bld	r2, 3
    2314:	22 fc       	sbrc	r2, 2
    2316:	e0 cf       	rjmp	.-64     	; 0x22d8 <_ZN11myScanGaris24BelokKananSampaiGarisPIDEhhh+0x1c>
    2318:	68 94       	set
    231a:	22 f8       	bld	r2, 2
    231c:	30 e2       	ldi	r19, 0x20	; 32
    231e:	37 b9       	out	0x07, r19	; 7
    2320:	f5 e3       	ldi	r31, 0x35	; 53
    2322:	fa 95       	dec	r31
    2324:	f1 f7       	brne	.-4      	; 0x2322 <_ZN11myScanGaris24BelokKananSampaiGarisPIDEhhh+0x66>
    2326:	00 00       	nop
    2328:	36 9a       	sbi	0x06, 6	; 6
    232a:	34 9b       	sbis	0x06, 4	; 6
    232c:	fe cf       	rjmp	.-4      	; 0x232a <_ZN11myScanGaris24BelokKananSampaiGarisPIDEhhh+0x6e>
    232e:	34 9a       	sbi	0x06, 4	; 6
    2330:	e8 94       	clt
    2332:	22 f8       	bld	r2, 2
    2334:	35 b1       	in	r19, 0x05	; 5
    2336:	34 36       	cpi	r19, 0x64	; 100
    2338:	78 f6       	brcc	.-98     	; 0x22d8 <_ZN11myScanGaris24BelokKananSampaiGarisPIDEhhh+0x1c>
    233a:	e2 cf       	rjmp	.-60     	; 0x2300 <_ZN11myScanGaris24BelokKananSampaiGarisPIDEhhh+0x44>

0000233c <__vector_7>:
    233c:	1f 92       	push	r1
    233e:	0f 92       	push	r0
    2340:	0f b6       	in	r0, 0x3f	; 63
    2342:	0f 92       	push	r0
    2344:	11 24       	eor	r1, r1
    2346:	8f 93       	push	r24
    2348:	9f 93       	push	r25
    234a:	0e 9b       	sbis	0x01, 6	; 1
    234c:	18 c0       	rjmp	.+48     	; 0x237e <__vector_7+0x42>
    234e:	b0 9b       	sbis	0x16, 0	; 22
    2350:	18 c0       	rjmp	.+48     	; 0x2382 <__vector_7+0x46>
    2352:	f8 94       	cli
    2354:	80 91 27 02 	lds	r24, 0x0227
    2358:	90 91 28 02 	lds	r25, 0x0228
    235c:	01 97       	sbiw	r24, 0x01	; 1
    235e:	90 93 28 02 	sts	0x0228, r25
    2362:	80 93 27 02 	sts	0x0227, r24
    2366:	80 91 25 02 	lds	r24, 0x0225
    236a:	8f 5f       	subi	r24, 0xFF	; 255
    236c:	80 93 25 02 	sts	0x0225, r24
    2370:	9f 91       	pop	r25
    2372:	8f 91       	pop	r24
    2374:	0f 90       	pop	r0
    2376:	0f be       	out	0x3f, r0	; 63
    2378:	0f 90       	pop	r0
    237a:	1f 90       	pop	r1
    237c:	18 95       	reti
    237e:	b0 9b       	sbis	0x16, 0	; 22
    2380:	e8 cf       	rjmp	.-48     	; 0x2352 <__vector_7+0x16>
    2382:	f8 94       	cli
    2384:	80 91 27 02 	lds	r24, 0x0227
    2388:	90 91 28 02 	lds	r25, 0x0228
    238c:	01 96       	adiw	r24, 0x01	; 1
    238e:	90 93 28 02 	sts	0x0228, r25
    2392:	80 93 27 02 	sts	0x0227, r24
    2396:	e7 cf       	rjmp	.-50     	; 0x2366 <__vector_7+0x2a>

00002398 <__vector_8>:
    2398:	1f 92       	push	r1
    239a:	0f 92       	push	r0
    239c:	0f b6       	in	r0, 0x3f	; 63
    239e:	0f 92       	push	r0
    23a0:	11 24       	eor	r1, r1
    23a2:	8f 93       	push	r24
    23a4:	9f 93       	push	r25
    23a6:	0f 99       	sbic	0x01, 7	; 1
    23a8:	18 c0       	rjmp	.+48     	; 0x23da <__vector_8+0x42>
    23aa:	b2 99       	sbic	0x16, 2	; 22
    23ac:	18 c0       	rjmp	.+48     	; 0x23de <__vector_8+0x46>
    23ae:	f8 94       	cli
    23b0:	80 91 29 02 	lds	r24, 0x0229
    23b4:	90 91 2a 02 	lds	r25, 0x022A
    23b8:	01 96       	adiw	r24, 0x01	; 1
    23ba:	90 93 2a 02 	sts	0x022A, r25
    23be:	80 93 29 02 	sts	0x0229, r24
    23c2:	80 91 26 02 	lds	r24, 0x0226
    23c6:	8f 5f       	subi	r24, 0xFF	; 255
    23c8:	80 93 26 02 	sts	0x0226, r24
    23cc:	9f 91       	pop	r25
    23ce:	8f 91       	pop	r24
    23d0:	0f 90       	pop	r0
    23d2:	0f be       	out	0x3f, r0	; 63
    23d4:	0f 90       	pop	r0
    23d6:	1f 90       	pop	r1
    23d8:	18 95       	reti
    23da:	b2 99       	sbic	0x16, 2	; 22
    23dc:	e8 cf       	rjmp	.-48     	; 0x23ae <__vector_8+0x16>
    23de:	f8 94       	cli
    23e0:	80 91 29 02 	lds	r24, 0x0229
    23e4:	90 91 2a 02 	lds	r25, 0x022A
    23e8:	01 97       	sbiw	r24, 0x01	; 1
    23ea:	90 93 2a 02 	sts	0x022A, r25
    23ee:	80 93 29 02 	sts	0x0229, r24
    23f2:	e7 cf       	rjmp	.-50     	; 0x23c2 <__vector_8+0x2a>

000023f4 <__vector_28>:
    23f4:	1f 92       	push	r1
    23f6:	0f 92       	push	r0
    23f8:	0f b6       	in	r0, 0x3f	; 63
    23fa:	0f 92       	push	r0
    23fc:	11 24       	eor	r1, r1
    23fe:	2f 93       	push	r18
    2400:	8f 93       	push	r24
    2402:	9f 93       	push	r25
    2404:	80 91 42 02 	lds	r24, 0x0242
    2408:	90 91 43 02 	lds	r25, 0x0243
    240c:	01 96       	adiw	r24, 0x01	; 1
    240e:	89 3e       	cpi	r24, 0xE9	; 233
    2410:	23 e0       	ldi	r18, 0x03	; 3
    2412:	92 07       	cpc	r25, r18
    2414:	60 f0       	brcs	.+24     	; 0x242e <__vector_28+0x3a>
    2416:	10 92 43 02 	sts	0x0243, r1
    241a:	10 92 42 02 	sts	0x0242, r1
    241e:	9f 91       	pop	r25
    2420:	8f 91       	pop	r24
    2422:	2f 91       	pop	r18
    2424:	0f 90       	pop	r0
    2426:	0f be       	out	0x3f, r0	; 63
    2428:	0f 90       	pop	r0
    242a:	1f 90       	pop	r1
    242c:	18 95       	reti
    242e:	90 93 43 02 	sts	0x0243, r25
    2432:	80 93 42 02 	sts	0x0242, r24
    2436:	9f 91       	pop	r25
    2438:	8f 91       	pop	r24
    243a:	2f 91       	pop	r18
    243c:	0f 90       	pop	r0
    243e:	0f be       	out	0x3f, r0	; 63
    2440:	0f 90       	pop	r0
    2442:	1f 90       	pop	r1
    2444:	18 95       	reti

00002446 <__vector_11>:
    2446:	1f 92       	push	r1
    2448:	0f 92       	push	r0
    244a:	0f b6       	in	r0, 0x3f	; 63
    244c:	0f 92       	push	r0
    244e:	11 24       	eor	r1, r1
    2450:	8f 93       	push	r24
    2452:	80 91 01 01 	lds	r24, 0x0101
    2456:	81 50       	subi	r24, 0x01	; 1
    2458:	80 93 01 01 	sts	0x0101, r24
    245c:	88 23       	and	r24, r24
    245e:	49 f0       	breq	.+18     	; 0x2472 <__vector_11+0x2c>
    2460:	82 e0       	ldi	r24, 0x02	; 2
    2462:	8f bd       	out	0x2f, r24	; 47
    2464:	78 94       	sei
    2466:	8f 91       	pop	r24
    2468:	0f 90       	pop	r0
    246a:	0f be       	out	0x3f, r0	; 63
    246c:	0f 90       	pop	r0
    246e:	1f 90       	pop	r1
    2470:	18 95       	reti
    2472:	82 e0       	ldi	r24, 0x02	; 2
    2474:	80 93 01 01 	sts	0x0101, r24
    2478:	8a ea       	ldi	r24, 0xAA	; 170
    247a:	8f bd       	out	0x2f, r24	; 47
    247c:	78 94       	sei
    247e:	8f 91       	pop	r24
    2480:	0f 90       	pop	r0
    2482:	0f be       	out	0x3f, r0	; 63
    2484:	0f 90       	pop	r0
    2486:	1f 90       	pop	r1
    2488:	18 95       	reti

0000248a <__vector_14>:
    248a:	1f 92       	push	r1
    248c:	0f 92       	push	r0
    248e:	0f b6       	in	r0, 0x3f	; 63
    2490:	0f 92       	push	r0
    2492:	11 24       	eor	r1, r1
    2494:	78 94       	sei
    2496:	0f 90       	pop	r0
    2498:	0f be       	out	0x3f, r0	; 63
    249a:	0f 90       	pop	r0
    249c:	1f 90       	pop	r1
    249e:	18 95       	reti

000024a0 <__vector_9>:
    24a0:	1f 92       	push	r1
    24a2:	0f 92       	push	r0
    24a4:	0f b6       	in	r0, 0x3f	; 63
    24a6:	0f 92       	push	r0
    24a8:	11 24       	eor	r1, r1
    24aa:	2f 93       	push	r18
    24ac:	3f 93       	push	r19
    24ae:	4f 93       	push	r20
    24b0:	8f 93       	push	r24
    24b2:	9f 93       	push	r25
    24b4:	78 94       	sei
    24b6:	80 91 00 01 	lds	r24, 0x0100
    24ba:	81 50       	subi	r24, 0x01	; 1
    24bc:	80 93 00 01 	sts	0x0100, r24
    24c0:	81 11       	cpse	r24, r1
    24c2:	0d c0       	rjmp	.+26     	; 0x24de <__vector_9+0x3e>
    24c4:	8a e0       	ldi	r24, 0x0A	; 10
    24c6:	80 93 00 01 	sts	0x0100, r24
    24ca:	9f 91       	pop	r25
    24cc:	8f 91       	pop	r24
    24ce:	4f 91       	pop	r20
    24d0:	3f 91       	pop	r19
    24d2:	2f 91       	pop	r18
    24d4:	0f 90       	pop	r0
    24d6:	0f be       	out	0x3f, r0	; 63
    24d8:	0f 90       	pop	r0
    24da:	1f 90       	pop	r1
    24dc:	18 95       	reti
    24de:	84 30       	cpi	r24, 0x04	; 4
    24e0:	d9 f1       	breq	.+118    	; 0x2558 <__vector_9+0xb8>
    24e2:	08 f4       	brcc	.+2      	; 0x24e6 <__vector_9+0x46>
    24e4:	44 c0       	rjmp	.+136    	; 0x256e <__vector_9+0xce>
    24e6:	88 30       	cpi	r24, 0x08	; 8
    24e8:	69 f0       	breq	.+26     	; 0x2504 <__vector_9+0x64>
    24ea:	89 30       	cpi	r24, 0x09	; 9
    24ec:	71 f7       	brne	.-36     	; 0x24ca <__vector_9+0x2a>
    24ee:	80 91 25 02 	lds	r24, 0x0225
    24f2:	90 91 41 02 	lds	r25, 0x0241
    24f6:	28 2f       	mov	r18, r24
    24f8:	29 1b       	sub	r18, r25
    24fa:	20 93 23 02 	sts	0x0223, r18
    24fe:	80 93 41 02 	sts	0x0241, r24
    2502:	e3 cf       	rjmp	.-58     	; 0x24ca <__vector_9+0x2a>
    2504:	23 fe       	sbrs	r2, 3
    2506:	e1 cf       	rjmp	.-62     	; 0x24ca <__vector_9+0x2a>
    2508:	80 91 21 02 	lds	r24, 0x0221
    250c:	18 16       	cp	r1, r24
    250e:	0c f0       	brlt	.+2      	; 0x2512 <__vector_9+0x72>
    2510:	62 c0       	rjmp	.+196    	; 0x25d6 <__vector_9+0x136>
    2512:	90 91 23 02 	lds	r25, 0x0223
    2516:	38 2f       	mov	r19, r24
    2518:	39 1b       	sub	r19, r25
    251a:	48 e0       	ldi	r20, 0x08	; 8
    251c:	34 02       	muls	r19, r20
    251e:	c0 01       	movw	r24, r0
    2520:	11 24       	eor	r1, r1
    2522:	20 91 46 02 	lds	r18, 0x0246
    2526:	23 0f       	add	r18, r19
    2528:	29 32       	cpi	r18, 0x29	; 41
    252a:	0c f4       	brge	.+2      	; 0x252e <__vector_9+0x8e>
    252c:	62 c0       	rjmp	.+196    	; 0x25f2 <__vector_9+0x152>
    252e:	28 e2       	ldi	r18, 0x28	; 40
    2530:	20 93 46 02 	sts	0x0246, r18
    2534:	20 e9       	ldi	r18, 0x90	; 144
    2536:	31 e0       	ldi	r19, 0x01	; 1
    2538:	82 0f       	add	r24, r18
    253a:	93 1f       	adc	r25, r19
    253c:	81 39       	cpi	r24, 0x91	; 145
    253e:	21 e0       	ldi	r18, 0x01	; 1
    2540:	92 07       	cpc	r25, r18
    2542:	0c f0       	brlt	.+2      	; 0x2546 <__vector_9+0xa6>
    2544:	66 c0       	rjmp	.+204    	; 0x2612 <__vector_9+0x172>
    2546:	18 16       	cp	r1, r24
    2548:	19 06       	cpc	r1, r25
    254a:	0c f0       	brlt	.+2      	; 0x254e <__vector_9+0xae>
    254c:	7a c0       	rjmp	.+244    	; 0x2642 <__vector_9+0x1a2>
    254e:	90 93 85 00 	sts	0x0085, r25
    2552:	80 93 84 00 	sts	0x0084, r24
    2556:	b9 cf       	rjmp	.-142    	; 0x24ca <__vector_9+0x2a>
    2558:	80 91 26 02 	lds	r24, 0x0226
    255c:	90 91 40 02 	lds	r25, 0x0240
    2560:	48 2f       	mov	r20, r24
    2562:	49 1b       	sub	r20, r25
    2564:	40 93 24 02 	sts	0x0224, r20
    2568:	80 93 40 02 	sts	0x0240, r24
    256c:	ae cf       	rjmp	.-164    	; 0x24ca <__vector_9+0x2a>
    256e:	83 30       	cpi	r24, 0x03	; 3
    2570:	09 f0       	breq	.+2      	; 0x2574 <__vector_9+0xd4>
    2572:	ab cf       	rjmp	.-170    	; 0x24ca <__vector_9+0x2a>
    2574:	23 fe       	sbrs	r2, 3
    2576:	a9 cf       	rjmp	.-174    	; 0x24ca <__vector_9+0x2a>
    2578:	80 91 22 02 	lds	r24, 0x0222
    257c:	18 16       	cp	r1, r24
    257e:	0c f0       	brlt	.+2      	; 0x2582 <__vector_9+0xe2>
    2580:	41 c0       	rjmp	.+130    	; 0x2604 <__vector_9+0x164>
    2582:	90 91 24 02 	lds	r25, 0x0224
    2586:	89 1b       	sub	r24, r25
    2588:	98 2f       	mov	r25, r24
    258a:	88 e0       	ldi	r24, 0x08	; 8
    258c:	98 02       	muls	r25, r24
    258e:	90 01       	movw	r18, r0
    2590:	11 24       	eor	r1, r1
    2592:	80 91 47 02 	lds	r24, 0x0247
    2596:	89 0f       	add	r24, r25
    2598:	89 32       	cpi	r24, 0x29	; 41
    259a:	bc f4       	brge	.+46     	; 0x25ca <__vector_9+0x12a>
    259c:	88 3d       	cpi	r24, 0xD8	; 216
    259e:	0c f4       	brge	.+2      	; 0x25a2 <__vector_9+0x102>
    25a0:	3f c0       	rjmp	.+126    	; 0x2620 <__vector_9+0x180>
    25a2:	80 93 47 02 	sts	0x0247, r24
    25a6:	4a e0       	ldi	r20, 0x0A	; 10
    25a8:	84 02       	muls	r24, r20
    25aa:	c0 01       	movw	r24, r0
    25ac:	11 24       	eor	r1, r1
    25ae:	82 0f       	add	r24, r18
    25b0:	93 1f       	adc	r25, r19
    25b2:	81 39       	cpi	r24, 0x91	; 145
    25b4:	21 e0       	ldi	r18, 0x01	; 1
    25b6:	92 07       	cpc	r25, r18
    25b8:	ac f4       	brge	.+42     	; 0x25e4 <__vector_9+0x144>
    25ba:	18 16       	cp	r1, r24
    25bc:	19 06       	cpc	r1, r25
    25be:	e4 f5       	brge	.+120    	; 0x2638 <__vector_9+0x198>
    25c0:	90 93 87 00 	sts	0x0087, r25
    25c4:	80 93 86 00 	sts	0x0086, r24
    25c8:	80 cf       	rjmp	.-256    	; 0x24ca <__vector_9+0x2a>
    25ca:	88 e2       	ldi	r24, 0x28	; 40
    25cc:	80 93 47 02 	sts	0x0247, r24
    25d0:	80 e9       	ldi	r24, 0x90	; 144
    25d2:	91 e0       	ldi	r25, 0x01	; 1
    25d4:	ec cf       	rjmp	.-40     	; 0x25ae <__vector_9+0x10e>
    25d6:	10 92 85 00 	sts	0x0085, r1
    25da:	10 92 84 00 	sts	0x0084, r1
    25de:	10 92 46 02 	sts	0x0246, r1
    25e2:	73 cf       	rjmp	.-282    	; 0x24ca <__vector_9+0x2a>
    25e4:	80 e9       	ldi	r24, 0x90	; 144
    25e6:	91 e0       	ldi	r25, 0x01	; 1
    25e8:	90 93 87 00 	sts	0x0087, r25
    25ec:	80 93 86 00 	sts	0x0086, r24
    25f0:	6c cf       	rjmp	.-296    	; 0x24ca <__vector_9+0x2a>
    25f2:	28 3d       	cpi	r18, 0xD8	; 216
    25f4:	dc f0       	brlt	.+54     	; 0x262c <__vector_9+0x18c>
    25f6:	20 93 46 02 	sts	0x0246, r18
    25fa:	4a e0       	ldi	r20, 0x0A	; 10
    25fc:	24 02       	muls	r18, r20
    25fe:	90 01       	movw	r18, r0
    2600:	11 24       	eor	r1, r1
    2602:	9a cf       	rjmp	.-204    	; 0x2538 <__vector_9+0x98>
    2604:	10 92 87 00 	sts	0x0087, r1
    2608:	10 92 86 00 	sts	0x0086, r1
    260c:	10 92 47 02 	sts	0x0247, r1
    2610:	5c cf       	rjmp	.-328    	; 0x24ca <__vector_9+0x2a>
    2612:	80 e9       	ldi	r24, 0x90	; 144
    2614:	91 e0       	ldi	r25, 0x01	; 1
    2616:	90 93 85 00 	sts	0x0085, r25
    261a:	80 93 84 00 	sts	0x0084, r24
    261e:	55 cf       	rjmp	.-342    	; 0x24ca <__vector_9+0x2a>
    2620:	88 ed       	ldi	r24, 0xD8	; 216
    2622:	80 93 47 02 	sts	0x0247, r24
    2626:	80 e7       	ldi	r24, 0x70	; 112
    2628:	9e ef       	ldi	r25, 0xFE	; 254
    262a:	c1 cf       	rjmp	.-126    	; 0x25ae <__vector_9+0x10e>
    262c:	28 ed       	ldi	r18, 0xD8	; 216
    262e:	20 93 46 02 	sts	0x0246, r18
    2632:	20 e7       	ldi	r18, 0x70	; 112
    2634:	3e ef       	ldi	r19, 0xFE	; 254
    2636:	80 cf       	rjmp	.-256    	; 0x2538 <__vector_9+0x98>
    2638:	10 92 87 00 	sts	0x0087, r1
    263c:	10 92 86 00 	sts	0x0086, r1
    2640:	44 cf       	rjmp	.-376    	; 0x24ca <__vector_9+0x2a>
    2642:	10 92 85 00 	sts	0x0085, r1
    2646:	10 92 84 00 	sts	0x0084, r1
    264a:	3f cf       	rjmp	.-386    	; 0x24ca <__vector_9+0x2a>

0000264c <_Z10SystemInitv>:
    264c:	e8 94       	clt
    264e:	20 f8       	bld	r2, 0
    2650:	e8 94       	clt
    2652:	21 f8       	bld	r2, 1
    2654:	e8 94       	clt
    2656:	22 f8       	bld	r2, 2
    2658:	e8 94       	clt
    265a:	23 f8       	bld	r2, 3
    265c:	1b ba       	out	0x1b, r1	; 27
    265e:	8f ef       	ldi	r24, 0xFF	; 255
    2660:	8a bb       	out	0x1a, r24	; 26
    2662:	95 e0       	ldi	r25, 0x05	; 5
    2664:	98 bb       	out	0x18, r25	; 24
    2666:	98 ef       	ldi	r25, 0xF8	; 248
    2668:	97 bb       	out	0x17, r25	; 23
    266a:	85 bb       	out	0x15, r24	; 21
    266c:	90 ef       	ldi	r25, 0xF0	; 240
    266e:	94 bb       	out	0x14, r25	; 20
    2670:	12 ba       	out	0x12, r1	; 18
    2672:	91 bb       	out	0x11, r25	; 17
    2674:	20 ec       	ldi	r18, 0xC0	; 192
    2676:	23 b9       	out	0x03, r18	; 3
    2678:	9c e3       	ldi	r25, 0x3C	; 60
    267a:	92 b9       	out	0x02, r25	; 2
    267c:	10 92 62 00 	sts	0x0062, r1
    2680:	10 92 61 00 	sts	0x0061, r1
    2684:	80 93 65 00 	sts	0x0065, r24
    2688:	10 92 64 00 	sts	0x0064, r1
    268c:	10 be       	out	0x30, r1	; 48
    268e:	13 be       	out	0x33, r1	; 51
    2690:	12 be       	out	0x32, r1	; 50
    2692:	11 be       	out	0x31, r1	; 49
    2694:	8a ea       	ldi	r24, 0xAA	; 170
    2696:	8f bd       	out	0x2f, r24	; 47
    2698:	82 e1       	ldi	r24, 0x12	; 18
    269a:	8e bd       	out	0x2e, r24	; 46
    269c:	1d bc       	out	0x2d, r1	; 45
    269e:	1c bc       	out	0x2c, r1	; 44
    26a0:	87 e8       	ldi	r24, 0x87	; 135
    26a2:	93 e1       	ldi	r25, 0x13	; 19
    26a4:	97 bd       	out	0x27, r25	; 39
    26a6:	86 bd       	out	0x26, r24	; 38
    26a8:	8b e0       	ldi	r24, 0x0B	; 11
    26aa:	85 bd       	out	0x25, r24	; 37
    26ac:	14 bc       	out	0x24, r1	; 36
    26ae:	89 ef       	ldi	r24, 0xF9	; 249
    26b0:	83 bd       	out	0x23, r24	; 35
    26b2:	82 ef       	ldi	r24, 0xF2	; 242
    26b4:	80 93 8b 00 	sts	0x008B, r24
    26b8:	81 e1       	ldi	r24, 0x11	; 17
    26ba:	80 93 8a 00 	sts	0x008A, r24
    26be:	10 92 89 00 	sts	0x0089, r1
    26c2:	10 92 88 00 	sts	0x0088, r1
    26c6:	81 e0       	ldi	r24, 0x01	; 1
    26c8:	80 93 81 00 	sts	0x0081, r24
    26cc:	80 e9       	ldi	r24, 0x90	; 144
    26ce:	80 93 80 00 	sts	0x0080, r24
    26d2:	10 92 87 00 	sts	0x0087, r1
    26d6:	10 92 86 00 	sts	0x0086, r1
    26da:	10 92 85 00 	sts	0x0085, r1
    26de:	10 92 84 00 	sts	0x0084, r1
    26e2:	10 92 83 00 	sts	0x0083, r1
    26e6:	88 ec       	ldi	r24, 0xC8	; 200
    26e8:	80 93 82 00 	sts	0x0082, r24
    26ec:	10 92 6a 00 	sts	0x006A, r1
    26f0:	80 e5       	ldi	r24, 0x50	; 80
    26f2:	8a bf       	out	0x3a, r24	; 58
    26f4:	29 bf       	out	0x39, r18	; 57
    26f6:	28 bf       	out	0x38, r18	; 56
    26f8:	84 ea       	ldi	r24, 0xA4	; 164
    26fa:	87 bf       	out	0x37, r24	; 55
    26fc:	82 e0       	ldi	r24, 0x02	; 2
    26fe:	80 93 7d 00 	sts	0x007D, r24
    2702:	10 92 9b 00 	sts	0x009B, r1
    2706:	88 e9       	ldi	r24, 0x98	; 152
    2708:	80 93 9a 00 	sts	0x009A, r24
    270c:	86 e0       	ldi	r24, 0x06	; 6
    270e:	80 93 9d 00 	sts	0x009D, r24
    2712:	10 92 98 00 	sts	0x0098, r1
    2716:	87 e6       	ldi	r24, 0x67	; 103
    2718:	80 93 99 00 	sts	0x0099, r24
    271c:	80 e8       	ldi	r24, 0x80	; 128
    271e:	88 b9       	out	0x08, r24	; 8
    2720:	10 bc       	out	0x20, r1	; 32
    2722:	f8 94       	cli
    2724:	2f ef       	ldi	r18, 0xFF	; 255
    2726:	80 e7       	ldi	r24, 0x70	; 112
    2728:	92 e0       	ldi	r25, 0x02	; 2
    272a:	21 50       	subi	r18, 0x01	; 1
    272c:	80 40       	sbci	r24, 0x00	; 0
    272e:	90 40       	sbci	r25, 0x00	; 0
    2730:	e1 f7       	brne	.-8      	; 0x272a <_Z10SystemInitv+0xde>
    2732:	00 c0       	rjmp	.+0      	; 0x2734 <_Z10SystemInitv+0xe8>
    2734:	00 00       	nop
    2736:	84 e3       	ldi	r24, 0x34	; 52
    2738:	8b bb       	out	0x1b, r24	; 27
    273a:	25 e0       	ldi	r18, 0x05	; 5
    273c:	2a 95       	dec	r18
    273e:	f1 f7       	brne	.-4      	; 0x273c <_Z10SystemInitv+0xf0>
    2740:	00 00       	nop
    2742:	da 98       	cbi	0x1b, 2	; 27
    2744:	8f e1       	ldi	r24, 0x1F	; 31
    2746:	9e e4       	ldi	r25, 0x4E	; 78
    2748:	01 97       	sbiw	r24, 0x01	; 1
    274a:	f1 f7       	brne	.-4      	; 0x2748 <_Z10SystemInitv+0xfc>
    274c:	00 c0       	rjmp	.+0      	; 0x274e <_Z10SystemInitv+0x102>
    274e:	00 00       	nop
    2750:	84 e3       	ldi	r24, 0x34	; 52
    2752:	8b bb       	out	0x1b, r24	; 27
    2754:	95 e0       	ldi	r25, 0x05	; 5
    2756:	9a 95       	dec	r25
    2758:	f1 f7       	brne	.-4      	; 0x2756 <_Z10SystemInitv+0x10a>
    275a:	00 00       	nop
    275c:	da 98       	cbi	0x1b, 2	; 27
    275e:	8f e9       	ldi	r24, 0x9F	; 159
    2760:	9f e0       	ldi	r25, 0x0F	; 15
    2762:	01 97       	sbiw	r24, 0x01	; 1
    2764:	f1 f7       	brne	.-4      	; 0x2762 <_Z10SystemInitv+0x116>
    2766:	00 c0       	rjmp	.+0      	; 0x2768 <_Z10SystemInitv+0x11c>
    2768:	00 00       	nop
    276a:	84 e3       	ldi	r24, 0x34	; 52
    276c:	8b bb       	out	0x1b, r24	; 27
    276e:	95 e0       	ldi	r25, 0x05	; 5
    2770:	9a 95       	dec	r25
    2772:	f1 f7       	brne	.-4      	; 0x2770 <_Z10SystemInitv+0x124>
    2774:	00 00       	nop
    2776:	da 98       	cbi	0x1b, 2	; 27
    2778:	8f e9       	ldi	r24, 0x9F	; 159
    277a:	9f e0       	ldi	r25, 0x0F	; 15
    277c:	01 97       	sbiw	r24, 0x01	; 1
    277e:	f1 f7       	brne	.-4      	; 0x277c <_Z10SystemInitv+0x130>
    2780:	00 c0       	rjmp	.+0      	; 0x2782 <_Z10SystemInitv+0x136>
    2782:	00 00       	nop
    2784:	84 e2       	ldi	r24, 0x24	; 36
    2786:	8b bb       	out	0x1b, r24	; 27
    2788:	95 e0       	ldi	r25, 0x05	; 5
    278a:	9a 95       	dec	r25
    278c:	f1 f7       	brne	.-4      	; 0x278a <_Z10SystemInitv+0x13e>
    278e:	00 00       	nop
    2790:	da 98       	cbi	0x1b, 2	; 27
    2792:	d8 98       	cbi	0x1b, 0	; 27
    2794:	20 fe       	sbrs	r2, 0
    2796:	3e c2       	rjmp	.+1148   	; 0x2c14 <_Z10SystemInitv+0x5c8>
    2798:	8c e2       	ldi	r24, 0x2C	; 44
    279a:	8b bb       	out	0x1b, r24	; 27
    279c:	25 e0       	ldi	r18, 0x05	; 5
    279e:	2a 95       	dec	r18
    27a0:	f1 f7       	brne	.-4      	; 0x279e <_Z10SystemInitv+0x152>
    27a2:	00 00       	nop
    27a4:	da 98       	cbi	0x1b, 2	; 27
    27a6:	8a e1       	ldi	r24, 0x1A	; 26
    27a8:	8a 95       	dec	r24
    27aa:	f1 f7       	brne	.-4      	; 0x27a8 <_Z10SystemInitv+0x15c>
    27ac:	00 c0       	rjmp	.+0      	; 0x27ae <_Z10SystemInitv+0x162>
    27ae:	20 fc       	sbrc	r2, 0
    27b0:	3a c2       	rjmp	.+1140   	; 0x2c26 <_Z10SystemInitv+0x5da>
    27b2:	84 e8       	ldi	r24, 0x84	; 132
    27b4:	8b bb       	out	0x1b, r24	; 27
    27b6:	95 e0       	ldi	r25, 0x05	; 5
    27b8:	9a 95       	dec	r25
    27ba:	f1 f7       	brne	.-4      	; 0x27b8 <_Z10SystemInitv+0x16c>
    27bc:	00 00       	nop
    27be:	da 98       	cbi	0x1b, 2	; 27
    27c0:	8f ee       	ldi	r24, 0xEF	; 239
    27c2:	9a e0       	ldi	r25, 0x0A	; 10
    27c4:	01 97       	sbiw	r24, 0x01	; 1
    27c6:	f1 f7       	brne	.-4      	; 0x27c4 <_Z10SystemInitv+0x178>
    27c8:	00 c0       	rjmp	.+0      	; 0x27ca <_Z10SystemInitv+0x17e>
    27ca:	00 00       	nop
    27cc:	da 9a       	sbi	0x1b, 2	; 27
    27ce:	d8 98       	cbi	0x1b, 0	; 27
    27d0:	20 fe       	sbrs	r2, 0
    27d2:	26 c2       	rjmp	.+1100   	; 0x2c20 <_Z10SystemInitv+0x5d4>
    27d4:	8c e1       	ldi	r24, 0x1C	; 28
    27d6:	8b bb       	out	0x1b, r24	; 27
    27d8:	95 e0       	ldi	r25, 0x05	; 5
    27da:	9a 95       	dec	r25
    27dc:	f1 f7       	brne	.-4      	; 0x27da <_Z10SystemInitv+0x18e>
    27de:	00 00       	nop
    27e0:	da 98       	cbi	0x1b, 2	; 27
    27e2:	2a e1       	ldi	r18, 0x1A	; 26
    27e4:	2a 95       	dec	r18
    27e6:	f1 f7       	brne	.-4      	; 0x27e4 <_Z10SystemInitv+0x198>
    27e8:	00 c0       	rjmp	.+0      	; 0x27ea <_Z10SystemInitv+0x19e>
    27ea:	20 fc       	sbrc	r2, 0
    27ec:	56 c2       	rjmp	.+1196   	; 0x2c9a <_Z10SystemInitv+0x64e>
    27ee:	84 e0       	ldi	r24, 0x04	; 4
    27f0:	8b bb       	out	0x1b, r24	; 27
    27f2:	85 e0       	ldi	r24, 0x05	; 5
    27f4:	8a 95       	dec	r24
    27f6:	f1 f7       	brne	.-4      	; 0x27f4 <_Z10SystemInitv+0x1a8>
    27f8:	00 00       	nop
    27fa:	da 98       	cbi	0x1b, 2	; 27
    27fc:	8f ee       	ldi	r24, 0xEF	; 239
    27fe:	9a e0       	ldi	r25, 0x0A	; 10
    2800:	01 97       	sbiw	r24, 0x01	; 1
    2802:	f1 f7       	brne	.-4      	; 0x2800 <_Z10SystemInitv+0x1b4>
    2804:	00 c0       	rjmp	.+0      	; 0x2806 <_Z10SystemInitv+0x1ba>
    2806:	00 00       	nop
    2808:	da 9a       	sbi	0x1b, 2	; 27
    280a:	d8 98       	cbi	0x1b, 0	; 27
    280c:	20 fe       	sbrs	r2, 0
    280e:	05 c2       	rjmp	.+1034   	; 0x2c1a <_Z10SystemInitv+0x5ce>
    2810:	8c e0       	ldi	r24, 0x0C	; 12
    2812:	8b bb       	out	0x1b, r24	; 27
    2814:	95 e0       	ldi	r25, 0x05	; 5
    2816:	9a 95       	dec	r25
    2818:	f1 f7       	brne	.-4      	; 0x2816 <_Z10SystemInitv+0x1ca>
    281a:	00 00       	nop
    281c:	da 98       	cbi	0x1b, 2	; 27
    281e:	2a e1       	ldi	r18, 0x1A	; 26
    2820:	2a 95       	dec	r18
    2822:	f1 f7       	brne	.-4      	; 0x2820 <_Z10SystemInitv+0x1d4>
    2824:	00 c0       	rjmp	.+0      	; 0x2826 <_Z10SystemInitv+0x1da>
    2826:	20 fc       	sbrc	r2, 0
    2828:	35 c2       	rjmp	.+1130   	; 0x2c94 <_Z10SystemInitv+0x648>
    282a:	84 e6       	ldi	r24, 0x64	; 100
    282c:	8b bb       	out	0x1b, r24	; 27
    282e:	85 e0       	ldi	r24, 0x05	; 5
    2830:	8a 95       	dec	r24
    2832:	f1 f7       	brne	.-4      	; 0x2830 <_Z10SystemInitv+0x1e4>
    2834:	00 00       	nop
    2836:	da 98       	cbi	0x1b, 2	; 27
    2838:	8f ee       	ldi	r24, 0xEF	; 239
    283a:	9a e0       	ldi	r25, 0x0A	; 10
    283c:	01 97       	sbiw	r24, 0x01	; 1
    283e:	f1 f7       	brne	.-4      	; 0x283c <_Z10SystemInitv+0x1f0>
    2840:	00 c0       	rjmp	.+0      	; 0x2842 <_Z10SystemInitv+0x1f6>
    2842:	00 00       	nop
    2844:	da 9a       	sbi	0x1b, 2	; 27
    2846:	d8 98       	cbi	0x1b, 0	; 27
    2848:	20 fe       	sbrs	r2, 0
    284a:	d2 c1       	rjmp	.+932    	; 0x2bf0 <_Z10SystemInitv+0x5a4>
    284c:	8c e0       	ldi	r24, 0x0C	; 12
    284e:	8b bb       	out	0x1b, r24	; 27
    2850:	95 e0       	ldi	r25, 0x05	; 5
    2852:	9a 95       	dec	r25
    2854:	f1 f7       	brne	.-4      	; 0x2852 <_Z10SystemInitv+0x206>
    2856:	00 00       	nop
    2858:	da 98       	cbi	0x1b, 2	; 27
    285a:	2a e1       	ldi	r18, 0x1A	; 26
    285c:	2a 95       	dec	r18
    285e:	f1 f7       	brne	.-4      	; 0x285c <_Z10SystemInitv+0x210>
    2860:	00 c0       	rjmp	.+0      	; 0x2862 <_Z10SystemInitv+0x216>
    2862:	20 fc       	sbrc	r2, 0
    2864:	14 c2       	rjmp	.+1064   	; 0x2c8e <_Z10SystemInitv+0x642>
    2866:	84 ec       	ldi	r24, 0xC4	; 196
    2868:	8b bb       	out	0x1b, r24	; 27
    286a:	85 e0       	ldi	r24, 0x05	; 5
    286c:	8a 95       	dec	r24
    286e:	f1 f7       	brne	.-4      	; 0x286c <_Z10SystemInitv+0x220>
    2870:	00 00       	nop
    2872:	da 98       	cbi	0x1b, 2	; 27
    2874:	8f ee       	ldi	r24, 0xEF	; 239
    2876:	9a e0       	ldi	r25, 0x0A	; 10
    2878:	01 97       	sbiw	r24, 0x01	; 1
    287a:	f1 f7       	brne	.-4      	; 0x2878 <_Z10SystemInitv+0x22c>
    287c:	00 c0       	rjmp	.+0      	; 0x287e <_Z10SystemInitv+0x232>
    287e:	00 00       	nop
    2880:	da 9a       	sbi	0x1b, 2	; 27
    2882:	d8 98       	cbi	0x1b, 0	; 27
    2884:	20 fe       	sbrs	r2, 0
    2886:	b1 c1       	rjmp	.+866    	; 0x2bea <_Z10SystemInitv+0x59e>
    2888:	8c e0       	ldi	r24, 0x0C	; 12
    288a:	8b bb       	out	0x1b, r24	; 27
    288c:	95 e0       	ldi	r25, 0x05	; 5
    288e:	9a 95       	dec	r25
    2890:	f1 f7       	brne	.-4      	; 0x288e <_Z10SystemInitv+0x242>
    2892:	00 00       	nop
    2894:	da 98       	cbi	0x1b, 2	; 27
    2896:	2a e1       	ldi	r18, 0x1A	; 26
    2898:	2a 95       	dec	r18
    289a:	f1 f7       	brne	.-4      	; 0x2898 <_Z10SystemInitv+0x24c>
    289c:	00 c0       	rjmp	.+0      	; 0x289e <_Z10SystemInitv+0x252>
    289e:	20 fc       	sbrc	r2, 0
    28a0:	f3 c1       	rjmp	.+998    	; 0x2c88 <_Z10SystemInitv+0x63c>
    28a2:	84 e1       	ldi	r24, 0x14	; 20
    28a4:	8b bb       	out	0x1b, r24	; 27
    28a6:	85 e0       	ldi	r24, 0x05	; 5
    28a8:	8a 95       	dec	r24
    28aa:	f1 f7       	brne	.-4      	; 0x28a8 <_Z10SystemInitv+0x25c>
    28ac:	00 00       	nop
    28ae:	da 98       	cbi	0x1b, 2	; 27
    28b0:	8f ee       	ldi	r24, 0xEF	; 239
    28b2:	9a e0       	ldi	r25, 0x0A	; 10
    28b4:	01 97       	sbiw	r24, 0x01	; 1
    28b6:	f1 f7       	brne	.-4      	; 0x28b4 <_Z10SystemInitv+0x268>
    28b8:	00 c0       	rjmp	.+0      	; 0x28ba <_Z10SystemInitv+0x26e>
    28ba:	00 00       	nop
    28bc:	da 9a       	sbi	0x1b, 2	; 27
    28be:	8f e3       	ldi	r24, 0x3F	; 63
    28c0:	9f e1       	ldi	r25, 0x1F	; 31
    28c2:	01 97       	sbiw	r24, 0x01	; 1
    28c4:	f1 f7       	brne	.-4      	; 0x28c2 <_Z10SystemInitv+0x276>
    28c6:	00 c0       	rjmp	.+0      	; 0x28c8 <_Z10SystemInitv+0x27c>
    28c8:	00 00       	nop
    28ca:	68 94       	set
    28cc:	20 f8       	bld	r2, 0
    28ce:	db 9a       	sbi	0x1b, 3	; 27
    28d0:	d8 98       	cbi	0x1b, 0	; 27
    28d2:	20 fe       	sbrs	r2, 0
    28d4:	9c c1       	rjmp	.+824    	; 0x2c0e <_Z10SystemInitv+0x5c2>
    28d6:	8c e8       	ldi	r24, 0x8C	; 140
    28d8:	8b bb       	out	0x1b, r24	; 27
    28da:	95 e0       	ldi	r25, 0x05	; 5
    28dc:	9a 95       	dec	r25
    28de:	f1 f7       	brne	.-4      	; 0x28dc <_Z10SystemInitv+0x290>
    28e0:	00 00       	nop
    28e2:	da 98       	cbi	0x1b, 2	; 27
    28e4:	2a e1       	ldi	r18, 0x1A	; 26
    28e6:	2a 95       	dec	r18
    28e8:	f1 f7       	brne	.-4      	; 0x28e6 <_Z10SystemInitv+0x29a>
    28ea:	00 c0       	rjmp	.+0      	; 0x28ec <_Z10SystemInitv+0x2a0>
    28ec:	20 fc       	sbrc	r2, 0
    28ee:	c9 c1       	rjmp	.+914    	; 0x2c82 <_Z10SystemInitv+0x636>
    28f0:	84 e0       	ldi	r24, 0x04	; 4
    28f2:	8b bb       	out	0x1b, r24	; 27
    28f4:	85 e0       	ldi	r24, 0x05	; 5
    28f6:	8a 95       	dec	r24
    28f8:	f1 f7       	brne	.-4      	; 0x28f6 <_Z10SystemInitv+0x2aa>
    28fa:	00 00       	nop
    28fc:	da 98       	cbi	0x1b, 2	; 27
    28fe:	8f ee       	ldi	r24, 0xEF	; 239
    2900:	9a e0       	ldi	r25, 0x0A	; 10
    2902:	01 97       	sbiw	r24, 0x01	; 1
    2904:	f1 f7       	brne	.-4      	; 0x2902 <_Z10SystemInitv+0x2b6>
    2906:	00 c0       	rjmp	.+0      	; 0x2908 <_Z10SystemInitv+0x2bc>
    2908:	00 00       	nop
    290a:	da 9a       	sbi	0x1b, 2	; 27
    290c:	e2 ef       	ldi	r30, 0xF2	; 242
    290e:	f1 e0       	ldi	r31, 0x01	; 1
    2910:	84 e5       	ldi	r24, 0x54	; 84
    2912:	20 fc       	sbrc	r2, 0
    2914:	42 c0       	rjmp	.+132    	; 0x299a <_Z10SystemInitv+0x34e>
    2916:	d8 9a       	sbi	0x1b, 0	; 27
    2918:	98 2f       	mov	r25, r24
    291a:	90 7f       	andi	r25, 0xF0	; 240
    291c:	95 60       	ori	r25, 0x05	; 5
    291e:	9b bb       	out	0x1b, r25	; 27
    2920:	95 e0       	ldi	r25, 0x05	; 5
    2922:	9a 95       	dec	r25
    2924:	f1 f7       	brne	.-4      	; 0x2922 <_Z10SystemInitv+0x2d6>
    2926:	00 00       	nop
    2928:	da 98       	cbi	0x1b, 2	; 27
    292a:	2a e1       	ldi	r18, 0x1A	; 26
    292c:	2a 95       	dec	r18
    292e:	f1 f7       	brne	.-4      	; 0x292c <_Z10SystemInitv+0x2e0>
    2930:	00 c0       	rjmp	.+0      	; 0x2932 <_Z10SystemInitv+0x2e6>
    2932:	20 e1       	ldi	r18, 0x10	; 16
    2934:	82 9f       	mul	r24, r18
    2936:	c0 01       	movw	r24, r0
    2938:	11 24       	eor	r1, r1
    293a:	85 60       	ori	r24, 0x05	; 5
    293c:	8b bb       	out	0x1b, r24	; 27
    293e:	85 e0       	ldi	r24, 0x05	; 5
    2940:	8a 95       	dec	r24
    2942:	f1 f7       	brne	.-4      	; 0x2940 <_Z10SystemInitv+0x2f4>
    2944:	00 00       	nop
    2946:	da 98       	cbi	0x1b, 2	; 27
    2948:	95 ed       	ldi	r25, 0xD5	; 213
    294a:	9a 95       	dec	r25
    294c:	f1 f7       	brne	.-4      	; 0x294a <_Z10SystemInitv+0x2fe>
    294e:	00 00       	nop
    2950:	da 9a       	sbi	0x1b, 2	; 27
    2952:	81 91       	ld	r24, Z+
    2954:	81 11       	cpse	r24, r1
    2956:	df cf       	rjmp	.-66     	; 0x2916 <_Z10SystemInitv+0x2ca>
    2958:	d8 98       	cbi	0x1b, 0	; 27
    295a:	20 fe       	sbrs	r2, 0
    295c:	43 c1       	rjmp	.+646    	; 0x2be4 <_Z10SystemInitv+0x598>
    295e:	8c ec       	ldi	r24, 0xCC	; 204
    2960:	8b bb       	out	0x1b, r24	; 27
    2962:	25 e0       	ldi	r18, 0x05	; 5
    2964:	2a 95       	dec	r18
    2966:	f1 f7       	brne	.-4      	; 0x2964 <_Z10SystemInitv+0x318>
    2968:	00 00       	nop
    296a:	da 98       	cbi	0x1b, 2	; 27
    296c:	8a e1       	ldi	r24, 0x1A	; 26
    296e:	8a 95       	dec	r24
    2970:	f1 f7       	brne	.-4      	; 0x296e <_Z10SystemInitv+0x322>
    2972:	00 c0       	rjmp	.+0      	; 0x2974 <_Z10SystemInitv+0x328>
    2974:	20 fc       	sbrc	r2, 0
    2976:	82 c1       	rjmp	.+772    	; 0x2c7c <_Z10SystemInitv+0x630>
    2978:	84 e0       	ldi	r24, 0x04	; 4
    297a:	8b bb       	out	0x1b, r24	; 27
    297c:	95 e0       	ldi	r25, 0x05	; 5
    297e:	9a 95       	dec	r25
    2980:	f1 f7       	brne	.-4      	; 0x297e <_Z10SystemInitv+0x332>
    2982:	00 00       	nop
    2984:	da 98       	cbi	0x1b, 2	; 27
    2986:	8f ee       	ldi	r24, 0xEF	; 239
    2988:	9a e0       	ldi	r25, 0x0A	; 10
    298a:	01 97       	sbiw	r24, 0x01	; 1
    298c:	f1 f7       	brne	.-4      	; 0x298a <_Z10SystemInitv+0x33e>
    298e:	00 c0       	rjmp	.+0      	; 0x2990 <_Z10SystemInitv+0x344>
    2990:	00 00       	nop
    2992:	da 9a       	sbi	0x1b, 2	; 27
    2994:	22 fe       	sbrs	r2, 2
    2996:	23 c0       	rjmp	.+70     	; 0x29de <_Z10SystemInitv+0x392>
    2998:	ff cf       	rjmp	.-2      	; 0x2998 <_Z10SystemInitv+0x34c>
    299a:	d8 9a       	sbi	0x1b, 0	; 27
    299c:	98 2f       	mov	r25, r24
    299e:	90 7f       	andi	r25, 0xF0	; 240
    29a0:	9d 60       	ori	r25, 0x0D	; 13
    29a2:	9b bb       	out	0x1b, r25	; 27
    29a4:	95 e0       	ldi	r25, 0x05	; 5
    29a6:	9a 95       	dec	r25
    29a8:	f1 f7       	brne	.-4      	; 0x29a6 <_Z10SystemInitv+0x35a>
    29aa:	00 00       	nop
    29ac:	da 98       	cbi	0x1b, 2	; 27
    29ae:	2a e1       	ldi	r18, 0x1A	; 26
    29b0:	2a 95       	dec	r18
    29b2:	f1 f7       	brne	.-4      	; 0x29b0 <_Z10SystemInitv+0x364>
    29b4:	00 c0       	rjmp	.+0      	; 0x29b6 <_Z10SystemInitv+0x36a>
    29b6:	20 e1       	ldi	r18, 0x10	; 16
    29b8:	82 9f       	mul	r24, r18
    29ba:	c0 01       	movw	r24, r0
    29bc:	11 24       	eor	r1, r1
    29be:	8d 60       	ori	r24, 0x0D	; 13
    29c0:	8b bb       	out	0x1b, r24	; 27
    29c2:	85 e0       	ldi	r24, 0x05	; 5
    29c4:	8a 95       	dec	r24
    29c6:	f1 f7       	brne	.-4      	; 0x29c4 <_Z10SystemInitv+0x378>
    29c8:	00 00       	nop
    29ca:	da 98       	cbi	0x1b, 2	; 27
    29cc:	95 ed       	ldi	r25, 0xD5	; 213
    29ce:	9a 95       	dec	r25
    29d0:	f1 f7       	brne	.-4      	; 0x29ce <_Z10SystemInitv+0x382>
    29d2:	00 00       	nop
    29d4:	da 9a       	sbi	0x1b, 2	; 27
    29d6:	81 91       	ld	r24, Z+
    29d8:	81 11       	cpse	r24, r1
    29da:	df cf       	rjmp	.-66     	; 0x299a <_Z10SystemInitv+0x34e>
    29dc:	bd cf       	rjmp	.-134    	; 0x2958 <_Z10SystemInitv+0x30c>
    29de:	68 94       	set
    29e0:	22 f8       	bld	r2, 2
    29e2:	80 e2       	ldi	r24, 0x20	; 32
    29e4:	87 b9       	out	0x07, r24	; 7
    29e6:	95 e3       	ldi	r25, 0x35	; 53
    29e8:	9a 95       	dec	r25
    29ea:	f1 f7       	brne	.-4      	; 0x29e8 <_Z10SystemInitv+0x39c>
    29ec:	00 00       	nop
    29ee:	36 9a       	sbi	0x06, 6	; 6
    29f0:	34 9b       	sbis	0x06, 4	; 6
    29f2:	fe cf       	rjmp	.-4      	; 0x29f0 <_Z10SystemInitv+0x3a4>
    29f4:	34 9a       	sbi	0x06, 4	; 6
    29f6:	e8 94       	clt
    29f8:	22 f8       	bld	r2, 2
    29fa:	85 b1       	in	r24, 0x05	; 5
    29fc:	2e e5       	ldi	r18, 0x5E	; 94
    29fe:	82 9f       	mul	r24, r18
    2a00:	c0 01       	movw	r24, r0
    2a02:	11 24       	eor	r1, r1
    2a04:	63 e1       	ldi	r22, 0x13	; 19
    2a06:	70 e0       	ldi	r23, 0x00	; 0
    2a08:	0e 94 83 1a 	call	0x3506	; 0x3506 <__divmodhi4>
    2a0c:	9b 01       	movw	r18, r22
    2a0e:	cb 01       	movw	r24, r22
    2a10:	64 e6       	ldi	r22, 0x64	; 100
    2a12:	70 e0       	ldi	r23, 0x00	; 0
    2a14:	0e 94 83 1a 	call	0x3506	; 0x3506 <__divmodhi4>
    2a18:	60 5d       	subi	r22, 0xD0	; 208
    2a1a:	d8 9a       	sbi	0x1b, 0	; 27
    2a1c:	20 fe       	sbrs	r2, 0
    2a1e:	f4 c0       	rjmp	.+488    	; 0x2c08 <_Z10SystemInitv+0x5bc>
    2a20:	8d e3       	ldi	r24, 0x3D	; 61
    2a22:	8b bb       	out	0x1b, r24	; 27
    2a24:	85 e0       	ldi	r24, 0x05	; 5
    2a26:	8a 95       	dec	r24
    2a28:	f1 f7       	brne	.-4      	; 0x2a26 <_Z10SystemInitv+0x3da>
    2a2a:	00 00       	nop
    2a2c:	da 98       	cbi	0x1b, 2	; 27
    2a2e:	9a e1       	ldi	r25, 0x1A	; 26
    2a30:	9a 95       	dec	r25
    2a32:	f1 f7       	brne	.-4      	; 0x2a30 <_Z10SystemInitv+0x3e4>
    2a34:	00 c0       	rjmp	.+0      	; 0x2a36 <_Z10SystemInitv+0x3ea>
    2a36:	20 fc       	sbrc	r2, 0
    2a38:	1a c1       	rjmp	.+564    	; 0x2c6e <_Z10SystemInitv+0x622>
    2a3a:	90 e1       	ldi	r25, 0x10	; 16
    2a3c:	69 9f       	mul	r22, r25
    2a3e:	b0 01       	movw	r22, r0
    2a40:	11 24       	eor	r1, r1
    2a42:	65 60       	ori	r22, 0x05	; 5
    2a44:	6b bb       	out	0x1b, r22	; 27
    2a46:	85 e0       	ldi	r24, 0x05	; 5
    2a48:	8a 95       	dec	r24
    2a4a:	f1 f7       	brne	.-4      	; 0x2a48 <_Z10SystemInitv+0x3fc>
    2a4c:	00 00       	nop
    2a4e:	da 98       	cbi	0x1b, 2	; 27
    2a50:	95 ed       	ldi	r25, 0xD5	; 213
    2a52:	9a 95       	dec	r25
    2a54:	f1 f7       	brne	.-4      	; 0x2a52 <_Z10SystemInitv+0x406>
    2a56:	00 00       	nop
    2a58:	da 9a       	sbi	0x1b, 2	; 27
    2a5a:	d8 9a       	sbi	0x1b, 0	; 27
    2a5c:	20 fe       	sbrs	r2, 0
    2a5e:	d1 c0       	rjmp	.+418    	; 0x2c02 <_Z10SystemInitv+0x5b6>
    2a60:	8d e2       	ldi	r24, 0x2D	; 45
    2a62:	8b bb       	out	0x1b, r24	; 27
    2a64:	85 e0       	ldi	r24, 0x05	; 5
    2a66:	8a 95       	dec	r24
    2a68:	f1 f7       	brne	.-4      	; 0x2a66 <_Z10SystemInitv+0x41a>
    2a6a:	00 00       	nop
    2a6c:	da 98       	cbi	0x1b, 2	; 27
    2a6e:	9a e1       	ldi	r25, 0x1A	; 26
    2a70:	9a 95       	dec	r25
    2a72:	f1 f7       	brne	.-4      	; 0x2a70 <_Z10SystemInitv+0x424>
    2a74:	00 c0       	rjmp	.+0      	; 0x2a76 <_Z10SystemInitv+0x42a>
    2a76:	20 fc       	sbrc	r2, 0
    2a78:	f7 c0       	rjmp	.+494    	; 0x2c68 <_Z10SystemInitv+0x61c>
    2a7a:	85 ee       	ldi	r24, 0xE5	; 229
    2a7c:	8b bb       	out	0x1b, r24	; 27
    2a7e:	85 e0       	ldi	r24, 0x05	; 5
    2a80:	8a 95       	dec	r24
    2a82:	f1 f7       	brne	.-4      	; 0x2a80 <_Z10SystemInitv+0x434>
    2a84:	00 00       	nop
    2a86:	da 98       	cbi	0x1b, 2	; 27
    2a88:	95 ed       	ldi	r25, 0xD5	; 213
    2a8a:	9a 95       	dec	r25
    2a8c:	f1 f7       	brne	.-4      	; 0x2a8a <_Z10SystemInitv+0x43e>
    2a8e:	00 00       	nop
    2a90:	da 9a       	sbi	0x1b, 2	; 27
    2a92:	c9 01       	movw	r24, r18
    2a94:	64 e6       	ldi	r22, 0x64	; 100
    2a96:	70 e0       	ldi	r23, 0x00	; 0
    2a98:	0e 94 83 1a 	call	0x3506	; 0x3506 <__divmodhi4>
    2a9c:	6a e0       	ldi	r22, 0x0A	; 10
    2a9e:	70 e0       	ldi	r23, 0x00	; 0
    2aa0:	0e 94 83 1a 	call	0x3506	; 0x3506 <__divmodhi4>
    2aa4:	60 5d       	subi	r22, 0xD0	; 208
    2aa6:	d8 9a       	sbi	0x1b, 0	; 27
    2aa8:	20 fe       	sbrs	r2, 0
    2aaa:	a8 c0       	rjmp	.+336    	; 0x2bfc <_Z10SystemInitv+0x5b0>
    2aac:	8d e3       	ldi	r24, 0x3D	; 61
    2aae:	8b bb       	out	0x1b, r24	; 27
    2ab0:	85 e0       	ldi	r24, 0x05	; 5
    2ab2:	8a 95       	dec	r24
    2ab4:	f1 f7       	brne	.-4      	; 0x2ab2 <_Z10SystemInitv+0x466>
    2ab6:	00 00       	nop
    2ab8:	da 98       	cbi	0x1b, 2	; 27
    2aba:	9a e1       	ldi	r25, 0x1A	; 26
    2abc:	9a 95       	dec	r25
    2abe:	f1 f7       	brne	.-4      	; 0x2abc <_Z10SystemInitv+0x470>
    2ac0:	00 c0       	rjmp	.+0      	; 0x2ac2 <_Z10SystemInitv+0x476>
    2ac2:	20 fc       	sbrc	r2, 0
    2ac4:	ca c0       	rjmp	.+404    	; 0x2c5a <_Z10SystemInitv+0x60e>
    2ac6:	90 e1       	ldi	r25, 0x10	; 16
    2ac8:	69 9f       	mul	r22, r25
    2aca:	b0 01       	movw	r22, r0
    2acc:	11 24       	eor	r1, r1
    2ace:	65 60       	ori	r22, 0x05	; 5
    2ad0:	6b bb       	out	0x1b, r22	; 27
    2ad2:	85 e0       	ldi	r24, 0x05	; 5
    2ad4:	8a 95       	dec	r24
    2ad6:	f1 f7       	brne	.-4      	; 0x2ad4 <_Z10SystemInitv+0x488>
    2ad8:	00 00       	nop
    2ada:	da 98       	cbi	0x1b, 2	; 27
    2adc:	95 ed       	ldi	r25, 0xD5	; 213
    2ade:	9a 95       	dec	r25
    2ae0:	f1 f7       	brne	.-4      	; 0x2ade <_Z10SystemInitv+0x492>
    2ae2:	00 00       	nop
    2ae4:	da 9a       	sbi	0x1b, 2	; 27
    2ae6:	c9 01       	movw	r24, r18
    2ae8:	6a e0       	ldi	r22, 0x0A	; 10
    2aea:	70 e0       	ldi	r23, 0x00	; 0
    2aec:	0e 94 83 1a 	call	0x3506	; 0x3506 <__divmodhi4>
    2af0:	80 5d       	subi	r24, 0xD0	; 208
    2af2:	d8 9a       	sbi	0x1b, 0	; 27
    2af4:	20 fe       	sbrs	r2, 0
    2af6:	7f c0       	rjmp	.+254    	; 0x2bf6 <_Z10SystemInitv+0x5aa>
    2af8:	9d e3       	ldi	r25, 0x3D	; 61
    2afa:	9b bb       	out	0x1b, r25	; 27
    2afc:	25 e0       	ldi	r18, 0x05	; 5
    2afe:	2a 95       	dec	r18
    2b00:	f1 f7       	brne	.-4      	; 0x2afe <_Z10SystemInitv+0x4b2>
    2b02:	00 00       	nop
    2b04:	da 98       	cbi	0x1b, 2	; 27
    2b06:	9a e1       	ldi	r25, 0x1A	; 26
    2b08:	9a 95       	dec	r25
    2b0a:	f1 f7       	brne	.-4      	; 0x2b08 <_Z10SystemInitv+0x4bc>
    2b0c:	00 c0       	rjmp	.+0      	; 0x2b0e <_Z10SystemInitv+0x4c2>
    2b0e:	20 e1       	ldi	r18, 0x10	; 16
    2b10:	82 9f       	mul	r24, r18
    2b12:	c0 01       	movw	r24, r0
    2b14:	11 24       	eor	r1, r1
    2b16:	20 fc       	sbrc	r2, 0
    2b18:	9d c0       	rjmp	.+314    	; 0x2c54 <_Z10SystemInitv+0x608>
    2b1a:	85 60       	ori	r24, 0x05	; 5
    2b1c:	8b bb       	out	0x1b, r24	; 27
    2b1e:	95 e0       	ldi	r25, 0x05	; 5
    2b20:	9a 95       	dec	r25
    2b22:	f1 f7       	brne	.-4      	; 0x2b20 <_Z10SystemInitv+0x4d4>
    2b24:	00 00       	nop
    2b26:	da 98       	cbi	0x1b, 2	; 27
    2b28:	25 ed       	ldi	r18, 0xD5	; 213
    2b2a:	2a 95       	dec	r18
    2b2c:	f1 f7       	brne	.-4      	; 0x2b2a <_Z10SystemInitv+0x4de>
    2b2e:	00 00       	nop
    2b30:	da 9a       	sbi	0x1b, 2	; 27
    2b32:	e3 e0       	ldi	r30, 0x03	; 3
    2b34:	f2 e0       	ldi	r31, 0x02	; 2
    2b36:	80 e2       	ldi	r24, 0x20	; 32
    2b38:	20 fc       	sbrc	r2, 0
    2b3a:	32 c0       	rjmp	.+100    	; 0x2ba0 <_Z10SystemInitv+0x554>
    2b3c:	d8 9a       	sbi	0x1b, 0	; 27
    2b3e:	98 2f       	mov	r25, r24
    2b40:	90 7f       	andi	r25, 0xF0	; 240
    2b42:	95 60       	ori	r25, 0x05	; 5
    2b44:	9b bb       	out	0x1b, r25	; 27
    2b46:	95 e0       	ldi	r25, 0x05	; 5
    2b48:	9a 95       	dec	r25
    2b4a:	f1 f7       	brne	.-4      	; 0x2b48 <_Z10SystemInitv+0x4fc>
    2b4c:	00 00       	nop
    2b4e:	da 98       	cbi	0x1b, 2	; 27
    2b50:	2a e1       	ldi	r18, 0x1A	; 26
    2b52:	2a 95       	dec	r18
    2b54:	f1 f7       	brne	.-4      	; 0x2b52 <_Z10SystemInitv+0x506>
    2b56:	00 c0       	rjmp	.+0      	; 0x2b58 <_Z10SystemInitv+0x50c>
    2b58:	20 e1       	ldi	r18, 0x10	; 16
    2b5a:	82 9f       	mul	r24, r18
    2b5c:	c0 01       	movw	r24, r0
    2b5e:	11 24       	eor	r1, r1
    2b60:	85 60       	ori	r24, 0x05	; 5
    2b62:	8b bb       	out	0x1b, r24	; 27
    2b64:	85 e0       	ldi	r24, 0x05	; 5
    2b66:	8a 95       	dec	r24
    2b68:	f1 f7       	brne	.-4      	; 0x2b66 <_Z10SystemInitv+0x51a>
    2b6a:	00 00       	nop
    2b6c:	da 98       	cbi	0x1b, 2	; 27
    2b6e:	95 ed       	ldi	r25, 0xD5	; 213
    2b70:	9a 95       	dec	r25
    2b72:	f1 f7       	brne	.-4      	; 0x2b70 <_Z10SystemInitv+0x524>
    2b74:	00 00       	nop
    2b76:	da 9a       	sbi	0x1b, 2	; 27
    2b78:	81 91       	ld	r24, Z+
    2b7a:	81 11       	cpse	r24, r1
    2b7c:	df cf       	rjmp	.-66     	; 0x2b3c <_Z10SystemInitv+0x4f0>
    2b7e:	80 e2       	ldi	r24, 0x20	; 32
    2b80:	92 e0       	ldi	r25, 0x02	; 2
    2b82:	0e 94 b5 01 	call	0x36a	; 0x36a <_ZN8myBuzzer5Nada1Ev>
    2b86:	2f ef       	ldi	r18, 0xFF	; 255
    2b88:	83 ec       	ldi	r24, 0xC3	; 195
    2b8a:	99 e0       	ldi	r25, 0x09	; 9
    2b8c:	21 50       	subi	r18, 0x01	; 1
    2b8e:	80 40       	sbci	r24, 0x00	; 0
    2b90:	90 40       	sbci	r25, 0x00	; 0
    2b92:	e1 f7       	brne	.-8      	; 0x2b8c <_Z10SystemInitv+0x540>
    2b94:	00 c0       	rjmp	.+0      	; 0x2b96 <_Z10SystemInitv+0x54a>
    2b96:	00 00       	nop
    2b98:	22 fe       	sbrs	r2, 2
    2b9a:	48 c0       	rjmp	.+144    	; 0x2c2c <_Z10SystemInitv+0x5e0>
    2b9c:	78 94       	sei
    2b9e:	08 95       	ret
    2ba0:	d8 9a       	sbi	0x1b, 0	; 27
    2ba2:	98 2f       	mov	r25, r24
    2ba4:	90 7f       	andi	r25, 0xF0	; 240
    2ba6:	9d 60       	ori	r25, 0x0D	; 13
    2ba8:	9b bb       	out	0x1b, r25	; 27
    2baa:	25 e0       	ldi	r18, 0x05	; 5
    2bac:	2a 95       	dec	r18
    2bae:	f1 f7       	brne	.-4      	; 0x2bac <_Z10SystemInitv+0x560>
    2bb0:	00 00       	nop
    2bb2:	da 98       	cbi	0x1b, 2	; 27
    2bb4:	9a e1       	ldi	r25, 0x1A	; 26
    2bb6:	9a 95       	dec	r25
    2bb8:	f1 f7       	brne	.-4      	; 0x2bb6 <_Z10SystemInitv+0x56a>
    2bba:	00 c0       	rjmp	.+0      	; 0x2bbc <_Z10SystemInitv+0x570>
    2bbc:	20 e1       	ldi	r18, 0x10	; 16
    2bbe:	82 9f       	mul	r24, r18
    2bc0:	c0 01       	movw	r24, r0
    2bc2:	11 24       	eor	r1, r1
    2bc4:	8d 60       	ori	r24, 0x0D	; 13
    2bc6:	8b bb       	out	0x1b, r24	; 27
    2bc8:	85 e0       	ldi	r24, 0x05	; 5
    2bca:	8a 95       	dec	r24
    2bcc:	f1 f7       	brne	.-4      	; 0x2bca <_Z10SystemInitv+0x57e>
    2bce:	00 00       	nop
    2bd0:	da 98       	cbi	0x1b, 2	; 27
    2bd2:	95 ed       	ldi	r25, 0xD5	; 213
    2bd4:	9a 95       	dec	r25
    2bd6:	f1 f7       	brne	.-4      	; 0x2bd4 <_Z10SystemInitv+0x588>
    2bd8:	00 00       	nop
    2bda:	da 9a       	sbi	0x1b, 2	; 27
    2bdc:	81 91       	ld	r24, Z+
    2bde:	81 11       	cpse	r24, r1
    2be0:	df cf       	rjmp	.-66     	; 0x2ba0 <_Z10SystemInitv+0x554>
    2be2:	cd cf       	rjmp	.-102    	; 0x2b7e <_Z10SystemInitv+0x532>
    2be4:	84 ec       	ldi	r24, 0xC4	; 196
    2be6:	8b bb       	out	0x1b, r24	; 27
    2be8:	bc ce       	rjmp	.-648    	; 0x2962 <_Z10SystemInitv+0x316>
    2bea:	84 e0       	ldi	r24, 0x04	; 4
    2bec:	8b bb       	out	0x1b, r24	; 27
    2bee:	4e ce       	rjmp	.-868    	; 0x288c <_Z10SystemInitv+0x240>
    2bf0:	84 e0       	ldi	r24, 0x04	; 4
    2bf2:	8b bb       	out	0x1b, r24	; 27
    2bf4:	2d ce       	rjmp	.-934    	; 0x2850 <_Z10SystemInitv+0x204>
    2bf6:	95 e3       	ldi	r25, 0x35	; 53
    2bf8:	9b bb       	out	0x1b, r25	; 27
    2bfa:	80 cf       	rjmp	.-256    	; 0x2afc <_Z10SystemInitv+0x4b0>
    2bfc:	85 e3       	ldi	r24, 0x35	; 53
    2bfe:	8b bb       	out	0x1b, r24	; 27
    2c00:	57 cf       	rjmp	.-338    	; 0x2ab0 <_Z10SystemInitv+0x464>
    2c02:	85 e2       	ldi	r24, 0x25	; 37
    2c04:	8b bb       	out	0x1b, r24	; 27
    2c06:	2e cf       	rjmp	.-420    	; 0x2a64 <_Z10SystemInitv+0x418>
    2c08:	85 e3       	ldi	r24, 0x35	; 53
    2c0a:	8b bb       	out	0x1b, r24	; 27
    2c0c:	0b cf       	rjmp	.-490    	; 0x2a24 <_Z10SystemInitv+0x3d8>
    2c0e:	84 e8       	ldi	r24, 0x84	; 132
    2c10:	8b bb       	out	0x1b, r24	; 27
    2c12:	63 ce       	rjmp	.-826    	; 0x28da <_Z10SystemInitv+0x28e>
    2c14:	84 e2       	ldi	r24, 0x24	; 36
    2c16:	8b bb       	out	0x1b, r24	; 27
    2c18:	c1 cd       	rjmp	.-1150   	; 0x279c <_Z10SystemInitv+0x150>
    2c1a:	84 e0       	ldi	r24, 0x04	; 4
    2c1c:	8b bb       	out	0x1b, r24	; 27
    2c1e:	fa cd       	rjmp	.-1036   	; 0x2814 <_Z10SystemInitv+0x1c8>
    2c20:	84 e1       	ldi	r24, 0x14	; 20
    2c22:	8b bb       	out	0x1b, r24	; 27
    2c24:	d9 cd       	rjmp	.-1102   	; 0x27d8 <_Z10SystemInitv+0x18c>
    2c26:	8c e8       	ldi	r24, 0x8C	; 140
    2c28:	8b bb       	out	0x1b, r24	; 27
    2c2a:	c5 cd       	rjmp	.-1142   	; 0x27b6 <_Z10SystemInitv+0x16a>
    2c2c:	68 94       	set
    2c2e:	22 f8       	bld	r2, 2
    2c30:	80 e2       	ldi	r24, 0x20	; 32
    2c32:	87 b9       	out	0x07, r24	; 7
    2c34:	25 e3       	ldi	r18, 0x35	; 53
    2c36:	2a 95       	dec	r18
    2c38:	f1 f7       	brne	.-4      	; 0x2c36 <_Z10SystemInitv+0x5ea>
    2c3a:	00 00       	nop
    2c3c:	36 9a       	sbi	0x06, 6	; 6
    2c3e:	34 9b       	sbis	0x06, 4	; 6
    2c40:	fe cf       	rjmp	.-4      	; 0x2c3e <_Z10SystemInitv+0x5f2>
    2c42:	34 9a       	sbi	0x06, 4	; 6
    2c44:	e8 94       	clt
    2c46:	22 f8       	bld	r2, 2
    2c48:	85 b1       	in	r24, 0x05	; 5
    2c4a:	84 36       	cpi	r24, 0x64	; 100
    2c4c:	08 f0       	brcs	.+2      	; 0x2c50 <_Z10SystemInitv+0x604>
    2c4e:	a6 cf       	rjmp	.-180    	; 0x2b9c <_Z10SystemInitv+0x550>
    2c50:	0e 94 70 03 	call	0x6e0	; 0x6e0 <_ZN5myADC9CekBatereEv.part.6>
    2c54:	8d 60       	ori	r24, 0x0D	; 13
    2c56:	8b bb       	out	0x1b, r24	; 27
    2c58:	62 cf       	rjmp	.-316    	; 0x2b1e <_Z10SystemInitv+0x4d2>
    2c5a:	80 e1       	ldi	r24, 0x10	; 16
    2c5c:	68 9f       	mul	r22, r24
    2c5e:	b0 01       	movw	r22, r0
    2c60:	11 24       	eor	r1, r1
    2c62:	6d 60       	ori	r22, 0x0D	; 13
    2c64:	6b bb       	out	0x1b, r22	; 27
    2c66:	35 cf       	rjmp	.-406    	; 0x2ad2 <_Z10SystemInitv+0x486>
    2c68:	8d ee       	ldi	r24, 0xED	; 237
    2c6a:	8b bb       	out	0x1b, r24	; 27
    2c6c:	08 cf       	rjmp	.-496    	; 0x2a7e <_Z10SystemInitv+0x432>
    2c6e:	80 e1       	ldi	r24, 0x10	; 16
    2c70:	68 9f       	mul	r22, r24
    2c72:	b0 01       	movw	r22, r0
    2c74:	11 24       	eor	r1, r1
    2c76:	6d 60       	ori	r22, 0x0D	; 13
    2c78:	6b bb       	out	0x1b, r22	; 27
    2c7a:	e5 ce       	rjmp	.-566    	; 0x2a46 <_Z10SystemInitv+0x3fa>
    2c7c:	8c e0       	ldi	r24, 0x0C	; 12
    2c7e:	8b bb       	out	0x1b, r24	; 27
    2c80:	7d ce       	rjmp	.-774    	; 0x297c <_Z10SystemInitv+0x330>
    2c82:	8c e0       	ldi	r24, 0x0C	; 12
    2c84:	8b bb       	out	0x1b, r24	; 27
    2c86:	36 ce       	rjmp	.-916    	; 0x28f4 <_Z10SystemInitv+0x2a8>
    2c88:	8c e1       	ldi	r24, 0x1C	; 28
    2c8a:	8b bb       	out	0x1b, r24	; 27
    2c8c:	0c ce       	rjmp	.-1000   	; 0x28a6 <_Z10SystemInitv+0x25a>
    2c8e:	8c ec       	ldi	r24, 0xCC	; 204
    2c90:	8b bb       	out	0x1b, r24	; 27
    2c92:	eb cd       	rjmp	.-1066   	; 0x286a <_Z10SystemInitv+0x21e>
    2c94:	8c e6       	ldi	r24, 0x6C	; 108
    2c96:	8b bb       	out	0x1b, r24	; 27
    2c98:	ca cd       	rjmp	.-1132   	; 0x282e <_Z10SystemInitv+0x1e2>
    2c9a:	8c e0       	ldi	r24, 0x0C	; 12
    2c9c:	8b bb       	out	0x1b, r24	; 27
    2c9e:	a9 cd       	rjmp	.-1198   	; 0x27f2 <_Z10SystemInitv+0x1a6>

00002ca0 <main>:
    2ca0:	cf 93       	push	r28
    2ca2:	df 93       	push	r29
    2ca4:	00 d0       	rcall	.+0      	; 0x2ca6 <main+0x6>
    2ca6:	00 d0       	rcall	.+0      	; 0x2ca8 <main+0x8>
    2ca8:	00 d0       	rcall	.+0      	; 0x2caa <main+0xa>
    2caa:	cd b7       	in	r28, 0x3d	; 61
    2cac:	de b7       	in	r29, 0x3e	; 62
    2cae:	0e 94 26 13 	call	0x264c	; 0x264c <_Z10SystemInitv>
    2cb2:	61 e0       	ldi	r22, 0x01	; 1
    2cb4:	8f e1       	ldi	r24, 0x1F	; 31
    2cb6:	92 e0       	ldi	r25, 0x02	; 2
    2cb8:	0e 94 c1 02 	call	0x582	; 0x582 <_ZN5myLCD8PerintahEh>
    2cbc:	8f e3       	ldi	r24, 0x3F	; 63
    2cbe:	9f e1       	ldi	r25, 0x1F	; 31
    2cc0:	01 97       	sbiw	r24, 0x01	; 1
    2cc2:	f1 f7       	brne	.-4      	; 0x2cc0 <main+0x20>
    2cc4:	00 c0       	rjmp	.+0      	; 0x2cc6 <main+0x26>
    2cc6:	00 00       	nop
    2cc8:	19 82       	std	Y+1, r1	; 0x01
    2cca:	81 e0       	ldi	r24, 0x01	; 1
    2ccc:	8a 83       	std	Y+2, r24	; 0x02
    2cce:	8b 83       	std	Y+3, r24	; 0x03
    2cd0:	68 94       	set
    2cd2:	31 f8       	bld	r3, 1
    2cd4:	68 94       	set
    2cd6:	32 f8       	bld	r3, 2
    2cd8:	68 94       	set
    2cda:	30 f8       	bld	r3, 0
    2cdc:	80 e5       	ldi	r24, 0x50	; 80
    2cde:	90 e0       	ldi	r25, 0x00	; 0
    2ce0:	9d 83       	std	Y+5, r25	; 0x05
    2ce2:	8c 83       	std	Y+4, r24	; 0x04
    2ce4:	1e 82       	std	Y+6, r1	; 0x06
    2ce6:	98 99       	sbic	0x13, 0	; 19
    2ce8:	05 c0       	rjmp	.+10     	; 0x2cf4 <main+0x54>
    2cea:	60 e0       	ldi	r22, 0x00	; 0
    2cec:	8c e1       	ldi	r24, 0x1C	; 28
    2cee:	92 e0       	ldi	r25, 0x02	; 2
    2cf0:	0e 94 ee 05 	call	0xbdc	; 0xbdc <_ZN13mySensorGaris11KalibrasiRBEh>
    2cf4:	99 99       	sbic	0x13, 1	; 19
    2cf6:	05 c0       	rjmp	.+10     	; 0x2d02 <main+0x62>
    2cf8:	61 e0       	ldi	r22, 0x01	; 1
    2cfa:	8c e1       	ldi	r24, 0x1C	; 28
    2cfc:	92 e0       	ldi	r25, 0x02	; 2
    2cfe:	0e 94 ee 05 	call	0xbdc	; 0xbdc <_ZN13mySensorGaris11KalibrasiRBEh>
    2d02:	44 e0       	ldi	r20, 0x04	; 4
    2d04:	60 e0       	ldi	r22, 0x00	; 0
    2d06:	ce 01       	movw	r24, r28
    2d08:	01 96       	adiw	r24, 0x01	; 1
    2d0a:	0e 94 05 0a 	call	0x140a	; 0x140a <_ZN11myScanGaris17UpdateSensorGarisEhh>
    2d0e:	44 e0       	ldi	r20, 0x04	; 4
    2d10:	60 e0       	ldi	r22, 0x00	; 0
    2d12:	ce 01       	movw	r24, r28
    2d14:	01 96       	adiw	r24, 0x01	; 1
    2d16:	0e 94 46 0a 	call	0x148c	; 0x148c <_ZN11myScanGaris21UpdateSensorPertigaanEhh>
    2d1a:	68 e0       	ldi	r22, 0x08	; 8
    2d1c:	72 e0       	ldi	r23, 0x02	; 2
    2d1e:	80 e0       	ldi	r24, 0x00	; 0
    2d20:	0e 94 dd 00 	call	0x1ba	; 0x1ba <_ZN5myLCD5TulisEhPKc.constprop.31>
    2d24:	61 e1       	ldi	r22, 0x11	; 17
    2d26:	72 e0       	ldi	r23, 0x02	; 2
    2d28:	81 e0       	ldi	r24, 0x01	; 1
    2d2a:	0e 94 dd 00 	call	0x1ba	; 0x1ba <_ZN5myLCD5TulisEhPKc.constprop.31>
    2d2e:	95 e1       	ldi	r25, 0x15	; 21
    2d30:	e9 2e       	mov	r14, r25
    2d32:	2d e1       	ldi	r18, 0x1D	; 29
    2d34:	c2 2e       	mov	r12, r18
    2d36:	05 e3       	ldi	r16, 0x35	; 53
    2d38:	1d e3       	ldi	r17, 0x3D	; 61
    2d3a:	35 e0       	ldi	r19, 0x05	; 5
    2d3c:	f3 2e       	mov	r15, r19
    2d3e:	4d e0       	ldi	r20, 0x0D	; 13
    2d40:	d4 2e       	mov	r13, r20
    2d42:	9b 9b       	sbis	0x13, 3	; 19
    2d44:	cf c0       	rjmp	.+414    	; 0x2ee4 <main+0x244>
    2d46:	9a 9b       	sbis	0x13, 2	; 19
    2d48:	cd c0       	rjmp	.+410    	; 0x2ee4 <main+0x244>
    2d4a:	d8 98       	cbi	0x1b, 0	; 27
    2d4c:	20 fe       	sbrs	r2, 0
    2d4e:	00 c1       	rjmp	.+512    	; 0x2f50 <main+0x2b0>
    2d50:	8c e8       	ldi	r24, 0x8C	; 140
    2d52:	8b bb       	out	0x1b, r24	; 27
    2d54:	95 e0       	ldi	r25, 0x05	; 5
    2d56:	9a 95       	dec	r25
    2d58:	f1 f7       	brne	.-4      	; 0x2d56 <main+0xb6>
    2d5a:	00 00       	nop
    2d5c:	da 98       	cbi	0x1b, 2	; 27
    2d5e:	2a e1       	ldi	r18, 0x1A	; 26
    2d60:	2a 95       	dec	r18
    2d62:	f1 f7       	brne	.-4      	; 0x2d60 <main+0xc0>
    2d64:	00 c0       	rjmp	.+0      	; 0x2d66 <main+0xc6>
    2d66:	20 fc       	sbrc	r2, 0
    2d68:	f9 c0       	rjmp	.+498    	; 0x2f5c <main+0x2bc>
    2d6a:	84 e8       	ldi	r24, 0x84	; 132
    2d6c:	8b bb       	out	0x1b, r24	; 27
    2d6e:	85 e0       	ldi	r24, 0x05	; 5
    2d70:	8a 95       	dec	r24
    2d72:	f1 f7       	brne	.-4      	; 0x2d70 <main+0xd0>
    2d74:	00 00       	nop
    2d76:	da 98       	cbi	0x1b, 2	; 27
    2d78:	8f ee       	ldi	r24, 0xEF	; 239
    2d7a:	9a e0       	ldi	r25, 0x0A	; 10
    2d7c:	01 97       	sbiw	r24, 0x01	; 1
    2d7e:	f1 f7       	brne	.-4      	; 0x2d7c <main+0xdc>
    2d80:	00 c0       	rjmp	.+0      	; 0x2d82 <main+0xe2>
    2d82:	00 00       	nop
    2d84:	da 9a       	sbi	0x1b, 2	; 27
    2d86:	60 e4       	ldi	r22, 0x40	; 64
    2d88:	80 e0       	ldi	r24, 0x00	; 0
    2d8a:	0e 94 78 00 	call	0xf0	; 0xf0 <_ZN13mySensorGaris9BacaGarisEhh.constprop.12>
    2d8e:	48 2f       	mov	r20, r24
    2d90:	50 e0       	ldi	r21, 0x00	; 0
    2d92:	87 e0       	ldi	r24, 0x07	; 7
    2d94:	90 e0       	ldi	r25, 0x00	; 0
    2d96:	62 2d       	mov	r22, r2
    2d98:	61 70       	andi	r22, 0x01	; 1
    2d9a:	1b c0       	rjmp	.+54     	; 0x2dd2 <main+0x132>
    2d9c:	66 23       	and	r22, r22
    2d9e:	99 f1       	breq	.+102    	; 0x2e06 <main+0x166>
    2da0:	1b bb       	out	0x1b, r17	; 27
    2da2:	25 e0       	ldi	r18, 0x05	; 5
    2da4:	2a 95       	dec	r18
    2da6:	f1 f7       	brne	.-4      	; 0x2da4 <main+0x104>
    2da8:	00 00       	nop
    2daa:	da 98       	cbi	0x1b, 2	; 27
    2dac:	2a e1       	ldi	r18, 0x1A	; 26
    2dae:	2a 95       	dec	r18
    2db0:	f1 f7       	brne	.-4      	; 0x2dae <main+0x10e>
    2db2:	00 c0       	rjmp	.+0      	; 0x2db4 <main+0x114>
    2db4:	61 11       	cpse	r22, r1
    2db6:	2b c0       	rjmp	.+86     	; 0x2e0e <main+0x16e>
    2db8:	fb ba       	out	0x1b, r15	; 27
    2dba:	25 e0       	ldi	r18, 0x05	; 5
    2dbc:	2a 95       	dec	r18
    2dbe:	f1 f7       	brne	.-4      	; 0x2dbc <main+0x11c>
    2dc0:	00 00       	nop
    2dc2:	da 98       	cbi	0x1b, 2	; 27
    2dc4:	25 ed       	ldi	r18, 0xD5	; 213
    2dc6:	2a 95       	dec	r18
    2dc8:	f1 f7       	brne	.-4      	; 0x2dc6 <main+0x126>
    2dca:	00 00       	nop
    2dcc:	da 9a       	sbi	0x1b, 2	; 27
    2dce:	01 97       	sbiw	r24, 0x01	; 1
    2dd0:	10 f1       	brcs	.+68     	; 0x2e16 <main+0x176>
    2dd2:	9a 01       	movw	r18, r20
    2dd4:	08 2e       	mov	r0, r24
    2dd6:	02 c0       	rjmp	.+4      	; 0x2ddc <main+0x13c>
    2dd8:	35 95       	asr	r19
    2dda:	27 95       	ror	r18
    2ddc:	0a 94       	dec	r0
    2dde:	e2 f7       	brpl	.-8      	; 0x2dd8 <main+0x138>
    2de0:	d8 9a       	sbi	0x1b, 0	; 27
    2de2:	20 ff       	sbrs	r18, 0
    2de4:	db cf       	rjmp	.-74     	; 0x2d9c <main+0xfc>
    2de6:	66 23       	and	r22, r22
    2de8:	81 f0       	breq	.+32     	; 0x2e0a <main+0x16a>
    2dea:	1b bb       	out	0x1b, r17	; 27
    2dec:	25 e0       	ldi	r18, 0x05	; 5
    2dee:	2a 95       	dec	r18
    2df0:	f1 f7       	brne	.-4      	; 0x2dee <main+0x14e>
    2df2:	00 00       	nop
    2df4:	da 98       	cbi	0x1b, 2	; 27
    2df6:	2a e1       	ldi	r18, 0x1A	; 26
    2df8:	2a 95       	dec	r18
    2dfa:	f1 f7       	brne	.-4      	; 0x2df8 <main+0x158>
    2dfc:	00 c0       	rjmp	.+0      	; 0x2dfe <main+0x15e>
    2dfe:	61 11       	cpse	r22, r1
    2e00:	08 c0       	rjmp	.+16     	; 0x2e12 <main+0x172>
    2e02:	eb ba       	out	0x1b, r14	; 27
    2e04:	da cf       	rjmp	.-76     	; 0x2dba <main+0x11a>
    2e06:	0b bb       	out	0x1b, r16	; 27
    2e08:	cc cf       	rjmp	.-104    	; 0x2da2 <main+0x102>
    2e0a:	0b bb       	out	0x1b, r16	; 27
    2e0c:	ef cf       	rjmp	.-34     	; 0x2dec <main+0x14c>
    2e0e:	db ba       	out	0x1b, r13	; 27
    2e10:	d4 cf       	rjmp	.-88     	; 0x2dba <main+0x11a>
    2e12:	cb ba       	out	0x1b, r12	; 27
    2e14:	d2 cf       	rjmp	.-92     	; 0x2dba <main+0x11a>
    2e16:	d8 98       	cbi	0x1b, 0	; 27
    2e18:	20 fe       	sbrs	r2, 0
    2e1a:	97 c0       	rjmp	.+302    	; 0x2f4a <main+0x2aa>
    2e1c:	8c ec       	ldi	r24, 0xCC	; 204
    2e1e:	8b bb       	out	0x1b, r24	; 27
    2e20:	85 e0       	ldi	r24, 0x05	; 5
    2e22:	8a 95       	dec	r24
    2e24:	f1 f7       	brne	.-4      	; 0x2e22 <main+0x182>
    2e26:	00 00       	nop
    2e28:	da 98       	cbi	0x1b, 2	; 27
    2e2a:	9a e1       	ldi	r25, 0x1A	; 26
    2e2c:	9a 95       	dec	r25
    2e2e:	f1 f7       	brne	.-4      	; 0x2e2c <main+0x18c>
    2e30:	00 c0       	rjmp	.+0      	; 0x2e32 <main+0x192>
    2e32:	20 fc       	sbrc	r2, 0
    2e34:	90 c0       	rjmp	.+288    	; 0x2f56 <main+0x2b6>
    2e36:	84 e8       	ldi	r24, 0x84	; 132
    2e38:	8b bb       	out	0x1b, r24	; 27
    2e3a:	25 e0       	ldi	r18, 0x05	; 5
    2e3c:	2a 95       	dec	r18
    2e3e:	f1 f7       	brne	.-4      	; 0x2e3c <main+0x19c>
    2e40:	00 00       	nop
    2e42:	da 98       	cbi	0x1b, 2	; 27
    2e44:	8f ee       	ldi	r24, 0xEF	; 239
    2e46:	9a e0       	ldi	r25, 0x0A	; 10
    2e48:	01 97       	sbiw	r24, 0x01	; 1
    2e4a:	f1 f7       	brne	.-4      	; 0x2e48 <main+0x1a8>
    2e4c:	00 c0       	rjmp	.+0      	; 0x2e4e <main+0x1ae>
    2e4e:	00 00       	nop
    2e50:	da 9a       	sbi	0x1b, 2	; 27
    2e52:	60 e4       	ldi	r22, 0x40	; 64
    2e54:	81 e0       	ldi	r24, 0x01	; 1
    2e56:	0e 94 78 00 	call	0xf0	; 0xf0 <_ZN13mySensorGaris9BacaGarisEhh.constprop.12>
    2e5a:	48 2f       	mov	r20, r24
    2e5c:	50 e0       	ldi	r21, 0x00	; 0
    2e5e:	87 e0       	ldi	r24, 0x07	; 7
    2e60:	90 e0       	ldi	r25, 0x00	; 0
    2e62:	62 2d       	mov	r22, r2
    2e64:	61 70       	andi	r22, 0x01	; 1
    2e66:	1c c0       	rjmp	.+56     	; 0x2ea0 <main+0x200>
    2e68:	66 23       	and	r22, r22
    2e6a:	a1 f1       	breq	.+104    	; 0x2ed4 <main+0x234>
    2e6c:	1b bb       	out	0x1b, r17	; 27
    2e6e:	25 e0       	ldi	r18, 0x05	; 5
    2e70:	2a 95       	dec	r18
    2e72:	f1 f7       	brne	.-4      	; 0x2e70 <main+0x1d0>
    2e74:	00 00       	nop
    2e76:	da 98       	cbi	0x1b, 2	; 27
    2e78:	2a e1       	ldi	r18, 0x1A	; 26
    2e7a:	2a 95       	dec	r18
    2e7c:	f1 f7       	brne	.-4      	; 0x2e7a <main+0x1da>
    2e7e:	00 c0       	rjmp	.+0      	; 0x2e80 <main+0x1e0>
    2e80:	61 11       	cpse	r22, r1
    2e82:	2e c0       	rjmp	.+92     	; 0x2ee0 <main+0x240>
    2e84:	fb ba       	out	0x1b, r15	; 27
    2e86:	25 e0       	ldi	r18, 0x05	; 5
    2e88:	2a 95       	dec	r18
    2e8a:	f1 f7       	brne	.-4      	; 0x2e88 <main+0x1e8>
    2e8c:	00 00       	nop
    2e8e:	da 98       	cbi	0x1b, 2	; 27
    2e90:	25 ed       	ldi	r18, 0xD5	; 213
    2e92:	2a 95       	dec	r18
    2e94:	f1 f7       	brne	.-4      	; 0x2e92 <main+0x1f2>
    2e96:	00 00       	nop
    2e98:	da 9a       	sbi	0x1b, 2	; 27
    2e9a:	01 97       	sbiw	r24, 0x01	; 1
    2e9c:	08 f4       	brcc	.+2      	; 0x2ea0 <main+0x200>
    2e9e:	51 cf       	rjmp	.-350    	; 0x2d42 <main+0xa2>
    2ea0:	9a 01       	movw	r18, r20
    2ea2:	08 2e       	mov	r0, r24
    2ea4:	02 c0       	rjmp	.+4      	; 0x2eaa <main+0x20a>
    2ea6:	35 95       	asr	r19
    2ea8:	27 95       	ror	r18
    2eaa:	0a 94       	dec	r0
    2eac:	e2 f7       	brpl	.-8      	; 0x2ea6 <main+0x206>
    2eae:	d8 9a       	sbi	0x1b, 0	; 27
    2eb0:	20 ff       	sbrs	r18, 0
    2eb2:	da cf       	rjmp	.-76     	; 0x2e68 <main+0x1c8>
    2eb4:	66 23       	and	r22, r22
    2eb6:	81 f0       	breq	.+32     	; 0x2ed8 <main+0x238>
    2eb8:	1b bb       	out	0x1b, r17	; 27
    2eba:	25 e0       	ldi	r18, 0x05	; 5
    2ebc:	2a 95       	dec	r18
    2ebe:	f1 f7       	brne	.-4      	; 0x2ebc <main+0x21c>
    2ec0:	00 00       	nop
    2ec2:	da 98       	cbi	0x1b, 2	; 27
    2ec4:	2a e1       	ldi	r18, 0x1A	; 26
    2ec6:	2a 95       	dec	r18
    2ec8:	f1 f7       	brne	.-4      	; 0x2ec6 <main+0x226>
    2eca:	00 c0       	rjmp	.+0      	; 0x2ecc <main+0x22c>
    2ecc:	61 11       	cpse	r22, r1
    2ece:	06 c0       	rjmp	.+12     	; 0x2edc <main+0x23c>
    2ed0:	eb ba       	out	0x1b, r14	; 27
    2ed2:	d9 cf       	rjmp	.-78     	; 0x2e86 <main+0x1e6>
    2ed4:	0b bb       	out	0x1b, r16	; 27
    2ed6:	cb cf       	rjmp	.-106    	; 0x2e6e <main+0x1ce>
    2ed8:	0b bb       	out	0x1b, r16	; 27
    2eda:	ef cf       	rjmp	.-34     	; 0x2eba <main+0x21a>
    2edc:	cb ba       	out	0x1b, r12	; 27
    2ede:	d3 cf       	rjmp	.-90     	; 0x2e86 <main+0x1e6>
    2ee0:	db ba       	out	0x1b, r13	; 27
    2ee2:	d1 cf       	rjmp	.-94     	; 0x2e86 <main+0x1e6>
    2ee4:	61 e0       	ldi	r22, 0x01	; 1
    2ee6:	8f e1       	ldi	r24, 0x1F	; 31
    2ee8:	92 e0       	ldi	r25, 0x02	; 2
    2eea:	0e 94 c1 02 	call	0x582	; 0x582 <_ZN5myLCD8PerintahEh>
    2eee:	8f e3       	ldi	r24, 0x3F	; 63
    2ef0:	9f e1       	ldi	r25, 0x1F	; 31
    2ef2:	01 97       	sbiw	r24, 0x01	; 1
    2ef4:	f1 f7       	brne	.-4      	; 0x2ef2 <main+0x252>
    2ef6:	00 c0       	rjmp	.+0      	; 0x2ef8 <main+0x258>
    2ef8:	00 00       	nop
    2efa:	9b 9b       	sbis	0x13, 3	; 19
    2efc:	43 c0       	rjmp	.+134    	; 0x2f84 <main+0x2e4>
    2efe:	9a 99       	sbic	0x13, 2	; 19
    2f00:	30 c0       	rjmp	.+96     	; 0x2f62 <main+0x2c2>
    2f02:	80 e2       	ldi	r24, 0x20	; 32
    2f04:	92 e0       	ldi	r25, 0x02	; 2
    2f06:	0e 94 3b 02 	call	0x476	; 0x476 <_ZN8myBuzzer5Nada2Ev>
    2f0a:	11 e0       	ldi	r17, 0x01	; 1
    2f0c:	19 83       	std	Y+1, r17	; 0x01
    2f0e:	68 ec       	ldi	r22, 0xC8	; 200
    2f10:	70 e0       	ldi	r23, 0x00	; 0
    2f12:	ce 01       	movw	r24, r28
    2f14:	01 96       	adiw	r24, 0x01	; 1
    2f16:	0e 94 15 0d 	call	0x1a2a	; 0x1a2a <_ZN11myScanGaris9Scan3KiriEj>
    2f1a:	19 83       	std	Y+1, r17	; 0x01
    2f1c:	45 e0       	ldi	r20, 0x05	; 5
    2f1e:	65 e0       	ldi	r22, 0x05	; 5
    2f20:	ce 01       	movw	r24, r28
    2f22:	01 96       	adiw	r24, 0x01	; 1
    2f24:	0e 94 20 11 	call	0x2240	; 0x2240 <_ZN11myScanGaris17BelokKiriGarisPIDEhh>
    2f28:	68 94       	set
    2f2a:	23 f8       	bld	r2, 3
    2f2c:	10 92 21 02 	sts	0x0221, r1
    2f30:	10 92 22 02 	sts	0x0222, r1
    2f34:	10 92 85 00 	sts	0x0085, r1
    2f38:	10 92 84 00 	sts	0x0084, r1
    2f3c:	10 92 87 00 	sts	0x0087, r1
    2f40:	10 92 86 00 	sts	0x0086, r1
    2f44:	0e 94 5e 04 	call	0x8bc	; 0x8bc <_ZN5myADC9CekBatereEv.constprop.13>
    2f48:	ff cf       	rjmp	.-2      	; 0x2f48 <main+0x2a8>
    2f4a:	84 ec       	ldi	r24, 0xC4	; 196
    2f4c:	8b bb       	out	0x1b, r24	; 27
    2f4e:	68 cf       	rjmp	.-304    	; 0x2e20 <main+0x180>
    2f50:	84 e8       	ldi	r24, 0x84	; 132
    2f52:	8b bb       	out	0x1b, r24	; 27
    2f54:	ff ce       	rjmp	.-514    	; 0x2d54 <main+0xb4>
    2f56:	8c e8       	ldi	r24, 0x8C	; 140
    2f58:	8b bb       	out	0x1b, r24	; 27
    2f5a:	6f cf       	rjmp	.-290    	; 0x2e3a <main+0x19a>
    2f5c:	8c e8       	ldi	r24, 0x8C	; 140
    2f5e:	8b bb       	out	0x1b, r24	; 27
    2f60:	06 cf       	rjmp	.-500    	; 0x2d6e <main+0xce>
    2f62:	68 94       	set
    2f64:	23 f8       	bld	r2, 3
    2f66:	10 92 21 02 	sts	0x0221, r1
    2f6a:	10 92 22 02 	sts	0x0222, r1
    2f6e:	10 92 85 00 	sts	0x0085, r1
    2f72:	10 92 84 00 	sts	0x0084, r1
    2f76:	10 92 87 00 	sts	0x0087, r1
    2f7a:	10 92 86 00 	sts	0x0086, r1
    2f7e:	0e 94 5e 04 	call	0x8bc	; 0x8bc <_ZN5myADC9CekBatereEv.constprop.13>
    2f82:	ff cf       	rjmp	.-2      	; 0x2f82 <main+0x2e2>
    2f84:	80 e2       	ldi	r24, 0x20	; 32
    2f86:	92 e0       	ldi	r25, 0x02	; 2
    2f88:	0e 94 b5 01 	call	0x36a	; 0x36a <_ZN8myBuzzer5Nada1Ev>
    2f8c:	19 82       	std	Y+1, r1	; 0x01
    2f8e:	68 ec       	ldi	r22, 0xC8	; 200
    2f90:	70 e0       	ldi	r23, 0x00	; 0
    2f92:	ce 01       	movw	r24, r28
    2f94:	01 96       	adiw	r24, 0x01	; 1
    2f96:	0e 94 e1 0c 	call	0x19c2	; 0x19c2 <_ZN11myScanGaris10Scan3KananEj>
    2f9a:	19 82       	std	Y+1, r1	; 0x01
    2f9c:	6c e2       	ldi	r22, 0x2C	; 44
    2f9e:	71 e0       	ldi	r23, 0x01	; 1
    2fa0:	ce 01       	movw	r24, r28
    2fa2:	01 96       	adiw	r24, 0x01	; 1
    2fa4:	0e 94 49 0d 	call	0x1a92	; 0x1a92 <_ZN11myScanGaris10Scan2KananEj>
    2fa8:	19 82       	std	Y+1, r1	; 0x01
    2faa:	4a e0       	ldi	r20, 0x0A	; 10
    2fac:	6f e0       	ldi	r22, 0x0F	; 15
    2fae:	ce 01       	movw	r24, r28
    2fb0:	01 96       	adiw	r24, 0x01	; 1
    2fb2:	0e 94 e2 10 	call	0x21c4	; 0x21c4 <_ZN11myScanGaris18BelokKananGarisPIDEhh>
    2fb6:	19 82       	std	Y+1, r1	; 0x01
    2fb8:	6a ef       	ldi	r22, 0xFA	; 250
    2fba:	70 e0       	ldi	r23, 0x00	; 0
    2fbc:	ce 01       	movw	r24, r28
    2fbe:	01 96       	adiw	r24, 0x01	; 1
    2fc0:	0e 94 e1 0c 	call	0x19c2	; 0x19c2 <_ZN11myScanGaris10Scan3KananEj>
    2fc4:	19 82       	std	Y+1, r1	; 0x01
    2fc6:	66 e9       	ldi	r22, 0x96	; 150
    2fc8:	70 e0       	ldi	r23, 0x00	; 0
    2fca:	ce 01       	movw	r24, r28
    2fcc:	01 96       	adiw	r24, 0x01	; 1
    2fce:	0e 94 e1 0c 	call	0x19c2	; 0x19c2 <_ZN11myScanGaris10Scan3KananEj>
    2fd2:	11 e0       	ldi	r17, 0x01	; 1
    2fd4:	19 83       	std	Y+1, r17	; 0x01
    2fd6:	6c e2       	ldi	r22, 0x2C	; 44
    2fd8:	71 e0       	ldi	r23, 0x01	; 1
    2fda:	ce 01       	movw	r24, r28
    2fdc:	01 96       	adiw	r24, 0x01	; 1
    2fde:	0e 94 e1 0c 	call	0x19c2	; 0x19c2 <_ZN11myScanGaris10Scan3KananEj>
    2fe2:	19 83       	std	Y+1, r17	; 0x01
    2fe4:	4a e0       	ldi	r20, 0x0A	; 10
    2fe6:	6a e0       	ldi	r22, 0x0A	; 10
    2fe8:	ce 01       	movw	r24, r28
    2fea:	01 96       	adiw	r24, 0x01	; 1
    2fec:	0e 94 e2 10 	call	0x21c4	; 0x21c4 <_ZN11myScanGaris18BelokKananGarisPIDEhh>
    2ff0:	19 83       	std	Y+1, r17	; 0x01
    2ff2:	6c e2       	ldi	r22, 0x2C	; 44
    2ff4:	71 e0       	ldi	r23, 0x01	; 1
    2ff6:	ce 01       	movw	r24, r28
    2ff8:	01 96       	adiw	r24, 0x01	; 1
    2ffa:	0e 94 b1 0d 	call	0x1b62	; 0x1b62 <_ZN11myScanGaris11Scan3TengahEj>
    2ffe:	19 83       	std	Y+1, r17	; 0x01
    3000:	48 e0       	ldi	r20, 0x08	; 8
    3002:	68 e0       	ldi	r22, 0x08	; 8
    3004:	ce 01       	movw	r24, r28
    3006:	01 96       	adiw	r24, 0x01	; 1
    3008:	0e 94 e2 10 	call	0x21c4	; 0x21c4 <_ZN11myScanGaris18BelokKananGarisPIDEhh>
    300c:	19 83       	std	Y+1, r17	; 0x01
    300e:	68 ec       	ldi	r22, 0xC8	; 200
    3010:	70 e0       	ldi	r23, 0x00	; 0
    3012:	ce 01       	movw	r24, r28
    3014:	01 96       	adiw	r24, 0x01	; 1
    3016:	0e 94 e1 0c 	call	0x19c2	; 0x19c2 <_ZN11myScanGaris10Scan3KananEj>
    301a:	19 83       	std	Y+1, r17	; 0x01
    301c:	6a ef       	ldi	r22, 0xFA	; 250
    301e:	70 e0       	ldi	r23, 0x00	; 0
    3020:	ce 01       	movw	r24, r28
    3022:	01 96       	adiw	r24, 0x01	; 1
    3024:	0e 94 e1 0c 	call	0x19c2	; 0x19c2 <_ZN11myScanGaris10Scan3KananEj>
    3028:	19 83       	std	Y+1, r17	; 0x01
    302a:	66 e9       	ldi	r22, 0x96	; 150
    302c:	70 e0       	ldi	r23, 0x00	; 0
    302e:	ce 01       	movw	r24, r28
    3030:	01 96       	adiw	r24, 0x01	; 1
    3032:	0e 94 e1 0c 	call	0x19c2	; 0x19c2 <_ZN11myScanGaris10Scan3KananEj>
    3036:	19 82       	std	Y+1, r1	; 0x01
    3038:	6c e2       	ldi	r22, 0x2C	; 44
    303a:	71 e0       	ldi	r23, 0x01	; 1
    303c:	ce 01       	movw	r24, r28
    303e:	01 96       	adiw	r24, 0x01	; 1
    3040:	0e 94 15 0d 	call	0x1a2a	; 0x1a2a <_ZN11myScanGaris9Scan3KiriEj>
    3044:	19 82       	std	Y+1, r1	; 0x01
    3046:	6a ef       	ldi	r22, 0xFA	; 250
    3048:	70 e0       	ldi	r23, 0x00	; 0
    304a:	ce 01       	movw	r24, r28
    304c:	01 96       	adiw	r24, 0x01	; 1
    304e:	0e 94 7d 0d 	call	0x1afa	; 0x1afa <_ZN11myScanGaris9Scan2KiriEj>
    3052:	19 82       	std	Y+1, r1	; 0x01
    3054:	6c ed       	ldi	r22, 0xDC	; 220
    3056:	70 e0       	ldi	r23, 0x00	; 0
    3058:	ce 01       	movw	r24, r28
    305a:	01 96       	adiw	r24, 0x01	; 1
    305c:	0e 94 15 0d 	call	0x1a2a	; 0x1a2a <_ZN11myScanGaris9Scan3KiriEj>
    3060:	19 82       	std	Y+1, r1	; 0x01
    3062:	68 ec       	ldi	r22, 0xC8	; 200
    3064:	70 e0       	ldi	r23, 0x00	; 0
    3066:	ce 01       	movw	r24, r28
    3068:	01 96       	adiw	r24, 0x01	; 1
    306a:	0e 94 15 0d 	call	0x1a2a	; 0x1a2a <_ZN11myScanGaris9Scan3KiriEj>
    306e:	19 82       	std	Y+1, r1	; 0x01
    3070:	66 e9       	ldi	r22, 0x96	; 150
    3072:	70 e0       	ldi	r23, 0x00	; 0
    3074:	ce 01       	movw	r24, r28
    3076:	01 96       	adiw	r24, 0x01	; 1
    3078:	0e 94 15 0d 	call	0x1a2a	; 0x1a2a <_ZN11myScanGaris9Scan3KiriEj>
    307c:	19 83       	std	Y+1, r17	; 0x01
    307e:	6c e2       	ldi	r22, 0x2C	; 44
    3080:	71 e0       	ldi	r23, 0x01	; 1
    3082:	ce 01       	movw	r24, r28
    3084:	01 96       	adiw	r24, 0x01	; 1
    3086:	0e 94 e1 0c 	call	0x19c2	; 0x19c2 <_ZN11myScanGaris10Scan3KananEj>
    308a:	19 83       	std	Y+1, r17	; 0x01
    308c:	6c ed       	ldi	r22, 0xDC	; 220
    308e:	70 e0       	ldi	r23, 0x00	; 0
    3090:	ce 01       	movw	r24, r28
    3092:	01 96       	adiw	r24, 0x01	; 1
    3094:	0e 94 49 0d 	call	0x1a92	; 0x1a92 <_ZN11myScanGaris10Scan2KananEj>
    3098:	19 83       	std	Y+1, r17	; 0x01
    309a:	4a e0       	ldi	r20, 0x0A	; 10
    309c:	6a e0       	ldi	r22, 0x0A	; 10
    309e:	ce 01       	movw	r24, r28
    30a0:	01 96       	adiw	r24, 0x01	; 1
    30a2:	0e 94 e2 10 	call	0x21c4	; 0x21c4 <_ZN11myScanGaris18BelokKananGarisPIDEhh>
    30a6:	19 83       	std	Y+1, r17	; 0x01
    30a8:	6c e2       	ldi	r22, 0x2C	; 44
    30aa:	71 e0       	ldi	r23, 0x01	; 1
    30ac:	ce 01       	movw	r24, r28
    30ae:	01 96       	adiw	r24, 0x01	; 1
    30b0:	0e 94 e1 0c 	call	0x19c2	; 0x19c2 <_ZN11myScanGaris10Scan3KananEj>
    30b4:	19 83       	std	Y+1, r17	; 0x01
    30b6:	4a e0       	ldi	r20, 0x0A	; 10
    30b8:	6a e0       	ldi	r22, 0x0A	; 10
    30ba:	ce 01       	movw	r24, r28
    30bc:	01 96       	adiw	r24, 0x01	; 1
    30be:	0e 94 e2 10 	call	0x21c4	; 0x21c4 <_ZN11myScanGaris18BelokKananGarisPIDEhh>
    30c2:	19 83       	std	Y+1, r17	; 0x01
    30c4:	6a ef       	ldi	r22, 0xFA	; 250
    30c6:	70 e0       	ldi	r23, 0x00	; 0
    30c8:	ce 01       	movw	r24, r28
    30ca:	01 96       	adiw	r24, 0x01	; 1
    30cc:	0e 94 7d 0d 	call	0x1afa	; 0x1afa <_ZN11myScanGaris9Scan2KiriEj>
    30d0:	19 83       	std	Y+1, r17	; 0x01
    30d2:	6c e2       	ldi	r22, 0x2C	; 44
    30d4:	71 e0       	ldi	r23, 0x01	; 1
    30d6:	ce 01       	movw	r24, r28
    30d8:	01 96       	adiw	r24, 0x01	; 1
    30da:	0e 94 7d 0d 	call	0x1afa	; 0x1afa <_ZN11myScanGaris9Scan2KiriEj>
    30de:	19 83       	std	Y+1, r17	; 0x01
    30e0:	4a e0       	ldi	r20, 0x0A	; 10
    30e2:	6a e0       	ldi	r22, 0x0A	; 10
    30e4:	ce 01       	movw	r24, r28
    30e6:	01 96       	adiw	r24, 0x01	; 1
    30e8:	0e 94 20 11 	call	0x2240	; 0x2240 <_ZN11myScanGaris17BelokKiriGarisPIDEhh>
    30ec:	19 83       	std	Y+1, r17	; 0x01
    30ee:	6c e2       	ldi	r22, 0x2C	; 44
    30f0:	71 e0       	ldi	r23, 0x01	; 1
    30f2:	ce 01       	movw	r24, r28
    30f4:	01 96       	adiw	r24, 0x01	; 1
    30f6:	0e 94 e1 0c 	call	0x19c2	; 0x19c2 <_ZN11myScanGaris10Scan3KananEj>
    30fa:	47 e0       	ldi	r20, 0x07	; 7
    30fc:	6c e2       	ldi	r22, 0x2C	; 44
    30fe:	71 e0       	ldi	r23, 0x01	; 1
    3100:	ce 01       	movw	r24, r28
    3102:	01 96       	adiw	r24, 0x01	; 1
    3104:	0e 94 c9 0b 	call	0x1792	; 0x1792 <_ZN11myScanGaris16ScanSampaiSensorEjh>
    3108:	40 e0       	ldi	r20, 0x00	; 0
    310a:	64 e0       	ldi	r22, 0x04	; 4
    310c:	ce 01       	movw	r24, r28
    310e:	01 96       	adiw	r24, 0x01	; 1
    3110:	0e 94 05 0a 	call	0x140a	; 0x140a <_ZN11myScanGaris17UpdateSensorGarisEhh>
    3114:	40 e0       	ldi	r20, 0x00	; 0
    3116:	64 e0       	ldi	r22, 0x04	; 4
    3118:	ce 01       	movw	r24, r28
    311a:	01 96       	adiw	r24, 0x01	; 1
    311c:	0e 94 46 0a 	call	0x148c	; 0x148c <_ZN11myScanGaris21UpdateSensorPertigaanEhh>
    3120:	19 83       	std	Y+1, r17	; 0x01
    3122:	6a ef       	ldi	r22, 0xFA	; 250
    3124:	70 e0       	ldi	r23, 0x00	; 0
    3126:	ce 01       	movw	r24, r28
    3128:	01 96       	adiw	r24, 0x01	; 1
    312a:	0e 94 7d 0d 	call	0x1afa	; 0x1afa <_ZN11myScanGaris9Scan2KiriEj>
    312e:	19 83       	std	Y+1, r17	; 0x01
    3130:	6c e2       	ldi	r22, 0x2C	; 44
    3132:	71 e0       	ldi	r23, 0x01	; 1
    3134:	ce 01       	movw	r24, r28
    3136:	01 96       	adiw	r24, 0x01	; 1
    3138:	0e 94 15 0d 	call	0x1a2a	; 0x1a2a <_ZN11myScanGaris9Scan3KiriEj>
    313c:	19 83       	std	Y+1, r17	; 0x01
    313e:	4a e0       	ldi	r20, 0x0A	; 10
    3140:	6a e0       	ldi	r22, 0x0A	; 10
    3142:	ce 01       	movw	r24, r28
    3144:	01 96       	adiw	r24, 0x01	; 1
    3146:	0e 94 20 11 	call	0x2240	; 0x2240 <_ZN11myScanGaris17BelokKiriGarisPIDEhh>
    314a:	19 83       	std	Y+1, r17	; 0x01
    314c:	6a ef       	ldi	r22, 0xFA	; 250
    314e:	70 e0       	ldi	r23, 0x00	; 0
    3150:	ce 01       	movw	r24, r28
    3152:	01 96       	adiw	r24, 0x01	; 1
    3154:	0e 94 15 0d 	call	0x1a2a	; 0x1a2a <_ZN11myScanGaris9Scan3KiriEj>
    3158:	19 83       	std	Y+1, r17	; 0x01
    315a:	66 e9       	ldi	r22, 0x96	; 150
    315c:	70 e0       	ldi	r23, 0x00	; 0
    315e:	ce 01       	movw	r24, r28
    3160:	01 96       	adiw	r24, 0x01	; 1
    3162:	0e 94 15 0d 	call	0x1a2a	; 0x1a2a <_ZN11myScanGaris9Scan3KiriEj>
    3166:	19 82       	std	Y+1, r1	; 0x01
    3168:	6c e2       	ldi	r22, 0x2C	; 44
    316a:	71 e0       	ldi	r23, 0x01	; 1
    316c:	ce 01       	movw	r24, r28
    316e:	01 96       	adiw	r24, 0x01	; 1
    3170:	0e 94 e1 0c 	call	0x19c2	; 0x19c2 <_ZN11myScanGaris10Scan3KananEj>
    3174:	19 82       	std	Y+1, r1	; 0x01
    3176:	4a e0       	ldi	r20, 0x0A	; 10
    3178:	6a e0       	ldi	r22, 0x0A	; 10
    317a:	ce 01       	movw	r24, r28
    317c:	01 96       	adiw	r24, 0x01	; 1
    317e:	0e 94 e2 10 	call	0x21c4	; 0x21c4 <_ZN11myScanGaris18BelokKananGarisPIDEhh>
    3182:	19 82       	std	Y+1, r1	; 0x01
    3184:	6a ef       	ldi	r22, 0xFA	; 250
    3186:	70 e0       	ldi	r23, 0x00	; 0
    3188:	ce 01       	movw	r24, r28
    318a:	01 96       	adiw	r24, 0x01	; 1
    318c:	0e 94 b1 0d 	call	0x1b62	; 0x1b62 <_ZN11myScanGaris11Scan3TengahEj>
    3190:	19 82       	std	Y+1, r1	; 0x01
    3192:	2f e0       	ldi	r18, 0x0F	; 15
    3194:	45 e0       	ldi	r20, 0x05	; 5
    3196:	6a e0       	ldi	r22, 0x0A	; 10
    3198:	ce 01       	movw	r24, r28
    319a:	01 96       	adiw	r24, 0x01	; 1
    319c:	0e 94 5e 11 	call	0x22bc	; 0x22bc <_ZN11myScanGaris24BelokKananSampaiGarisPIDEhhh>
    31a0:	40 ee       	ldi	r20, 0xE0	; 224
    31a2:	6c ed       	ldi	r22, 0xDC	; 220
    31a4:	70 e0       	ldi	r23, 0x00	; 0
    31a6:	ce 01       	movw	r24, r28
    31a8:	01 96       	adiw	r24, 0x01	; 1
    31aa:	0e 94 c9 0b 	call	0x1792	; 0x1792 <_ZN11myScanGaris16ScanSampaiSensorEjh>
    31ae:	44 e0       	ldi	r20, 0x04	; 4
    31b0:	60 e0       	ldi	r22, 0x00	; 0
    31b2:	ce 01       	movw	r24, r28
    31b4:	01 96       	adiw	r24, 0x01	; 1
    31b6:	0e 94 05 0a 	call	0x140a	; 0x140a <_ZN11myScanGaris17UpdateSensorGarisEhh>
    31ba:	44 e0       	ldi	r20, 0x04	; 4
    31bc:	60 e0       	ldi	r22, 0x00	; 0
    31be:	ce 01       	movw	r24, r28
    31c0:	01 96       	adiw	r24, 0x01	; 1
    31c2:	0e 94 46 0a 	call	0x148c	; 0x148c <_ZN11myScanGaris21UpdateSensorPertigaanEhh>
    31c6:	19 82       	std	Y+1, r1	; 0x01
    31c8:	6c e2       	ldi	r22, 0x2C	; 44
    31ca:	71 e0       	ldi	r23, 0x01	; 1
    31cc:	ce 01       	movw	r24, r28
    31ce:	01 96       	adiw	r24, 0x01	; 1
    31d0:	0e 94 15 0d 	call	0x1a2a	; 0x1a2a <_ZN11myScanGaris9Scan3KiriEj>
    31d4:	19 82       	std	Y+1, r1	; 0x01
    31d6:	4a e0       	ldi	r20, 0x0A	; 10
    31d8:	6a e0       	ldi	r22, 0x0A	; 10
    31da:	ce 01       	movw	r24, r28
    31dc:	01 96       	adiw	r24, 0x01	; 1
    31de:	0e 94 20 11 	call	0x2240	; 0x2240 <_ZN11myScanGaris17BelokKiriGarisPIDEhh>
    31e2:	19 82       	std	Y+1, r1	; 0x01
    31e4:	6a ef       	ldi	r22, 0xFA	; 250
    31e6:	70 e0       	ldi	r23, 0x00	; 0
    31e8:	ce 01       	movw	r24, r28
    31ea:	01 96       	adiw	r24, 0x01	; 1
    31ec:	0e 94 b1 0d 	call	0x1b62	; 0x1b62 <_ZN11myScanGaris11Scan3TengahEj>
    31f0:	19 82       	std	Y+1, r1	; 0x01
    31f2:	2f e0       	ldi	r18, 0x0F	; 15
    31f4:	45 e0       	ldi	r20, 0x05	; 5
    31f6:	6a e0       	ldi	r22, 0x0A	; 10
    31f8:	ce 01       	movw	r24, r28
    31fa:	01 96       	adiw	r24, 0x01	; 1
    31fc:	0e 94 5e 11 	call	0x22bc	; 0x22bc <_ZN11myScanGaris24BelokKananSampaiGarisPIDEhhh>
    3200:	19 82       	std	Y+1, r1	; 0x01
    3202:	66 ee       	ldi	r22, 0xE6	; 230
    3204:	70 e0       	ldi	r23, 0x00	; 0
    3206:	ce 01       	movw	r24, r28
    3208:	01 96       	adiw	r24, 0x01	; 1
    320a:	0e 94 15 0d 	call	0x1a2a	; 0x1a2a <_ZN11myScanGaris9Scan3KiriEj>
    320e:	19 82       	std	Y+1, r1	; 0x01
    3210:	66 e9       	ldi	r22, 0x96	; 150
    3212:	70 e0       	ldi	r23, 0x00	; 0
    3214:	ce 01       	movw	r24, r28
    3216:	01 96       	adiw	r24, 0x01	; 1
    3218:	0e 94 15 0d 	call	0x1a2a	; 0x1a2a <_ZN11myScanGaris9Scan3KiriEj>
    321c:	19 83       	std	Y+1, r17	; 0x01
    321e:	6c e2       	ldi	r22, 0x2C	; 44
    3220:	71 e0       	ldi	r23, 0x01	; 1
    3222:	ce 01       	movw	r24, r28
    3224:	01 96       	adiw	r24, 0x01	; 1
    3226:	0e 94 15 0d 	call	0x1a2a	; 0x1a2a <_ZN11myScanGaris9Scan3KiriEj>
    322a:	19 83       	std	Y+1, r17	; 0x01
    322c:	4a e0       	ldi	r20, 0x0A	; 10
    322e:	6a e0       	ldi	r22, 0x0A	; 10
    3230:	ce 01       	movw	r24, r28
    3232:	01 96       	adiw	r24, 0x01	; 1
    3234:	0e 94 20 11 	call	0x2240	; 0x2240 <_ZN11myScanGaris17BelokKiriGarisPIDEhh>
    3238:	19 83       	std	Y+1, r17	; 0x01
    323a:	6c e2       	ldi	r22, 0x2C	; 44
    323c:	71 e0       	ldi	r23, 0x01	; 1
    323e:	ce 01       	movw	r24, r28
    3240:	01 96       	adiw	r24, 0x01	; 1
    3242:	0e 94 b1 0d 	call	0x1b62	; 0x1b62 <_ZN11myScanGaris11Scan3TengahEj>
    3246:	19 83       	std	Y+1, r17	; 0x01
    3248:	48 e0       	ldi	r20, 0x08	; 8
    324a:	68 e0       	ldi	r22, 0x08	; 8
    324c:	ce 01       	movw	r24, r28
    324e:	01 96       	adiw	r24, 0x01	; 1
    3250:	0e 94 e2 10 	call	0x21c4	; 0x21c4 <_ZN11myScanGaris18BelokKananGarisPIDEhh>
    3254:	19 83       	std	Y+1, r17	; 0x01
    3256:	68 ec       	ldi	r22, 0xC8	; 200
    3258:	70 e0       	ldi	r23, 0x00	; 0
    325a:	ce 01       	movw	r24, r28
    325c:	01 96       	adiw	r24, 0x01	; 1
    325e:	0e 94 e1 0c 	call	0x19c2	; 0x19c2 <_ZN11myScanGaris10Scan3KananEj>
    3262:	19 83       	std	Y+1, r17	; 0x01
    3264:	6a ef       	ldi	r22, 0xFA	; 250
    3266:	70 e0       	ldi	r23, 0x00	; 0
    3268:	ce 01       	movw	r24, r28
    326a:	01 96       	adiw	r24, 0x01	; 1
    326c:	0e 94 e1 0c 	call	0x19c2	; 0x19c2 <_ZN11myScanGaris10Scan3KananEj>
    3270:	19 83       	std	Y+1, r17	; 0x01
    3272:	66 e9       	ldi	r22, 0x96	; 150
    3274:	70 e0       	ldi	r23, 0x00	; 0
    3276:	ce 01       	movw	r24, r28
    3278:	01 96       	adiw	r24, 0x01	; 1
    327a:	0e 94 e1 0c 	call	0x19c2	; 0x19c2 <_ZN11myScanGaris10Scan3KananEj>
    327e:	19 82       	std	Y+1, r1	; 0x01
    3280:	6c e2       	ldi	r22, 0x2C	; 44
    3282:	71 e0       	ldi	r23, 0x01	; 1
    3284:	ce 01       	movw	r24, r28
    3286:	01 96       	adiw	r24, 0x01	; 1
    3288:	0e 94 15 0d 	call	0x1a2a	; 0x1a2a <_ZN11myScanGaris9Scan3KiriEj>
    328c:	19 82       	std	Y+1, r1	; 0x01
    328e:	6a ef       	ldi	r22, 0xFA	; 250
    3290:	70 e0       	ldi	r23, 0x00	; 0
    3292:	ce 01       	movw	r24, r28
    3294:	01 96       	adiw	r24, 0x01	; 1
    3296:	0e 94 7d 0d 	call	0x1afa	; 0x1afa <_ZN11myScanGaris9Scan2KiriEj>
    329a:	19 82       	std	Y+1, r1	; 0x01
    329c:	6c ed       	ldi	r22, 0xDC	; 220
    329e:	70 e0       	ldi	r23, 0x00	; 0
    32a0:	ce 01       	movw	r24, r28
    32a2:	01 96       	adiw	r24, 0x01	; 1
    32a4:	0e 94 15 0d 	call	0x1a2a	; 0x1a2a <_ZN11myScanGaris9Scan3KiriEj>
    32a8:	19 82       	std	Y+1, r1	; 0x01
    32aa:	68 ec       	ldi	r22, 0xC8	; 200
    32ac:	70 e0       	ldi	r23, 0x00	; 0
    32ae:	ce 01       	movw	r24, r28
    32b0:	01 96       	adiw	r24, 0x01	; 1
    32b2:	0e 94 15 0d 	call	0x1a2a	; 0x1a2a <_ZN11myScanGaris9Scan3KiriEj>
    32b6:	19 82       	std	Y+1, r1	; 0x01
    32b8:	66 e9       	ldi	r22, 0x96	; 150
    32ba:	70 e0       	ldi	r23, 0x00	; 0
    32bc:	ce 01       	movw	r24, r28
    32be:	01 96       	adiw	r24, 0x01	; 1
    32c0:	0e 94 15 0d 	call	0x1a2a	; 0x1a2a <_ZN11myScanGaris9Scan3KiriEj>
    32c4:	19 83       	std	Y+1, r17	; 0x01
    32c6:	6c e2       	ldi	r22, 0x2C	; 44
    32c8:	71 e0       	ldi	r23, 0x01	; 1
    32ca:	ce 01       	movw	r24, r28
    32cc:	01 96       	adiw	r24, 0x01	; 1
    32ce:	0e 94 e1 0c 	call	0x19c2	; 0x19c2 <_ZN11myScanGaris10Scan3KananEj>
    32d2:	19 83       	std	Y+1, r17	; 0x01
    32d4:	6c ed       	ldi	r22, 0xDC	; 220
    32d6:	70 e0       	ldi	r23, 0x00	; 0
    32d8:	ce 01       	movw	r24, r28
    32da:	01 96       	adiw	r24, 0x01	; 1
    32dc:	0e 94 49 0d 	call	0x1a92	; 0x1a92 <_ZN11myScanGaris10Scan2KananEj>
    32e0:	19 83       	std	Y+1, r17	; 0x01
    32e2:	4a e0       	ldi	r20, 0x0A	; 10
    32e4:	6a e0       	ldi	r22, 0x0A	; 10
    32e6:	ce 01       	movw	r24, r28
    32e8:	01 96       	adiw	r24, 0x01	; 1
    32ea:	0e 94 e2 10 	call	0x21c4	; 0x21c4 <_ZN11myScanGaris18BelokKananGarisPIDEhh>
    32ee:	19 83       	std	Y+1, r17	; 0x01
    32f0:	6c e2       	ldi	r22, 0x2C	; 44
    32f2:	71 e0       	ldi	r23, 0x01	; 1
    32f4:	ce 01       	movw	r24, r28
    32f6:	01 96       	adiw	r24, 0x01	; 1
    32f8:	0e 94 e1 0c 	call	0x19c2	; 0x19c2 <_ZN11myScanGaris10Scan3KananEj>
    32fc:	19 83       	std	Y+1, r17	; 0x01
    32fe:	4a e0       	ldi	r20, 0x0A	; 10
    3300:	6a e0       	ldi	r22, 0x0A	; 10
    3302:	ce 01       	movw	r24, r28
    3304:	01 96       	adiw	r24, 0x01	; 1
    3306:	0e 94 e2 10 	call	0x21c4	; 0x21c4 <_ZN11myScanGaris18BelokKananGarisPIDEhh>
    330a:	19 82       	std	Y+1, r1	; 0x01
    330c:	6a ef       	ldi	r22, 0xFA	; 250
    330e:	70 e0       	ldi	r23, 0x00	; 0
    3310:	ce 01       	movw	r24, r28
    3312:	01 96       	adiw	r24, 0x01	; 1
    3314:	0e 94 49 0d 	call	0x1a92	; 0x1a92 <_ZN11myScanGaris10Scan2KananEj>
    3318:	19 82       	std	Y+1, r1	; 0x01
    331a:	4a e0       	ldi	r20, 0x0A	; 10
    331c:	6f e0       	ldi	r22, 0x0F	; 15
    331e:	ce 01       	movw	r24, r28
    3320:	01 96       	adiw	r24, 0x01	; 1
    3322:	0e 94 e2 10 	call	0x21c4	; 0x21c4 <_ZN11myScanGaris18BelokKananGarisPIDEhh>
    3326:	19 82       	std	Y+1, r1	; 0x01
    3328:	63 e1       	ldi	r22, 0x13	; 19
    332a:	71 e0       	ldi	r23, 0x01	; 1
    332c:	ce 01       	movw	r24, r28
    332e:	01 96       	adiw	r24, 0x01	; 1
    3330:	0e 94 e1 0c 	call	0x19c2	; 0x19c2 <_ZN11myScanGaris10Scan3KananEj>
    3334:	19 82       	std	Y+1, r1	; 0x01
    3336:	6c e2       	ldi	r22, 0x2C	; 44
    3338:	71 e0       	ldi	r23, 0x01	; 1
    333a:	ce 01       	movw	r24, r28
    333c:	01 96       	adiw	r24, 0x01	; 1
    333e:	0e 94 e1 0c 	call	0x19c2	; 0x19c2 <_ZN11myScanGaris10Scan3KananEj>
    3342:	19 82       	std	Y+1, r1	; 0x01
    3344:	6c e2       	ldi	r22, 0x2C	; 44
    3346:	71 e0       	ldi	r23, 0x01	; 1
    3348:	ce 01       	movw	r24, r28
    334a:	01 96       	adiw	r24, 0x01	; 1
    334c:	0e 94 e1 0c 	call	0x19c2	; 0x19c2 <_ZN11myScanGaris10Scan3KananEj>
    3350:	19 82       	std	Y+1, r1	; 0x01
    3352:	6c e2       	ldi	r22, 0x2C	; 44
    3354:	71 e0       	ldi	r23, 0x01	; 1
    3356:	ce 01       	movw	r24, r28
    3358:	01 96       	adiw	r24, 0x01	; 1
    335a:	0e 94 49 0d 	call	0x1a92	; 0x1a92 <_ZN11myScanGaris10Scan2KananEj>
    335e:	19 82       	std	Y+1, r1	; 0x01
    3360:	4a e0       	ldi	r20, 0x0A	; 10
    3362:	6f e0       	ldi	r22, 0x0F	; 15
    3364:	ce 01       	movw	r24, r28
    3366:	01 96       	adiw	r24, 0x01	; 1
    3368:	0e 94 e2 10 	call	0x21c4	; 0x21c4 <_ZN11myScanGaris18BelokKananGarisPIDEhh>
    336c:	19 82       	std	Y+1, r1	; 0x01
    336e:	63 e1       	ldi	r22, 0x13	; 19
    3370:	71 e0       	ldi	r23, 0x01	; 1
    3372:	ce 01       	movw	r24, r28
    3374:	01 96       	adiw	r24, 0x01	; 1
    3376:	0e 94 e1 0c 	call	0x19c2	; 0x19c2 <_ZN11myScanGaris10Scan3KananEj>
    337a:	19 82       	std	Y+1, r1	; 0x01
    337c:	66 e9       	ldi	r22, 0x96	; 150
    337e:	70 e0       	ldi	r23, 0x00	; 0
    3380:	ce 01       	movw	r24, r28
    3382:	01 96       	adiw	r24, 0x01	; 1
    3384:	0e 94 e1 0c 	call	0x19c2	; 0x19c2 <_ZN11myScanGaris10Scan3KananEj>
    3388:	19 83       	std	Y+1, r17	; 0x01
    338a:	6c e2       	ldi	r22, 0x2C	; 44
    338c:	71 e0       	ldi	r23, 0x01	; 1
    338e:	ce 01       	movw	r24, r28
    3390:	01 96       	adiw	r24, 0x01	; 1
    3392:	0e 94 e1 0c 	call	0x19c2	; 0x19c2 <_ZN11myScanGaris10Scan3KananEj>
    3396:	19 83       	std	Y+1, r17	; 0x01
    3398:	4a e0       	ldi	r20, 0x0A	; 10
    339a:	6a e0       	ldi	r22, 0x0A	; 10
    339c:	ce 01       	movw	r24, r28
    339e:	01 96       	adiw	r24, 0x01	; 1
    33a0:	0e 94 e2 10 	call	0x21c4	; 0x21c4 <_ZN11myScanGaris18BelokKananGarisPIDEhh>
    33a4:	19 83       	std	Y+1, r17	; 0x01
    33a6:	6c e2       	ldi	r22, 0x2C	; 44
    33a8:	71 e0       	ldi	r23, 0x01	; 1
    33aa:	ce 01       	movw	r24, r28
    33ac:	01 96       	adiw	r24, 0x01	; 1
    33ae:	0e 94 b1 0d 	call	0x1b62	; 0x1b62 <_ZN11myScanGaris11Scan3TengahEj>
    33b2:	19 83       	std	Y+1, r17	; 0x01
    33b4:	48 e0       	ldi	r20, 0x08	; 8
    33b6:	68 e0       	ldi	r22, 0x08	; 8
    33b8:	ce 01       	movw	r24, r28
    33ba:	01 96       	adiw	r24, 0x01	; 1
    33bc:	0e 94 e2 10 	call	0x21c4	; 0x21c4 <_ZN11myScanGaris18BelokKananGarisPIDEhh>
    33c0:	19 83       	std	Y+1, r17	; 0x01
    33c2:	68 ec       	ldi	r22, 0xC8	; 200
    33c4:	70 e0       	ldi	r23, 0x00	; 0
    33c6:	ce 01       	movw	r24, r28
    33c8:	01 96       	adiw	r24, 0x01	; 1
    33ca:	0e 94 e1 0c 	call	0x19c2	; 0x19c2 <_ZN11myScanGaris10Scan3KananEj>
    33ce:	19 83       	std	Y+1, r17	; 0x01
    33d0:	6a ef       	ldi	r22, 0xFA	; 250
    33d2:	70 e0       	ldi	r23, 0x00	; 0
    33d4:	ce 01       	movw	r24, r28
    33d6:	01 96       	adiw	r24, 0x01	; 1
    33d8:	0e 94 e1 0c 	call	0x19c2	; 0x19c2 <_ZN11myScanGaris10Scan3KananEj>
    33dc:	19 83       	std	Y+1, r17	; 0x01
    33de:	66 e9       	ldi	r22, 0x96	; 150
    33e0:	70 e0       	ldi	r23, 0x00	; 0
    33e2:	ce 01       	movw	r24, r28
    33e4:	01 96       	adiw	r24, 0x01	; 1
    33e6:	0e 94 e1 0c 	call	0x19c2	; 0x19c2 <_ZN11myScanGaris10Scan3KananEj>
    33ea:	19 82       	std	Y+1, r1	; 0x01
    33ec:	6c e2       	ldi	r22, 0x2C	; 44
    33ee:	71 e0       	ldi	r23, 0x01	; 1
    33f0:	ce 01       	movw	r24, r28
    33f2:	01 96       	adiw	r24, 0x01	; 1
    33f4:	0e 94 15 0d 	call	0x1a2a	; 0x1a2a <_ZN11myScanGaris9Scan3KiriEj>
    33f8:	19 82       	std	Y+1, r1	; 0x01
    33fa:	6a ef       	ldi	r22, 0xFA	; 250
    33fc:	70 e0       	ldi	r23, 0x00	; 0
    33fe:	ce 01       	movw	r24, r28
    3400:	01 96       	adiw	r24, 0x01	; 1
    3402:	0e 94 7d 0d 	call	0x1afa	; 0x1afa <_ZN11myScanGaris9Scan2KiriEj>
    3406:	19 82       	std	Y+1, r1	; 0x01
    3408:	6c ed       	ldi	r22, 0xDC	; 220
    340a:	70 e0       	ldi	r23, 0x00	; 0
    340c:	ce 01       	movw	r24, r28
    340e:	01 96       	adiw	r24, 0x01	; 1
    3410:	0e 94 15 0d 	call	0x1a2a	; 0x1a2a <_ZN11myScanGaris9Scan3KiriEj>
    3414:	19 82       	std	Y+1, r1	; 0x01
    3416:	68 ec       	ldi	r22, 0xC8	; 200
    3418:	70 e0       	ldi	r23, 0x00	; 0
    341a:	ce 01       	movw	r24, r28
    341c:	01 96       	adiw	r24, 0x01	; 1
    341e:	0e 94 15 0d 	call	0x1a2a	; 0x1a2a <_ZN11myScanGaris9Scan3KiriEj>
    3422:	19 82       	std	Y+1, r1	; 0x01
    3424:	66 e9       	ldi	r22, 0x96	; 150
    3426:	70 e0       	ldi	r23, 0x00	; 0
    3428:	ce 01       	movw	r24, r28
    342a:	01 96       	adiw	r24, 0x01	; 1
    342c:	0e 94 15 0d 	call	0x1a2a	; 0x1a2a <_ZN11myScanGaris9Scan3KiriEj>
    3430:	19 83       	std	Y+1, r17	; 0x01
    3432:	6c e2       	ldi	r22, 0x2C	; 44
    3434:	71 e0       	ldi	r23, 0x01	; 1
    3436:	ce 01       	movw	r24, r28
    3438:	01 96       	adiw	r24, 0x01	; 1
    343a:	0e 94 e1 0c 	call	0x19c2	; 0x19c2 <_ZN11myScanGaris10Scan3KananEj>
    343e:	19 83       	std	Y+1, r17	; 0x01
    3440:	6c ed       	ldi	r22, 0xDC	; 220
    3442:	70 e0       	ldi	r23, 0x00	; 0
    3444:	ce 01       	movw	r24, r28
    3446:	01 96       	adiw	r24, 0x01	; 1
    3448:	0e 94 49 0d 	call	0x1a92	; 0x1a92 <_ZN11myScanGaris10Scan2KananEj>
    344c:	19 83       	std	Y+1, r17	; 0x01
    344e:	4a e0       	ldi	r20, 0x0A	; 10
    3450:	6a e0       	ldi	r22, 0x0A	; 10
    3452:	ce 01       	movw	r24, r28
    3454:	01 96       	adiw	r24, 0x01	; 1
    3456:	0e 94 e2 10 	call	0x21c4	; 0x21c4 <_ZN11myScanGaris18BelokKananGarisPIDEhh>
    345a:	19 83       	std	Y+1, r17	; 0x01
    345c:	6c e2       	ldi	r22, 0x2C	; 44
    345e:	71 e0       	ldi	r23, 0x01	; 1
    3460:	ce 01       	movw	r24, r28
    3462:	01 96       	adiw	r24, 0x01	; 1
    3464:	0e 94 e1 0c 	call	0x19c2	; 0x19c2 <_ZN11myScanGaris10Scan3KananEj>
    3468:	19 83       	std	Y+1, r17	; 0x01
    346a:	4a e0       	ldi	r20, 0x0A	; 10
    346c:	6a e0       	ldi	r22, 0x0A	; 10
    346e:	ce 01       	movw	r24, r28
    3470:	01 96       	adiw	r24, 0x01	; 1
    3472:	0e 94 e2 10 	call	0x21c4	; 0x21c4 <_ZN11myScanGaris18BelokKananGarisPIDEhh>
    3476:	68 94       	set
    3478:	23 f8       	bld	r2, 3
    347a:	10 92 21 02 	sts	0x0221, r1
    347e:	10 92 22 02 	sts	0x0222, r1
    3482:	10 92 85 00 	sts	0x0085, r1
    3486:	10 92 84 00 	sts	0x0084, r1
    348a:	10 92 87 00 	sts	0x0087, r1
    348e:	10 92 86 00 	sts	0x0086, r1
    3492:	0e 94 5e 04 	call	0x8bc	; 0x8bc <_ZN5myADC9CekBatereEv.constprop.13>
    3496:	ff cf       	rjmp	.-2      	; 0x3496 <main+0x7f6>

00003498 <_GLOBAL__sub_I__Z8delay_msj>:
    3498:	8c ed       	ldi	r24, 0xDC	; 220
    349a:	95 e0       	ldi	r25, 0x05	; 5
    349c:	9b bd       	out	0x2b, r25	; 43
    349e:	8a bd       	out	0x2a, r24	; 42
    34a0:	99 bd       	out	0x29, r25	; 41
    34a2:	88 bd       	out	0x28, r24	; 40
    34a4:	90 93 79 00 	sts	0x0079, r25
    34a8:	80 93 78 00 	sts	0x0078, r24
    34ac:	10 92 21 02 	sts	0x0221, r1
    34b0:	10 92 22 02 	sts	0x0222, r1
    34b4:	10 92 85 00 	sts	0x0085, r1
    34b8:	10 92 84 00 	sts	0x0084, r1
    34bc:	10 92 87 00 	sts	0x0087, r1
    34c0:	10 92 86 00 	sts	0x0086, r1
    34c4:	10 92 23 02 	sts	0x0223, r1
    34c8:	10 92 24 02 	sts	0x0224, r1
    34cc:	10 92 25 02 	sts	0x0225, r1
    34d0:	10 92 26 02 	sts	0x0226, r1
    34d4:	80 e2       	ldi	r24, 0x20	; 32
    34d6:	87 b9       	out	0x07, r24	; 7
    34d8:	84 e8       	ldi	r24, 0x84	; 132
    34da:	86 b9       	out	0x06, r24	; 6
    34dc:	08 95       	ret

000034de <__udivmodhi4>:
    34de:	aa 1b       	sub	r26, r26
    34e0:	bb 1b       	sub	r27, r27
    34e2:	51 e1       	ldi	r21, 0x11	; 17
    34e4:	07 c0       	rjmp	.+14     	; 0x34f4 <__udivmodhi4_ep>

000034e6 <__udivmodhi4_loop>:
    34e6:	aa 1f       	adc	r26, r26
    34e8:	bb 1f       	adc	r27, r27
    34ea:	a6 17       	cp	r26, r22
    34ec:	b7 07       	cpc	r27, r23
    34ee:	10 f0       	brcs	.+4      	; 0x34f4 <__udivmodhi4_ep>
    34f0:	a6 1b       	sub	r26, r22
    34f2:	b7 0b       	sbc	r27, r23

000034f4 <__udivmodhi4_ep>:
    34f4:	88 1f       	adc	r24, r24
    34f6:	99 1f       	adc	r25, r25
    34f8:	5a 95       	dec	r21
    34fa:	a9 f7       	brne	.-22     	; 0x34e6 <__udivmodhi4_loop>
    34fc:	80 95       	com	r24
    34fe:	90 95       	com	r25
    3500:	bc 01       	movw	r22, r24
    3502:	cd 01       	movw	r24, r26
    3504:	08 95       	ret

00003506 <__divmodhi4>:
    3506:	97 fb       	bst	r25, 7
    3508:	07 2e       	mov	r0, r23
    350a:	16 f4       	brtc	.+4      	; 0x3510 <__divmodhi4+0xa>
    350c:	00 94       	com	r0
    350e:	07 d0       	rcall	.+14     	; 0x351e <__divmodhi4_neg1>
    3510:	77 fd       	sbrc	r23, 7
    3512:	09 d0       	rcall	.+18     	; 0x3526 <__divmodhi4_neg2>
    3514:	0e 94 6f 1a 	call	0x34de	; 0x34de <__udivmodhi4>
    3518:	07 fc       	sbrc	r0, 7
    351a:	05 d0       	rcall	.+10     	; 0x3526 <__divmodhi4_neg2>
    351c:	3e f4       	brtc	.+14     	; 0x352c <__divmodhi4_exit>

0000351e <__divmodhi4_neg1>:
    351e:	90 95       	com	r25
    3520:	81 95       	neg	r24
    3522:	9f 4f       	sbci	r25, 0xFF	; 255
    3524:	08 95       	ret

00003526 <__divmodhi4_neg2>:
    3526:	70 95       	com	r23
    3528:	61 95       	neg	r22
    352a:	7f 4f       	sbci	r23, 0xFF	; 255

0000352c <__divmodhi4_exit>:
    352c:	08 95       	ret

0000352e <__umulhisi3>:
    352e:	a2 9f       	mul	r26, r18
    3530:	b0 01       	movw	r22, r0
    3532:	b3 9f       	mul	r27, r19
    3534:	c0 01       	movw	r24, r0
    3536:	a3 9f       	mul	r26, r19
    3538:	70 0d       	add	r23, r0
    353a:	81 1d       	adc	r24, r1
    353c:	11 24       	eor	r1, r1
    353e:	91 1d       	adc	r25, r1
    3540:	b2 9f       	mul	r27, r18
    3542:	70 0d       	add	r23, r0
    3544:	81 1d       	adc	r24, r1
    3546:	11 24       	eor	r1, r1
    3548:	91 1d       	adc	r25, r1
    354a:	08 95       	ret

0000354c <__tablejump_elpm__>:
    354c:	07 90       	elpm	r0, Z+
    354e:	f6 91       	elpm	r31, Z
    3550:	e0 2d       	mov	r30, r0
    3552:	09 94       	ijmp

00003554 <_exit>:
    3554:	f8 94       	cli

00003556 <__stop_program>:
    3556:	ff cf       	rjmp	.-2      	; 0x3556 <__stop_program>
