
bin\Release\BalancingDMP.elf:     file format elf32-avr

Sections:
Idx Name          Size      VMA       LMA       File off  Algn
  0 .data         00000180  00800100  00003e0c  00003ea0  2**0
                  CONTENTS, ALLOC, LOAD, DATA
  1 .text         00003e0c  00000000  00000000  00000094  2**1
                  CONTENTS, ALLOC, LOAD, READONLY, CODE
  2 .bss          00000087  00800280  00800280  00004020  2**0
                  ALLOC
  3 .comment      00000030  00000000  00000000  00004020  2**0
                  CONTENTS, READONLY
  4 .note.gnu.avr.deviceinfo 0000003c  00000000  00000000  00004050  2**2
                  CONTENTS, READONLY
  5 .debug_info   00000780  00000000  00000000  0000408c  2**0
                  CONTENTS, READONLY, DEBUGGING
  6 .debug_abbrev 00000718  00000000  00000000  0000480c  2**0
                  CONTENTS, READONLY, DEBUGGING
  7 .debug_line   0000001a  00000000  00000000  00004f24  2**0
                  CONTENTS, READONLY, DEBUGGING
  8 .debug_str    0000027d  00000000  00000000  00004f3e  2**0
                  CONTENTS, READONLY, DEBUGGING

Disassembly of section .text:

00000000 <__vectors>:
       0:	0c 94 75 04 	jmp	0x8ea	; 0x8ea <__ctors_end>
       4:	0c 94 9f 04 	jmp	0x93e	; 0x93e <__bad_interrupt>
       8:	0c 94 9f 04 	jmp	0x93e	; 0x93e <__bad_interrupt>
       c:	0c 94 9f 04 	jmp	0x93e	; 0x93e <__bad_interrupt>
      10:	0c 94 9f 04 	jmp	0x93e	; 0x93e <__bad_interrupt>
      14:	0c 94 9f 04 	jmp	0x93e	; 0x93e <__bad_interrupt>
      18:	0c 94 9f 04 	jmp	0x93e	; 0x93e <__bad_interrupt>
      1c:	0c 94 91 13 	jmp	0x2722	; 0x2722 <__vector_7>
      20:	0c 94 bf 13 	jmp	0x277e	; 0x277e <__vector_8>
      24:	0c 94 b8 14 	jmp	0x2970	; 0x2970 <__vector_9>
      28:	0c 94 9f 04 	jmp	0x93e	; 0x93e <__bad_interrupt>
      2c:	0c 94 16 14 	jmp	0x282c	; 0x282c <__vector_11>
      30:	0c 94 9f 04 	jmp	0x93e	; 0x93e <__bad_interrupt>
      34:	0c 94 9f 04 	jmp	0x93e	; 0x93e <__bad_interrupt>
      38:	0c 94 38 14 	jmp	0x2870	; 0x2870 <__vector_14>
      3c:	0c 94 9f 04 	jmp	0x93e	; 0x93e <__bad_interrupt>
      40:	0c 94 9f 04 	jmp	0x93e	; 0x93e <__bad_interrupt>
      44:	0c 94 9f 04 	jmp	0x93e	; 0x93e <__bad_interrupt>
      48:	0c 94 9f 04 	jmp	0x93e	; 0x93e <__bad_interrupt>
      4c:	0c 94 9f 04 	jmp	0x93e	; 0x93e <__bad_interrupt>
      50:	0c 94 9f 04 	jmp	0x93e	; 0x93e <__bad_interrupt>
      54:	0c 94 9f 04 	jmp	0x93e	; 0x93e <__bad_interrupt>
      58:	0c 94 9f 04 	jmp	0x93e	; 0x93e <__bad_interrupt>
      5c:	0c 94 9f 04 	jmp	0x93e	; 0x93e <__bad_interrupt>
      60:	0c 94 9f 04 	jmp	0x93e	; 0x93e <__bad_interrupt>
      64:	0c 94 9f 04 	jmp	0x93e	; 0x93e <__bad_interrupt>
      68:	0c 94 9f 04 	jmp	0x93e	; 0x93e <__bad_interrupt>
      6c:	0c 94 9f 04 	jmp	0x93e	; 0x93e <__bad_interrupt>
      70:	0c 94 ed 13 	jmp	0x27da	; 0x27da <__vector_28>
      74:	0c 94 9f 04 	jmp	0x93e	; 0x93e <__bad_interrupt>
      78:	0c 94 db 0a 	jmp	0x15b6	; 0x15b6 <__vector_30>
      7c:	0c 94 9f 04 	jmp	0x93e	; 0x93e <__bad_interrupt>
      80:	0c 94 9f 04 	jmp	0x93e	; 0x93e <__bad_interrupt>
      84:	0c 94 9f 04 	jmp	0x93e	; 0x93e <__bad_interrupt>
      88:	0c 94 9f 04 	jmp	0x93e	; 0x93e <__bad_interrupt>
      8c:	08 4a       	sbci	r16, 0xA8	; 168
      8e:	d7 3b       	cpi	r29, 0xB7	; 183
      90:	3b ce       	rjmp	.-906    	; 0xfffffd08 <__eeprom_end+0xff7efd08>
      92:	01 6e       	ori	r16, 0xE1	; 225
      94:	84 bc       	out	0x24, r8	; 36
      96:	bf fd       	.word	0xfdbf	; ????
      98:	c1 2f       	mov	r28, r17
      9a:	3d 6c       	ori	r19, 0xCD	; 205
      9c:	74 31       	cpi	r23, 0x14	; 20
      9e:	9a bd       	out	0x2a, r25	; 42
      a0:	56 83       	std	Z+6, r21	; 0x06
      a2:	3d da       	rcall	.-2950   	; 0xfffff51e <__eeprom_end+0xff7ef51e>
      a4:	3d 00       	.word	0x003d	; ????
      a6:	c7 7f       	andi	r28, 0xF7	; 247
      a8:	11 be       	out	0x31, r1	; 49
      aa:	d9 e4       	ldi	r29, 0x49	; 73
      ac:	bb 4c       	sbci	r27, 0xCB	; 203
      ae:	3e 91       	ld	r19, -X
      b0:	6b aa       	std	Y+51, r6	; 0x33
      b2:	aa be       	out	0x3a, r10	; 58
      b4:	00 00       	nop
      b6:	00 80       	ld	r0, Z
      b8:	3f 00       	.word	0x003f	; ????

000000ba <__trampolines_end>:
      ba:	01 b2       	in	r0, 0x11	; 17
      bc:	02 ff       	sbrs	r16, 2
      be:	ff 01       	movw	r30, r30
      c0:	90 04       	cpc	r9, r0
      c2:	09 23       	and	r16, r25
      c4:	a1 35       	cpi	r26, 0x51	; 81
      c6:	01 6a       	ori	r16, 0xA1	; 161
      c8:	02 06       	cpc	r0, r18
      ca:	00 01       	movw	r0, r0
      cc:	60 08       	sbc	r6, r0
	...
      d6:	00 60       	ori	r16, 0x00	; 0
      d8:	04 40       	sbci	r16, 0x04	; 4
      da:	00 00       	nop
      dc:	00 01       	movw	r0, r0
      de:	62 02       	muls	r22, r18
      e0:	00 00       	nop
      e2:	00 60       	ori	r16, 0x00	; 0
      e4:	04 00       	.word	0x0004	; ????
      e6:	40 00       	.word	0x0040	; ????
	...

000000e9 <_ZL9dmpConfig>:
      e9:	03 7b 03 4c cd 6c 03 ab 03 36 56 76 00 68 04 02     .{.L.l...6Vv.h..
      f9:	cb 47 a2 02 18 04 00 05 8b c1 01 0c 04 00 00 00     .G..............
     109:	00 03 7f 06 0c c9 2c 97 97 97 03 89 03 26 46 66     ......,......&Ff
     119:	00 6c 02 20 00 01 ec 04 00 00 40 00 03 7f 06 0c     .l. ......@.....
     129:	c9 2c 97 97 97 04 02 03 0d 35 5d 04 09 04 87 2d     .,.......5]....-
     139:	35 3d 00 a3 01 00 00 00 00 01 07 86 01 fe 07 41     5=.............A
     149:	05 f1 20 28 30 38 07 46 01 9a 07 47 04 f1 28 30     .. (08.F...G..(0
     159:	38 02 16 02 00 00                                   8.....

0000015f <_ZL9dmpMemory>:
     15f:	fb 00 00 3e 00 0b 00 36 00 01 00 02 00 03 00 00     ...>...6........
     16f:	00 65 00 54 ff ef 00 00 fa 80 00 0b 12 82 00 01     .e.T............
     17f:	00 02 00 00 00 00 00 00 00 00 00 00 00 00 00 00     ................
     18f:	00 28 00 00 ff ff 45 81 ff ff fa 72 00 00 00 00     .(....E....r....
     19f:	00 00 03 e8 00 00 00 01 00 01 7f ff ff fe 80 01     ................
     1af:	00 1b 00 00 00 00 00 00 00 00 00 00 00 00 00 00     ................
     1bf:	00 3e 03 30 40 00 00 00 02 ca e3 09 3e 80 00 00     .>.0@.......>...
     1cf:	20 00 00 00 00 00 00 00 40 00 00 00 60 00 00 00      .......@...`...
     1df:	41 ff 00 00 00 00 0b 2a 00 00 16 55 00 00 21 82     A......*...U..!.
     1ef:	fd 87 26 50 fd 80 00 00 00 1f 00 00 00 05 80 00     ..&P............
     1ff:	00 00 00 00 00 01 00 00 00 02 00 00 00 03 00 00     ................
     20f:	40 00 00 00 00 00 04 6f 00 02 65 32 00 00 5e c0     @......o..e2..^.
     21f:	40 00 00 00 00 00 00 00 00 00 00 00 00 00 00 00     @...............
     22f:	fb 8c 6f 5d fd 5d 08 d9 00 7c 73 3b 00 6c 12 cc     ..o].]...|s;.l..
     23f:	32 00 13 9d 32 00 d0 d6 32 00 08 00 40 00 01 f4     2...2...2...@...
     24f:	ff e6 80 79 02 00 00 00 00 00 d0 d6 00 00 27 10     ...y..........'.
     25f:	fb 00 00 00 40 00 00 00 00 00 00 00 00 00 00 00     ....@...........
     26f:	00 00 00 01 00 00 00 00 00 00 01 00 01 00 00 00     ................
     27f:	00 00 fa 36 ff bc 30 8e 00 05 fb f0 ff d9 5b c8     ...6..0.......[.
     28f:	ff d0 9a be 00 00 10 a9 ff f4 1e b2 00 ce bb f7     ................
     29f:	00 00 00 01 00 00 00 04 00 02 00 02 02 00 00 0c     ................
     2af:	ff c2 80 00 00 01 80 00 00 cf 80 00 40 00 00 00     ............@...
     2bf:	00 00 00 01 00 00 00 00 00 00 06 00 00 00 00 14     ................
	...
     303:	03 3f 68 b6 79 35 28 bc c6 7e d1 6c 80 00 00 00     .?h.y5(..~.l....
     313:	40 00 00 00 00 00 b2 6a 00 00 00 00 00 00 00 00     @......j........
     323:	00 00 00 00 00 00 3f f0 00 00 00 30 00 00 00 00     ......?....0....
	...
     34f:	00 00 25 4d 00 2f 70 6d 00 00 05 ae 00 0c 02 d0     ..%M./pm........
     35f:	00 00 00 00 00 65 00 54 ff ef 00 00 00 00 00 00     .....e.T........
     36f:	00 00 01 00 00 44 00 00 00 00 0c 00 00 00 01 00     .....D..........
     37f:	00 00 00 00 00 65 00 00 00 54 00 00 ff ef 00 00     .....e...T......
	...
     39f:	40 00 00 00 00 00 00 00 00 00 00 00 00 00 00 00     @...............
     3af:	40 00 00 00 00 00 00 00 00 00 00 00 00 00 00 00     @...............
     3bf:	00 00 00 01 00 00 00 02 00 00 00 00 00 00 00 00     ................
	...
     3ef:	00 1b 00 00 00 00 00 00 00 00 00 00 00 00 00 00     ................
	...
     41b:	40 00 00 00 00 1b 00 00 00 00 00 00 00 00 00 00     @...............
	...
     45f:	d8 dc ba a2 f1 de b2 b8 b4 a8 81 91 f7 4a 90 7f     .............J..
     46f:	91 6a f3 f9 db a8 f9 b0 ba a0 80 f2 ce 81 f3 c2     .j..............
     47f:	f1 c1 f2 c3 f3 cc a2 b2 80 f1 c6 d8 80 ba a7 df     ................
     48f:	df df f2 a7 c3 cb c5 b6 f0 87 a2 94 24 48 70 3c     ............$Hp<
     49f:	95 40 68 34 58 9b 78 a2 f1 83 92 2d 55 7d d8 b1     .@h4X.x....-U}..
     4af:	b4 b8 a1 d0 91 80 f2 70 f3 70 f2 7c 80 a8 f1 01     .......p.p.|....
     4bf:	b0 98 87 d9 43 d8 86 c9 88 ba a1 f2 0e b8 97 80     ....C...........
     4cf:	f1 a9 df df df aa df df df f2 aa c5 cd c7 a9 0c     ................
     4df:	c9 2c 97 97 97 97 f1 a9 89 26 46 66 b0 b4 ba 80     .,.......&Ff....
     4ef:	ac de f2 ca f1 b2 8c 02 a9 b6 98 00 89 0e 16 1e     ................
     4ff:	b8 a9 b4 99 2c 54 7c b0 8a a8 96 36 56 76 f1 b9     ....,T|....6Vv..
     50f:	af b4 b0 83 c0 b8 a8 97 11 b1 8f 98 b9 af f0 24     ...............$
     51f:	08 44 10 64 18 f1 a3 29 55 7d af 83 b5 93 af f0     .D.d...)U}......
     52f:	00 28 50 f1 a3 86 9f 61 a6 da de df d9 fa a3 86     .(P....a........
     53f:	96 db 31 a6 d9 f8 df ba a6 8f c2 c5 c7 b2 8c c1     ..1.............
     54f:	b8 a2 df df df a3 df df df d8 d8 f1 b8 a8 b2 86     ................
     55f:	b4 98 0d 35 5d b8 aa 98 b0 87 2d 35 3d b2 b6 ba     ...5].....-5=...
     56f:	af 8c 96 19 8f 9f a7 0e 16 1e b4 9a b8 aa 87 2c     ...............,
     57f:	54 7c b9 a3 de df df a3 b1 80 f2 c4 cd c9 f1 b8     T|..............
     58f:	a9 b4 99 83 0d 35 5d 89 b9 a3 2d 55 7d b5 93 a3     .....5]...-U}...
     59f:	0e 16 1e a9 2c 54 7c b8 b4 b0 f1 97 83 a8 11 84     ....,T|.........
     5af:	a5 09 98 a3 83 f0 da 24 08 44 10 64 18 d8 f1 a5     .......$.D.d....
     5bf:	29 55 7d a5 85 95 02 1a 2e 3a 56 5a 40 48 f9 f3     )U}......:VZ@H..
     5cf:	a3 d9 f8 f0 98 83 24 08 44 10 64 18 97 82 a8 f1     ......$.D.d.....
     5df:	11 f0 98 a2 24 08 44 10 64 18 da f3 de d8 83 a5     ....$.D.d.......
     5ef:	94 01 d9 a3 02 f1 a2 c3 c5 c7 d8 f1 84 92 a2 4d     ...............M
     5ff:	da 2a d8 48 69 d9 2a d8 68 55 da 32 d8 50 71 d9     .*.Hi.*.hU.2.Pq.
     60f:	32 d8 70 5d da 3a d8 58 79 d9 3a d8 78 93 a3 4d     2.p].:.Xy.:.x..M
     61f:	da 2a d8 48 69 d9 2a d8 68 55 da 32 d8 50 71 d9     .*.Hi.*.hU.2.Pq.
     62f:	32 d8 70 5d da 3a d8 58 79 d9 3a d8 78 a8 8a 9a     2.p].:.Xy.:.x...
     63f:	f0 28 50 78 9e f3 88 18 f1 9f 1d 98 a8 d9 08 d8     .(Px............
     64f:	c8 9f 12 9e f3 15 a8 da 12 10 d8 f1 af c8 97 87     ................
     65f:	34 b5 b9 94 a4 21 f3 d9 22 d8 f2 2d f3 d9 2a d8     4....!.."..-..*.
     66f:	f2 35 f3 d9 32 d8 81 a4 60 60 61 d9 61 d8 6c 68     .5..2...``a.a.lh
     67f:	69 d9 69 d8 74 70 71 d9 71 d8 b1 a3 84 19 3d 5d     i.i.tpq.q.....=]
     68f:	a3 83 1a 3e 5e 93 10 30 81 10 11 b8 b0 af 8f 94     ...>^..0........
     69f:	f2 da 3e d8 b4 9a a8 87 29 da f8 d8 87 9a 35 da     ..>.....).....5.
     6af:	f8 d8 87 9a 3d da f8 d8 b1 b9 a4 98 85 02 2e 56     ....=..........V
     6bf:	a5 81 00 0c 14 a3 97 b0 8a f1 2d d9 28 d8 4d d9     ..........-.(.M.
     6cf:	48 d8 6d d9 68 d8 b1 84 0d da 0e d8 a3 29 83 da     H.m.h........)..
     6df:	2c 0e d8 a3 84 49 83 da 2c 4c 0e d8 b8 b0 a8 8a     ,....I..,L......
     6ef:	9a f5 20 aa da df d8 a8 40 aa d0 da de d8 a8 60     .. .....@......`
     6ff:	aa da d0 df d8 f1 97 86 a8 31 9b 06 99 07 ab 97     .........1......
     70f:	28 88 9b f0 0c 20 14 40 b8 b0 b4 a8 8c 9c f0 04     (.... .@........
     71f:	28 51 79 1d 30 14 38 b2 82 ab d0 98 2c 50 50 78     (Qy.0.8.....,PPx
     72f:	78 9b f1 1a b0 f0 8a 9c a8 29 51 79 8b 29 51 79     x........)Qy.)Qy
     73f:	8a 24 70 59 8b 20 58 71 8a 44 69 38 8b 39 40 68     .$pY. Xq.Di8.9@h
     74f:	8a 64 48 31 8b 30 49 60 a5 88 20 09 71 58 44 68     .dH1.0I`.. .qXDh
     75f:	11 39 64 49 30 19 f1 ac 00 2c 54 7c f0 8c a8 04     .9dI0....,T|....
     76f:	28 50 78 f1 88 97 26 a8 59 98 ac 8c 02 26 46 66     (Px...&.Y....&Ff
     77f:	f0 89 9c a8 29 51 79 24 70 59 44 69 38 64 48 31     ....)Qy$pYDi8dH1
     78f:	a9 88 09 20 59 70 ab 11 38 40 69 a8 19 31 48 60     ... Yp..8@i..1H`
     79f:	8c a8 3c 41 5c 20 7c 00 f1 87 98 19 86 a8 6e 76     ..<A\ |.......nv
     7af:	7e a9 99 88 2d 55 7d 9e b9 a3 8a 22 8a 6e 8a 56     ~...-U}....".n.V
     7bf:	8a 5e 9f b1 83 06 26 46 66 0e 2e 4e 6e 9d b8 ad     .^....&Ff..Nn...
     7cf:	00 2c 54 7c f2 b1 8c b4 99 b9 a3 2d 55 7d 81 91     .,T|.......-U}..
     7df:	ac 38 ad 3a b5 83 91 ac 2d d9 28 d8 4d d9 48 d8     .8.:....-.(.M.H.
     7ef:	6d d9 68 d8 8c 9d ae 29 d9 04 ae d8 51 d9 04 ae     m.h....)....Q...
     7ff:	d8 79 d9 04 d8 81 f3 9d ad 00 8d ae 19 81 ad d9     .y..............
     80f:	01 d8 f2 ae da 26 d8 8e 91 29 83 a7 d9 ad ad ad     .....&...)......
     81f:	ad f3 2a d8 d8 f1 b0 ac 89 91 3e 5e 76 f3 ac 2e     ..*.......>^v...
     82f:	2e f1 b1 8c 5a 9c ac 2c 28 28 28 9c ac 30 18 a8     ....Z..,(((..0..
     83f:	98 81 28 34 3c 97 24 a7 28 34 3c 9c 24 f2 b0 89     ..(4<.$.(4<.$...
     84f:	ac 91 2c 4c 6c 8a 9b 2d d9 d8 d8 51 d9 d8 d8 79     ..,Ll..-...Q...y
     85f:	d9 d8 d8 f1 9e 88 a3 31 da d8 d8 91 2d d9 28 d8     .......1....-.(.
     86f:	4d d9 48 d8 6d d9 68 d8 b1 83 93 35 3d 80 25 da     M.H.m.h....5=.%.
     87f:	d8 d8 85 69 da d8 d8 b4 93 81 a3 28 34 3c f3 ab     ...i.......(4<..
     88f:	8b f8 a3 91 b6 09 b4 d9 ab de fa b0 87 9c b9 a3     ................
     89f:	dd f1 a3 a3 a3 a3 95 f1 a3 a3 a3 9d f1 a3 a3 a3     ................
     8af:	a3 f2 a3 b4 90 80 f2 a3 a3 a3 a3 a3 a3 a3 a3 a3     ................
     8bf:	a3 b2 a3 a3 a3 a3 a3 a3 b0 87 b5 99 f1 a3 a3 a3     ................
     8cf:	98 f1 a3 a3 a3 a3 97 a3 a3 a3 a3 f3 9b a3 a3 dc     ................
     8df:	b9 a7 f1 26 26 26 d8 d8 ff                          ...&&&...

000008e8 <__ctors_start>:
     8e8:	7f 19       	sub	r23, r15

000008ea <__ctors_end>:
     8ea:	11 24       	eor	r1, r1
     8ec:	1f be       	out	0x3f, r1	; 63
     8ee:	cf ef       	ldi	r28, 0xFF	; 255
     8f0:	d0 e1       	ldi	r29, 0x10	; 16
     8f2:	de bf       	out	0x3e, r29	; 62
     8f4:	cd bf       	out	0x3d, r28	; 61

000008f6 <__do_copy_data>:
     8f6:	12 e0       	ldi	r17, 0x02	; 2
     8f8:	a0 e0       	ldi	r26, 0x00	; 0
     8fa:	b1 e0       	ldi	r27, 0x01	; 1
     8fc:	ec e0       	ldi	r30, 0x0C	; 12
     8fe:	fe e3       	ldi	r31, 0x3E	; 62
     900:	00 e0       	ldi	r16, 0x00	; 0
     902:	0b bf       	out	0x3b, r16	; 59
     904:	02 c0       	rjmp	.+4      	; 0x90a <__do_copy_data+0x14>
     906:	07 90       	elpm	r0, Z+
     908:	0d 92       	st	X+, r0
     90a:	a0 38       	cpi	r26, 0x80	; 128
     90c:	b1 07       	cpc	r27, r17
     90e:	d9 f7       	brne	.-10     	; 0x906 <__do_copy_data+0x10>

00000910 <__do_clear_bss>:
     910:	23 e0       	ldi	r18, 0x03	; 3
     912:	a0 e8       	ldi	r26, 0x80	; 128
     914:	b2 e0       	ldi	r27, 0x02	; 2
     916:	01 c0       	rjmp	.+2      	; 0x91a <.do_clear_bss_start>

00000918 <.do_clear_bss_loop>:
     918:	1d 92       	st	X+, r1

0000091a <.do_clear_bss_start>:
     91a:	a7 30       	cpi	r26, 0x07	; 7
     91c:	b2 07       	cpc	r27, r18
     91e:	e1 f7       	brne	.-8      	; 0x918 <.do_clear_bss_loop>

00000920 <__do_global_ctors>:
     920:	14 e0       	ldi	r17, 0x04	; 4
     922:	c5 e7       	ldi	r28, 0x75	; 117
     924:	d4 e0       	ldi	r29, 0x04	; 4
     926:	04 c0       	rjmp	.+8      	; 0x930 <__do_global_ctors+0x10>
     928:	21 97       	sbiw	r28, 0x01	; 1
     92a:	fe 01       	movw	r30, r28
     92c:	0e 94 fc 19 	call	0x33f8	; 0x33f8 <__tablejump2__>
     930:	c4 37       	cpi	r28, 0x74	; 116
     932:	d1 07       	cpc	r29, r17
     934:	c9 f7       	brne	.-14     	; 0x928 <__do_global_ctors+0x8>
     936:	0e 94 60 16 	call	0x2cc0	; 0x2cc0 <main>
     93a:	0c 94 04 1f 	jmp	0x3e08	; 0x3e08 <_exit>

0000093e <__bad_interrupt>:
     93e:	0c 94 00 00 	jmp	0	; 0x0 <__vectors>

00000942 <_ZN5myLCD4DataEh.constprop.52>:
     942:	d8 9a       	sbi	0x1b, 0	; 27
     944:	98 2f       	mov	r25, r24
     946:	90 7f       	andi	r25, 0xF0	; 240
     948:	20 fe       	sbrs	r2, 0
     94a:	1e c0       	rjmp	.+60     	; 0x988 <_ZN5myLCD4DataEh.constprop.52+0x46>
     94c:	9d 60       	ori	r25, 0x0D	; 13
     94e:	9b bb       	out	0x1b, r25	; 27
     950:	25 e0       	ldi	r18, 0x05	; 5
     952:	2a 95       	dec	r18
     954:	f1 f7       	brne	.-4      	; 0x952 <_ZN5myLCD4DataEh.constprop.52+0x10>
     956:	00 00       	nop
     958:	da 98       	cbi	0x1b, 2	; 27
     95a:	9a e1       	ldi	r25, 0x1A	; 26
     95c:	9a 95       	dec	r25
     95e:	f1 f7       	brne	.-4      	; 0x95c <_ZN5myLCD4DataEh.constprop.52+0x1a>
     960:	00 c0       	rjmp	.+0      	; 0x962 <_ZN5myLCD4DataEh.constprop.52+0x20>
     962:	20 e1       	ldi	r18, 0x10	; 16
     964:	82 9f       	mul	r24, r18
     966:	c0 01       	movw	r24, r0
     968:	11 24       	eor	r1, r1
     96a:	20 fc       	sbrc	r2, 0
     96c:	10 c0       	rjmp	.+32     	; 0x98e <_ZN5myLCD4DataEh.constprop.52+0x4c>
     96e:	85 60       	ori	r24, 0x05	; 5
     970:	8b bb       	out	0x1b, r24	; 27
     972:	85 e0       	ldi	r24, 0x05	; 5
     974:	8a 95       	dec	r24
     976:	f1 f7       	brne	.-4      	; 0x974 <_ZN5myLCD4DataEh.constprop.52+0x32>
     978:	00 00       	nop
     97a:	da 98       	cbi	0x1b, 2	; 27
     97c:	95 ed       	ldi	r25, 0xD5	; 213
     97e:	9a 95       	dec	r25
     980:	f1 f7       	brne	.-4      	; 0x97e <_ZN5myLCD4DataEh.constprop.52+0x3c>
     982:	00 00       	nop
     984:	da 9a       	sbi	0x1b, 2	; 27
     986:	08 95       	ret
     988:	95 60       	ori	r25, 0x05	; 5
     98a:	9b bb       	out	0x1b, r25	; 27
     98c:	e1 cf       	rjmp	.-62     	; 0x950 <_ZN5myLCD4DataEh.constprop.52+0xe>
     98e:	8d 60       	ori	r24, 0x0D	; 13
     990:	8b bb       	out	0x1b, r24	; 27
     992:	ef cf       	rjmp	.-34     	; 0x972 <_ZN5myLCD4DataEh.constprop.52+0x30>

00000994 <_ZN5myLCD8PerintahEh.constprop.56>:
     994:	d8 98       	cbi	0x1b, 0	; 27
     996:	98 2f       	mov	r25, r24
     998:	90 7f       	andi	r25, 0xF0	; 240
     99a:	20 fe       	sbrs	r2, 0
     99c:	20 c0       	rjmp	.+64     	; 0x9de <_ZN5myLCD8PerintahEh.constprop.56+0x4a>
     99e:	9c 60       	ori	r25, 0x0C	; 12
     9a0:	9b bb       	out	0x1b, r25	; 27
     9a2:	25 e0       	ldi	r18, 0x05	; 5
     9a4:	2a 95       	dec	r18
     9a6:	f1 f7       	brne	.-4      	; 0x9a4 <_ZN5myLCD8PerintahEh.constprop.56+0x10>
     9a8:	00 00       	nop
     9aa:	da 98       	cbi	0x1b, 2	; 27
     9ac:	9a e1       	ldi	r25, 0x1A	; 26
     9ae:	9a 95       	dec	r25
     9b0:	f1 f7       	brne	.-4      	; 0x9ae <_ZN5myLCD8PerintahEh.constprop.56+0x1a>
     9b2:	00 c0       	rjmp	.+0      	; 0x9b4 <_ZN5myLCD8PerintahEh.constprop.56+0x20>
     9b4:	20 e1       	ldi	r18, 0x10	; 16
     9b6:	82 9f       	mul	r24, r18
     9b8:	c0 01       	movw	r24, r0
     9ba:	11 24       	eor	r1, r1
     9bc:	20 fc       	sbrc	r2, 0
     9be:	12 c0       	rjmp	.+36     	; 0x9e4 <_ZN5myLCD8PerintahEh.constprop.56+0x50>
     9c0:	84 60       	ori	r24, 0x04	; 4
     9c2:	8b bb       	out	0x1b, r24	; 27
     9c4:	85 e0       	ldi	r24, 0x05	; 5
     9c6:	8a 95       	dec	r24
     9c8:	f1 f7       	brne	.-4      	; 0x9c6 <_ZN5myLCD8PerintahEh.constprop.56+0x32>
     9ca:	00 00       	nop
     9cc:	da 98       	cbi	0x1b, 2	; 27
     9ce:	8f ee       	ldi	r24, 0xEF	; 239
     9d0:	9a e0       	ldi	r25, 0x0A	; 10
     9d2:	01 97       	sbiw	r24, 0x01	; 1
     9d4:	f1 f7       	brne	.-4      	; 0x9d2 <_ZN5myLCD8PerintahEh.constprop.56+0x3e>
     9d6:	00 c0       	rjmp	.+0      	; 0x9d8 <_ZN5myLCD8PerintahEh.constprop.56+0x44>
     9d8:	00 00       	nop
     9da:	da 9a       	sbi	0x1b, 2	; 27
     9dc:	08 95       	ret
     9de:	94 60       	ori	r25, 0x04	; 4
     9e0:	9b bb       	out	0x1b, r25	; 27
     9e2:	df cf       	rjmp	.-66     	; 0x9a2 <_ZN5myLCD8PerintahEh.constprop.56+0xe>
     9e4:	8c 60       	ori	r24, 0x0C	; 12
     9e6:	8b bb       	out	0x1b, r24	; 27
     9e8:	ed cf       	rjmp	.-38     	; 0x9c4 <_ZN5myLCD8PerintahEh.constprop.56+0x30>

000009ea <_ZN5myADC9CekBatereEv.part.8>:
     9ea:	f8 94       	cli
     9ec:	10 92 85 00 	sts	0x0085, r1	; 0x800085 <__TEXT_REGION_LENGTH__+0x7e0085>
     9f0:	10 92 84 00 	sts	0x0084, r1	; 0x800084 <__TEXT_REGION_LENGTH__+0x7e0084>
     9f4:	1d 9a       	sbi	0x03, 5	; 3
     9f6:	10 92 87 00 	sts	0x0087, r1	; 0x800087 <__TEXT_REGION_LENGTH__+0x7e0087>
     9fa:	10 92 86 00 	sts	0x0086, r1	; 0x800086 <__TEXT_REGION_LENGTH__+0x7e0086>
     9fe:	1a 9a       	sbi	0x03, 2	; 3
     a00:	81 e0       	ldi	r24, 0x01	; 1
     a02:	0e 94 ca 04 	call	0x994	; 0x994 <_ZN5myLCD8PerintahEh.constprop.56>
     a06:	8f e3       	ldi	r24, 0x3F	; 63
     a08:	9f e1       	ldi	r25, 0x1F	; 31
     a0a:	01 97       	sbiw	r24, 0x01	; 1
     a0c:	f1 f7       	brne	.-4      	; 0xa0a <_ZN5myADC9CekBatereEv.part.8+0x20>
     a0e:	00 c0       	rjmp	.+0      	; 0xa10 <_ZN5myADC9CekBatereEv.part.8+0x26>
     a10:	00 00       	nop
     a12:	80 e8       	ldi	r24, 0x80	; 128
     a14:	0e 94 ca 04 	call	0x994	; 0x994 <_ZN5myLCD8PerintahEh.constprop.56>
     a18:	c9 e0       	ldi	r28, 0x09	; 9
     a1a:	d1 e0       	ldi	r29, 0x01	; 1
     a1c:	86 e5       	ldi	r24, 0x56	; 86
     a1e:	0e 94 a1 04 	call	0x942	; 0x942 <_ZN5myLCD4DataEh.constprop.52>
     a22:	89 91       	ld	r24, Y+
     a24:	81 11       	cpse	r24, r1
     a26:	fb cf       	rjmp	.-10     	; 0xa1e <_ZN5myADC9CekBatereEv.part.8+0x34>
     a28:	80 ec       	ldi	r24, 0xC0	; 192
     a2a:	0e 94 ca 04 	call	0x994	; 0x994 <_ZN5myLCD8PerintahEh.constprop.56>
     a2e:	ca e1       	ldi	r28, 0x1A	; 26
     a30:	d1 e0       	ldi	r29, 0x01	; 1
     a32:	89 e4       	ldi	r24, 0x49	; 73
     a34:	0e 94 a1 04 	call	0x942	; 0x942 <_ZN5myLCD4DataEh.constprop.52>
     a38:	89 91       	ld	r24, Y+
     a3a:	81 11       	cpse	r24, r1
     a3c:	fb cf       	rjmp	.-10     	; 0xa34 <_ZN5myADC9CekBatereEv.part.8+0x4a>
     a3e:	3b e1       	ldi	r19, 0x1B	; 27
     a40:	2d e7       	ldi	r18, 0x7D	; 125
     a42:	33 bf       	out	0x33, r19	; 51
     a44:	12 be       	out	0x32, r1	; 50
     a46:	21 bf       	out	0x31, r18	; 49
     a48:	84 e6       	ldi	r24, 0x64	; 100
     a4a:	90 e0       	ldi	r25, 0x00	; 0
     a4c:	ef e9       	ldi	r30, 0x9F	; 159
     a4e:	ff e0       	ldi	r31, 0x0F	; 15
     a50:	31 97       	sbiw	r30, 0x01	; 1
     a52:	f1 f7       	brne	.-4      	; 0xa50 <_ZN5myADC9CekBatereEv.part.8+0x66>
     a54:	00 c0       	rjmp	.+0      	; 0xa56 <_ZN5myADC9CekBatereEv.part.8+0x6c>
     a56:	00 00       	nop
     a58:	01 97       	sbiw	r24, 0x01	; 1
     a5a:	c1 f7       	brne	.-16     	; 0xa4c <_ZN5myADC9CekBatereEv.part.8+0x62>
     a5c:	13 be       	out	0x33, r1	; 51
     a5e:	10 be       	out	0x30, r1	; 48
     a60:	c4 98       	cbi	0x18, 4	; 24
     a62:	ff ef       	ldi	r31, 0xFF	; 255
     a64:	41 ee       	ldi	r20, 0xE1	; 225
     a66:	84 e0       	ldi	r24, 0x04	; 4
     a68:	f1 50       	subi	r31, 0x01	; 1
     a6a:	40 40       	sbci	r20, 0x00	; 0
     a6c:	80 40       	sbci	r24, 0x00	; 0
     a6e:	e1 f7       	brne	.-8      	; 0xa68 <_ZN5myADC9CekBatereEv.part.8+0x7e>
     a70:	00 c0       	rjmp	.+0      	; 0xa72 <_ZN5myADC9CekBatereEv.part.8+0x88>
     a72:	00 00       	nop
     a74:	33 bf       	out	0x33, r19	; 51
     a76:	12 be       	out	0x32, r1	; 50
     a78:	21 bf       	out	0x31, r18	; 49
     a7a:	84 e6       	ldi	r24, 0x64	; 100
     a7c:	90 e0       	ldi	r25, 0x00	; 0
     a7e:	ef e9       	ldi	r30, 0x9F	; 159
     a80:	ff e0       	ldi	r31, 0x0F	; 15
     a82:	31 97       	sbiw	r30, 0x01	; 1
     a84:	f1 f7       	brne	.-4      	; 0xa82 <_ZN5myADC9CekBatereEv.part.8+0x98>
     a86:	00 c0       	rjmp	.+0      	; 0xa88 <_ZN5myADC9CekBatereEv.part.8+0x9e>
     a88:	00 00       	nop
     a8a:	01 97       	sbiw	r24, 0x01	; 1
     a8c:	c1 f7       	brne	.-16     	; 0xa7e <_ZN5myADC9CekBatereEv.part.8+0x94>
     a8e:	13 be       	out	0x33, r1	; 51
     a90:	10 be       	out	0x30, r1	; 48
     a92:	c4 98       	cbi	0x18, 4	; 24
     a94:	ff ef       	ldi	r31, 0xFF	; 255
     a96:	45 ea       	ldi	r20, 0xA5	; 165
     a98:	8e e0       	ldi	r24, 0x0E	; 14
     a9a:	f1 50       	subi	r31, 0x01	; 1
     a9c:	40 40       	sbci	r20, 0x00	; 0
     a9e:	80 40       	sbci	r24, 0x00	; 0
     aa0:	e1 f7       	brne	.-8      	; 0xa9a <_ZN5myADC9CekBatereEv.part.8+0xb0>
     aa2:	00 c0       	rjmp	.+0      	; 0xaa4 <_ZN5myADC9CekBatereEv.part.8+0xba>
     aa4:	00 00       	nop
     aa6:	68 94       	set
     aa8:	20 f8       	bld	r2, 0
     aaa:	db 9a       	sbi	0x1b, 3	; 27
     aac:	9f ef       	ldi	r25, 0xFF	; 255
     aae:	e9 e6       	ldi	r30, 0x69	; 105
     ab0:	f8 e1       	ldi	r31, 0x18	; 24
     ab2:	91 50       	subi	r25, 0x01	; 1
     ab4:	e0 40       	sbci	r30, 0x00	; 0
     ab6:	f0 40       	sbci	r31, 0x00	; 0
     ab8:	e1 f7       	brne	.-8      	; 0xab2 <_ZN5myADC9CekBatereEv.part.8+0xc8>
     aba:	00 c0       	rjmp	.+0      	; 0xabc <_ZN5myADC9CekBatereEv.part.8+0xd2>
     abc:	00 00       	nop
     abe:	e8 94       	clt
     ac0:	20 f8       	bld	r2, 0
     ac2:	db 98       	cbi	0x1b, 3	; 27
     ac4:	be cf       	rjmp	.-132    	; 0xa42 <_ZN5myADC9CekBatereEv.part.8+0x58>

00000ac6 <_ZN5myADC9CekBatereEv.constprop.30>:
     ac6:	22 fc       	sbrc	r2, 2
     ac8:	08 95       	ret
     aca:	68 94       	set
     acc:	22 f8       	bld	r2, 2
     ace:	80 e2       	ldi	r24, 0x20	; 32
     ad0:	87 b9       	out	0x07, r24	; 7
     ad2:	85 e3       	ldi	r24, 0x35	; 53
     ad4:	8a 95       	dec	r24
     ad6:	f1 f7       	brne	.-4      	; 0xad4 <_ZN5myADC9CekBatereEv.constprop.30+0xe>
     ad8:	00 00       	nop
     ada:	36 9a       	sbi	0x06, 6	; 6
     adc:	34 9b       	sbis	0x06, 4	; 6
     ade:	fe cf       	rjmp	.-4      	; 0xadc <_ZN5myADC9CekBatereEv.constprop.30+0x16>
     ae0:	34 9a       	sbi	0x06, 4	; 6
     ae2:	e8 94       	clt
     ae4:	22 f8       	bld	r2, 2
     ae6:	85 b1       	in	r24, 0x05	; 5
     ae8:	84 36       	cpi	r24, 0x64	; 100
     aea:	70 f7       	brcc	.-36     	; 0xac8 <_ZN5myADC9CekBatereEv.constprop.30+0x2>
     aec:	0e 94 f5 04 	call	0x9ea	; 0x9ea <_ZN5myADC9CekBatereEv.part.8>

00000af0 <_ZN8myBuzzer4BeepEjj.constprop.38>:
     af0:	cf 93       	push	r28
     af2:	df 93       	push	r29
     af4:	9c 01       	movw	r18, r24
     af6:	eb 01       	movw	r28, r22
     af8:	8d 57       	subi	r24, 0x7D	; 125
     afa:	91 09       	sbc	r25, r1
     afc:	84 39       	cpi	r24, 0x94	; 148
     afe:	96 42       	sbci	r25, 0x26	; 38
     b00:	c0 f4       	brcc	.+48     	; 0xb32 <_ZN8myBuzzer4BeepEjj.constprop.38+0x42>
     b02:	28 3e       	cpi	r18, 0xE8	; 232
     b04:	83 e0       	ldi	r24, 0x03	; 3
     b06:	38 07       	cpc	r19, r24
     b08:	28 f5       	brcc	.+74     	; 0xb54 <_ZN8myBuzzer4BeepEjj.constprop.38+0x64>
     b0a:	24 3f       	cpi	r18, 0xF4	; 244
     b0c:	91 e0       	ldi	r25, 0x01	; 1
     b0e:	39 07       	cpc	r19, r25
     b10:	70 f5       	brcc	.+92     	; 0xb6e <_ZN8myBuzzer4BeepEjj.constprop.38+0x7e>
     b12:	2a 3f       	cpi	r18, 0xFA	; 250
     b14:	31 05       	cpc	r19, r1
     b16:	c0 f1       	brcs	.+112    	; 0xb88 <_ZN8myBuzzer4BeepEjj.constprop.38+0x98>
     b18:	8d e1       	ldi	r24, 0x1D	; 29
     b1a:	83 bf       	out	0x33, r24	; 51
     b1c:	12 be       	out	0x32, r1	; 50
     b1e:	40 e0       	ldi	r20, 0x00	; 0
     b20:	50 e0       	ldi	r21, 0x00	; 0
     b22:	6c ea       	ldi	r22, 0xAC	; 172
     b24:	77 e0       	ldi	r23, 0x07	; 7
     b26:	81 e0       	ldi	r24, 0x01	; 1
     b28:	90 e0       	ldi	r25, 0x00	; 0
     b2a:	0e 94 cb 19 	call	0x3396	; 0x3396 <__udivmodsi4>
     b2e:	21 bf       	out	0x31, r18	; 49
     b30:	03 c0       	rjmp	.+6      	; 0xb38 <_ZN8myBuzzer4BeepEjj.constprop.38+0x48>
     b32:	13 be       	out	0x33, r1	; 51
     b34:	10 be       	out	0x30, r1	; 48
     b36:	c4 98       	cbi	0x18, 4	; 24
     b38:	8f e9       	ldi	r24, 0x9F	; 159
     b3a:	9f e0       	ldi	r25, 0x0F	; 15
     b3c:	01 97       	sbiw	r24, 0x01	; 1
     b3e:	f1 f7       	brne	.-4      	; 0xb3c <_ZN8myBuzzer4BeepEjj.constprop.38+0x4c>
     b40:	00 c0       	rjmp	.+0      	; 0xb42 <_ZN8myBuzzer4BeepEjj.constprop.38+0x52>
     b42:	00 00       	nop
     b44:	21 97       	sbiw	r28, 0x01	; 1
     b46:	c1 f7       	brne	.-16     	; 0xb38 <_ZN8myBuzzer4BeepEjj.constprop.38+0x48>
     b48:	13 be       	out	0x33, r1	; 51
     b4a:	10 be       	out	0x30, r1	; 48
     b4c:	c4 98       	cbi	0x18, 4	; 24
     b4e:	df 91       	pop	r29
     b50:	cf 91       	pop	r28
     b52:	08 95       	ret
     b54:	8b e1       	ldi	r24, 0x1B	; 27
     b56:	83 bf       	out	0x33, r24	; 51
     b58:	12 be       	out	0x32, r1	; 50
     b5a:	40 e0       	ldi	r20, 0x00	; 0
     b5c:	50 e0       	ldi	r21, 0x00	; 0
     b5e:	60 e9       	ldi	r22, 0x90	; 144
     b60:	70 ed       	ldi	r23, 0xD0	; 208
     b62:	83 e0       	ldi	r24, 0x03	; 3
     b64:	90 e0       	ldi	r25, 0x00	; 0
     b66:	0e 94 cb 19 	call	0x3396	; 0x3396 <__udivmodsi4>
     b6a:	21 bf       	out	0x31, r18	; 49
     b6c:	e5 cf       	rjmp	.-54     	; 0xb38 <_ZN8myBuzzer4BeepEjj.constprop.38+0x48>
     b6e:	8c e1       	ldi	r24, 0x1C	; 28
     b70:	83 bf       	out	0x33, r24	; 51
     b72:	12 be       	out	0x32, r1	; 50
     b74:	40 e0       	ldi	r20, 0x00	; 0
     b76:	50 e0       	ldi	r21, 0x00	; 0
     b78:	68 e4       	ldi	r22, 0x48	; 72
     b7a:	78 ee       	ldi	r23, 0xE8	; 232
     b7c:	81 e0       	ldi	r24, 0x01	; 1
     b7e:	90 e0       	ldi	r25, 0x00	; 0
     b80:	0e 94 cb 19 	call	0x3396	; 0x3396 <__udivmodsi4>
     b84:	21 bf       	out	0x31, r18	; 49
     b86:	d8 cf       	rjmp	.-80     	; 0xb38 <_ZN8myBuzzer4BeepEjj.constprop.38+0x48>
     b88:	8e e1       	ldi	r24, 0x1E	; 30
     b8a:	83 bf       	out	0x33, r24	; 51
     b8c:	12 be       	out	0x32, r1	; 50
     b8e:	86 ed       	ldi	r24, 0xD6	; 214
     b90:	93 e8       	ldi	r25, 0x83	; 131
     b92:	b9 01       	movw	r22, r18
     b94:	0e 94 a3 19 	call	0x3346	; 0x3346 <__udivmodhi4>
     b98:	61 bf       	out	0x31, r22	; 49
     b9a:	ce cf       	rjmp	.-100    	; 0xb38 <_ZN8myBuzzer4BeepEjj.constprop.38+0x48>

00000b9c <_ZN5myI2C9WriteByteEhhh.constprop.35>:
     b9c:	94 ea       	ldi	r25, 0xA4	; 164
     b9e:	90 93 74 00 	sts	0x0074, r25	; 0x800074 <__TEXT_REGION_LENGTH__+0x7e0074>
     ba2:	90 91 74 00 	lds	r25, 0x0074	; 0x800074 <__TEXT_REGION_LENGTH__+0x7e0074>
     ba6:	97 ff       	sbrs	r25, 7
     ba8:	fc cf       	rjmp	.-8      	; 0xba2 <_ZN5myI2C9WriteByteEhhh.constprop.35+0x6>
     baa:	90 91 71 00 	lds	r25, 0x0071	; 0x800071 <__TEXT_REGION_LENGTH__+0x7e0071>
     bae:	98 7f       	andi	r25, 0xF8	; 248
     bb0:	98 30       	cpi	r25, 0x08	; 8
     bb2:	01 f1       	breq	.+64     	; 0xbf4 <_ZN5myI2C9WriteByteEhhh.constprop.35+0x58>
     bb4:	90 31       	cpi	r25, 0x10	; 16
     bb6:	f1 f0       	breq	.+60     	; 0xbf4 <_ZN5myI2C9WriteByteEhhh.constprop.35+0x58>
     bb8:	60 93 73 00 	sts	0x0073, r22	; 0x800073 <__TEXT_REGION_LENGTH__+0x7e0073>
     bbc:	84 e8       	ldi	r24, 0x84	; 132
     bbe:	80 93 74 00 	sts	0x0074, r24	; 0x800074 <__TEXT_REGION_LENGTH__+0x7e0074>
     bc2:	80 91 74 00 	lds	r24, 0x0074	; 0x800074 <__TEXT_REGION_LENGTH__+0x7e0074>
     bc6:	87 ff       	sbrs	r24, 7
     bc8:	fc cf       	rjmp	.-8      	; 0xbc2 <_ZN5myI2C9WriteByteEhhh.constprop.35+0x26>
     bca:	80 91 71 00 	lds	r24, 0x0071	; 0x800071 <__TEXT_REGION_LENGTH__+0x7e0071>
     bce:	40 93 73 00 	sts	0x0073, r20	; 0x800073 <__TEXT_REGION_LENGTH__+0x7e0073>
     bd2:	84 e8       	ldi	r24, 0x84	; 132
     bd4:	80 93 74 00 	sts	0x0074, r24	; 0x800074 <__TEXT_REGION_LENGTH__+0x7e0074>
     bd8:	80 91 74 00 	lds	r24, 0x0074	; 0x800074 <__TEXT_REGION_LENGTH__+0x7e0074>
     bdc:	87 ff       	sbrs	r24, 7
     bde:	fc cf       	rjmp	.-8      	; 0xbd8 <_ZN5myI2C9WriteByteEhhh.constprop.35+0x3c>
     be0:	80 91 71 00 	lds	r24, 0x0071	; 0x800071 <__TEXT_REGION_LENGTH__+0x7e0071>
     be4:	84 e9       	ldi	r24, 0x94	; 148
     be6:	80 93 74 00 	sts	0x0074, r24	; 0x800074 <__TEXT_REGION_LENGTH__+0x7e0074>
     bea:	80 91 74 00 	lds	r24, 0x0074	; 0x800074 <__TEXT_REGION_LENGTH__+0x7e0074>
     bee:	84 fd       	sbrc	r24, 4
     bf0:	fc cf       	rjmp	.-8      	; 0xbea <_ZN5myI2C9WriteByteEhhh.constprop.35+0x4e>
     bf2:	08 95       	ret
     bf4:	80 93 73 00 	sts	0x0073, r24	; 0x800073 <__TEXT_REGION_LENGTH__+0x7e0073>
     bf8:	84 e8       	ldi	r24, 0x84	; 132
     bfa:	80 93 74 00 	sts	0x0074, r24	; 0x800074 <__TEXT_REGION_LENGTH__+0x7e0074>
     bfe:	80 91 74 00 	lds	r24, 0x0074	; 0x800074 <__TEXT_REGION_LENGTH__+0x7e0074>
     c02:	87 ff       	sbrs	r24, 7
     c04:	fc cf       	rjmp	.-8      	; 0xbfe <_ZN5myI2C9WriteByteEhhh.constprop.35+0x62>
     c06:	80 91 71 00 	lds	r24, 0x0071	; 0x800071 <__TEXT_REGION_LENGTH__+0x7e0071>
     c0a:	d6 cf       	rjmp	.-84     	; 0xbb8 <_ZN5myI2C9WriteByteEhhh.constprop.35+0x1c>

00000c0c <_ZN5myI2C8ReadByteEhhPh.constprop.36>:
     c0c:	94 ea       	ldi	r25, 0xA4	; 164
     c0e:	90 93 74 00 	sts	0x0074, r25	; 0x800074 <__TEXT_REGION_LENGTH__+0x7e0074>
     c12:	90 91 74 00 	lds	r25, 0x0074	; 0x800074 <__TEXT_REGION_LENGTH__+0x7e0074>
     c16:	97 ff       	sbrs	r25, 7
     c18:	fc cf       	rjmp	.-8      	; 0xc12 <_ZN5myI2C8ReadByteEhhPh.constprop.36+0x6>
     c1a:	90 91 71 00 	lds	r25, 0x0071	; 0x800071 <__TEXT_REGION_LENGTH__+0x7e0071>
     c1e:	98 7f       	andi	r25, 0xF8	; 248
     c20:	98 30       	cpi	r25, 0x08	; 8
     c22:	09 f4       	brne	.+2      	; 0xc26 <_ZN5myI2C8ReadByteEhhPh.constprop.36+0x1a>
     c24:	40 c0       	rjmp	.+128    	; 0xca6 <_ZN5myI2C8ReadByteEhhPh.constprop.36+0x9a>
     c26:	90 31       	cpi	r25, 0x10	; 16
     c28:	f1 f1       	breq	.+124    	; 0xca6 <_ZN5myI2C8ReadByteEhhPh.constprop.36+0x9a>
     c2a:	60 93 73 00 	sts	0x0073, r22	; 0x800073 <__TEXT_REGION_LENGTH__+0x7e0073>
     c2e:	94 e8       	ldi	r25, 0x84	; 132
     c30:	90 93 74 00 	sts	0x0074, r25	; 0x800074 <__TEXT_REGION_LENGTH__+0x7e0074>
     c34:	90 91 74 00 	lds	r25, 0x0074	; 0x800074 <__TEXT_REGION_LENGTH__+0x7e0074>
     c38:	97 ff       	sbrs	r25, 7
     c3a:	fc cf       	rjmp	.-8      	; 0xc34 <_ZN5myI2C8ReadByteEhhPh.constprop.36+0x28>
     c3c:	90 91 71 00 	lds	r25, 0x0071	; 0x800071 <__TEXT_REGION_LENGTH__+0x7e0071>
     c40:	9a e1       	ldi	r25, 0x1A	; 26
     c42:	9a 95       	dec	r25
     c44:	f1 f7       	brne	.-4      	; 0xc42 <_ZN5myI2C8ReadByteEhhPh.constprop.36+0x36>
     c46:	00 c0       	rjmp	.+0      	; 0xc48 <_ZN5myI2C8ReadByteEhhPh.constprop.36+0x3c>
     c48:	94 ea       	ldi	r25, 0xA4	; 164
     c4a:	90 93 74 00 	sts	0x0074, r25	; 0x800074 <__TEXT_REGION_LENGTH__+0x7e0074>
     c4e:	90 91 74 00 	lds	r25, 0x0074	; 0x800074 <__TEXT_REGION_LENGTH__+0x7e0074>
     c52:	97 ff       	sbrs	r25, 7
     c54:	fc cf       	rjmp	.-8      	; 0xc4e <_ZN5myI2C8ReadByteEhhPh.constprop.36+0x42>
     c56:	90 91 71 00 	lds	r25, 0x0071	; 0x800071 <__TEXT_REGION_LENGTH__+0x7e0071>
     c5a:	98 7f       	andi	r25, 0xF8	; 248
     c5c:	98 30       	cpi	r25, 0x08	; 8
     c5e:	b1 f0       	breq	.+44     	; 0xc8c <_ZN5myI2C8ReadByteEhhPh.constprop.36+0x80>
     c60:	90 31       	cpi	r25, 0x10	; 16
     c62:	a1 f0       	breq	.+40     	; 0xc8c <_ZN5myI2C8ReadByteEhhPh.constprop.36+0x80>
     c64:	84 e8       	ldi	r24, 0x84	; 132
     c66:	80 93 74 00 	sts	0x0074, r24	; 0x800074 <__TEXT_REGION_LENGTH__+0x7e0074>
     c6a:	80 91 74 00 	lds	r24, 0x0074	; 0x800074 <__TEXT_REGION_LENGTH__+0x7e0074>
     c6e:	87 ff       	sbrs	r24, 7
     c70:	fc cf       	rjmp	.-8      	; 0xc6a <_ZN5myI2C8ReadByteEhhPh.constprop.36+0x5e>
     c72:	80 91 73 00 	lds	r24, 0x0073	; 0x800073 <__TEXT_REGION_LENGTH__+0x7e0073>
     c76:	fa 01       	movw	r30, r20
     c78:	80 83       	st	Z, r24
     c7a:	84 e9       	ldi	r24, 0x94	; 148
     c7c:	80 93 74 00 	sts	0x0074, r24	; 0x800074 <__TEXT_REGION_LENGTH__+0x7e0074>
     c80:	80 91 74 00 	lds	r24, 0x0074	; 0x800074 <__TEXT_REGION_LENGTH__+0x7e0074>
     c84:	84 fd       	sbrc	r24, 4
     c86:	fc cf       	rjmp	.-8      	; 0xc80 <_ZN5myI2C8ReadByteEhhPh.constprop.36+0x74>
     c88:	81 e0       	ldi	r24, 0x01	; 1
     c8a:	08 95       	ret
     c8c:	81 60       	ori	r24, 0x01	; 1
     c8e:	80 93 73 00 	sts	0x0073, r24	; 0x800073 <__TEXT_REGION_LENGTH__+0x7e0073>
     c92:	84 e8       	ldi	r24, 0x84	; 132
     c94:	80 93 74 00 	sts	0x0074, r24	; 0x800074 <__TEXT_REGION_LENGTH__+0x7e0074>
     c98:	80 91 74 00 	lds	r24, 0x0074	; 0x800074 <__TEXT_REGION_LENGTH__+0x7e0074>
     c9c:	87 ff       	sbrs	r24, 7
     c9e:	fc cf       	rjmp	.-8      	; 0xc98 <_ZN5myI2C8ReadByteEhhPh.constprop.36+0x8c>
     ca0:	80 91 71 00 	lds	r24, 0x0071	; 0x800071 <__TEXT_REGION_LENGTH__+0x7e0071>
     ca4:	df cf       	rjmp	.-66     	; 0xc64 <_ZN5myI2C8ReadByteEhhPh.constprop.36+0x58>
     ca6:	80 93 73 00 	sts	0x0073, r24	; 0x800073 <__TEXT_REGION_LENGTH__+0x7e0073>
     caa:	94 e8       	ldi	r25, 0x84	; 132
     cac:	90 93 74 00 	sts	0x0074, r25	; 0x800074 <__TEXT_REGION_LENGTH__+0x7e0074>
     cb0:	90 91 74 00 	lds	r25, 0x0074	; 0x800074 <__TEXT_REGION_LENGTH__+0x7e0074>
     cb4:	97 ff       	sbrs	r25, 7
     cb6:	fc cf       	rjmp	.-8      	; 0xcb0 <_ZN5myI2C8ReadByteEhhPh.constprop.36+0xa4>
     cb8:	90 91 71 00 	lds	r25, 0x0071	; 0x800071 <__TEXT_REGION_LENGTH__+0x7e0071>
     cbc:	b6 cf       	rjmp	.-148    	; 0xc2a <_ZN5myI2C8ReadByteEhhPh.constprop.36+0x1e>

00000cbe <_ZN5myI2C9WriteBitsEhhhhh.part.13.constprop.34>:
     cbe:	df 92       	push	r13
     cc0:	ef 92       	push	r14
     cc2:	ff 92       	push	r15
     cc4:	0f 93       	push	r16
     cc6:	1f 93       	push	r17
     cc8:	cf 93       	push	r28
     cca:	df 93       	push	r29
     ccc:	1f 92       	push	r1
     cce:	cd b7       	in	r28, 0x3d	; 61
     cd0:	de b7       	in	r29, 0x3e	; 62
     cd2:	18 2f       	mov	r17, r24
     cd4:	f6 2e       	mov	r15, r22
     cd6:	e4 2e       	mov	r14, r20
     cd8:	d2 2e       	mov	r13, r18
     cda:	19 82       	std	Y+1, r1	; 0x01
     cdc:	ae 01       	movw	r20, r28
     cde:	4f 5f       	subi	r20, 0xFF	; 255
     ce0:	5f 4f       	sbci	r21, 0xFF	; 255
     ce2:	0e 94 06 06 	call	0xc0c	; 0xc0c <_ZN5myI2C8ReadByteEhhPh.constprop.36>
     ce6:	81 11       	cpse	r24, r1
     ce8:	09 c0       	rjmp	.+18     	; 0xcfc <_ZN5myI2C9WriteBitsEhhhhh.part.13.constprop.34+0x3e>
     cea:	0f 90       	pop	r0
     cec:	df 91       	pop	r29
     cee:	cf 91       	pop	r28
     cf0:	1f 91       	pop	r17
     cf2:	0f 91       	pop	r16
     cf4:	ff 90       	pop	r15
     cf6:	ef 90       	pop	r14
     cf8:	df 90       	pop	r13
     cfa:	08 95       	ret
     cfc:	2e 2d       	mov	r18, r14
     cfe:	30 e0       	ldi	r19, 0x00	; 0
     d00:	2d 19       	sub	r18, r13
     d02:	31 09       	sbc	r19, r1
     d04:	2f 5f       	subi	r18, 0xFF	; 255
     d06:	3f 4f       	sbci	r19, 0xFF	; 255
     d08:	81 e0       	ldi	r24, 0x01	; 1
     d0a:	90 e0       	ldi	r25, 0x00	; 0
     d0c:	02 c0       	rjmp	.+4      	; 0xd12 <_ZN5myI2C9WriteBitsEhhhhh.part.13.constprop.34+0x54>
     d0e:	88 0f       	add	r24, r24
     d10:	99 1f       	adc	r25, r25
     d12:	da 94       	dec	r13
     d14:	e2 f7       	brpl	.-8      	; 0xd0e <_ZN5myI2C9WriteBitsEhhhhh.part.13.constprop.34+0x50>
     d16:	01 97       	sbiw	r24, 0x01	; 1
     d18:	02 2e       	mov	r0, r18
     d1a:	01 c0       	rjmp	.+2      	; 0xd1e <_ZN5myI2C9WriteBitsEhhhhh.part.13.constprop.34+0x60>
     d1c:	88 0f       	add	r24, r24
     d1e:	0a 94       	dec	r0
     d20:	ea f7       	brpl	.-6      	; 0xd1c <_ZN5myI2C9WriteBitsEhhhhh.part.13.constprop.34+0x5e>
     d22:	40 2f       	mov	r20, r16
     d24:	50 e0       	ldi	r21, 0x00	; 0
     d26:	ba 01       	movw	r22, r20
     d28:	02 c0       	rjmp	.+4      	; 0xd2e <_ZN5myI2C9WriteBitsEhhhhh.part.13.constprop.34+0x70>
     d2a:	66 0f       	add	r22, r22
     d2c:	77 1f       	adc	r23, r23
     d2e:	2a 95       	dec	r18
     d30:	e2 f7       	brpl	.-8      	; 0xd2a <_ZN5myI2C9WriteBitsEhhhhh.part.13.constprop.34+0x6c>
     d32:	48 2f       	mov	r20, r24
     d34:	40 95       	com	r20
     d36:	99 81       	ldd	r25, Y+1	; 0x01
     d38:	49 23       	and	r20, r25
     d3a:	86 23       	and	r24, r22
     d3c:	48 2b       	or	r20, r24
     d3e:	49 83       	std	Y+1, r20	; 0x01
     d40:	6f 2d       	mov	r22, r15
     d42:	81 2f       	mov	r24, r17
     d44:	0e 94 ce 05 	call	0xb9c	; 0xb9c <_ZN5myI2C9WriteByteEhhh.constprop.35>
     d48:	d0 cf       	rjmp	.-96     	; 0xcea <_ZN5myI2C9WriteBitsEhhhhh.part.13.constprop.34+0x2c>

00000d4a <_ZN5myI2C8WriteBitEhhhh.constprop.26>:
     d4a:	ef 92       	push	r14
     d4c:	ff 92       	push	r15
     d4e:	0f 93       	push	r16
     d50:	1f 93       	push	r17
     d52:	cf 93       	push	r28
     d54:	df 93       	push	r29
     d56:	1f 92       	push	r1
     d58:	cd b7       	in	r28, 0x3d	; 61
     d5a:	de b7       	in	r29, 0x3e	; 62
     d5c:	18 2f       	mov	r17, r24
     d5e:	06 2f       	mov	r16, r22
     d60:	f4 2e       	mov	r15, r20
     d62:	e2 2e       	mov	r14, r18
     d64:	ae 01       	movw	r20, r28
     d66:	4f 5f       	subi	r20, 0xFF	; 255
     d68:	5f 4f       	sbci	r21, 0xFF	; 255
     d6a:	0e 94 06 06 	call	0xc0c	; 0xc0c <_ZN5myI2C8ReadByteEhhPh.constprop.36>
     d6e:	41 e0       	ldi	r20, 0x01	; 1
     d70:	50 e0       	ldi	r21, 0x00	; 0
     d72:	01 c0       	rjmp	.+2      	; 0xd76 <_ZN5myI2C8WriteBitEhhhh.constprop.26+0x2c>
     d74:	44 0f       	add	r20, r20
     d76:	fa 94       	dec	r15
     d78:	ea f7       	brpl	.-6      	; 0xd74 <_ZN5myI2C8WriteBitEhhhh.constprop.26+0x2a>
     d7a:	e1 10       	cpse	r14, r1
     d7c:	10 c0       	rjmp	.+32     	; 0xd9e <_ZN5myI2C8WriteBitEhhhh.constprop.26+0x54>
     d7e:	40 95       	com	r20
     d80:	89 81       	ldd	r24, Y+1	; 0x01
     d82:	48 23       	and	r20, r24
     d84:	49 83       	std	Y+1, r20	; 0x01
     d86:	60 2f       	mov	r22, r16
     d88:	81 2f       	mov	r24, r17
     d8a:	0e 94 ce 05 	call	0xb9c	; 0xb9c <_ZN5myI2C9WriteByteEhhh.constprop.35>
     d8e:	0f 90       	pop	r0
     d90:	df 91       	pop	r29
     d92:	cf 91       	pop	r28
     d94:	1f 91       	pop	r17
     d96:	0f 91       	pop	r16
     d98:	ff 90       	pop	r15
     d9a:	ef 90       	pop	r14
     d9c:	08 95       	ret
     d9e:	89 81       	ldd	r24, Y+1	; 0x01
     da0:	48 2b       	or	r20, r24
     da2:	f0 cf       	rjmp	.-32     	; 0xd84 <_ZN5myI2C8WriteBitEhhhh.constprop.26+0x3a>

00000da4 <_ZN5myI2C9ReadBytesEhhhPh.part.10.constprop.29>:
     da4:	94 ea       	ldi	r25, 0xA4	; 164
     da6:	90 93 74 00 	sts	0x0074, r25	; 0x800074 <__TEXT_REGION_LENGTH__+0x7e0074>
     daa:	90 91 74 00 	lds	r25, 0x0074	; 0x800074 <__TEXT_REGION_LENGTH__+0x7e0074>
     dae:	97 ff       	sbrs	r25, 7
     db0:	fc cf       	rjmp	.-8      	; 0xdaa <_ZN5myI2C9ReadBytesEhhhPh.part.10.constprop.29+0x6>
     db2:	90 91 71 00 	lds	r25, 0x0071	; 0x800071 <__TEXT_REGION_LENGTH__+0x7e0071>
     db6:	98 7f       	andi	r25, 0xF8	; 248
     db8:	98 30       	cpi	r25, 0x08	; 8
     dba:	09 f4       	brne	.+2      	; 0xdbe <_ZN5myI2C9ReadBytesEhhhPh.part.10.constprop.29+0x1a>
     dbc:	4d c0       	rjmp	.+154    	; 0xe58 <_ZN5myI2C9ReadBytesEhhhPh.part.10.constprop.29+0xb4>
     dbe:	90 31       	cpi	r25, 0x10	; 16
     dc0:	09 f4       	brne	.+2      	; 0xdc4 <_ZN5myI2C9ReadBytesEhhhPh.part.10.constprop.29+0x20>
     dc2:	4a c0       	rjmp	.+148    	; 0xe58 <_ZN5myI2C9ReadBytesEhhhPh.part.10.constprop.29+0xb4>
     dc4:	60 93 73 00 	sts	0x0073, r22	; 0x800073 <__TEXT_REGION_LENGTH__+0x7e0073>
     dc8:	94 e8       	ldi	r25, 0x84	; 132
     dca:	90 93 74 00 	sts	0x0074, r25	; 0x800074 <__TEXT_REGION_LENGTH__+0x7e0074>
     dce:	90 91 74 00 	lds	r25, 0x0074	; 0x800074 <__TEXT_REGION_LENGTH__+0x7e0074>
     dd2:	97 ff       	sbrs	r25, 7
     dd4:	fc cf       	rjmp	.-8      	; 0xdce <_ZN5myI2C9ReadBytesEhhhPh.part.10.constprop.29+0x2a>
     dd6:	90 91 71 00 	lds	r25, 0x0071	; 0x800071 <__TEXT_REGION_LENGTH__+0x7e0071>
     dda:	9a e1       	ldi	r25, 0x1A	; 26
     ddc:	9a 95       	dec	r25
     dde:	f1 f7       	brne	.-4      	; 0xddc <_ZN5myI2C9ReadBytesEhhhPh.part.10.constprop.29+0x38>
     de0:	00 c0       	rjmp	.+0      	; 0xde2 <_ZN5myI2C9ReadBytesEhhhPh.part.10.constprop.29+0x3e>
     de2:	94 ea       	ldi	r25, 0xA4	; 164
     de4:	90 93 74 00 	sts	0x0074, r25	; 0x800074 <__TEXT_REGION_LENGTH__+0x7e0074>
     de8:	90 91 74 00 	lds	r25, 0x0074	; 0x800074 <__TEXT_REGION_LENGTH__+0x7e0074>
     dec:	97 ff       	sbrs	r25, 7
     dee:	fc cf       	rjmp	.-8      	; 0xde8 <_ZN5myI2C9ReadBytesEhhhPh.part.10.constprop.29+0x44>
     df0:	90 91 71 00 	lds	r25, 0x0071	; 0x800071 <__TEXT_REGION_LENGTH__+0x7e0071>
     df4:	98 7f       	andi	r25, 0xF8	; 248
     df6:	98 30       	cpi	r25, 0x08	; 8
     df8:	11 f1       	breq	.+68     	; 0xe3e <_ZN5myI2C9ReadBytesEhhhPh.part.10.constprop.29+0x9a>
     dfa:	90 31       	cpi	r25, 0x10	; 16
     dfc:	01 f1       	breq	.+64     	; 0xe3e <_ZN5myI2C9ReadBytesEhhhPh.part.10.constprop.29+0x9a>
     dfe:	41 50       	subi	r20, 0x01	; 1
     e00:	90 e0       	ldi	r25, 0x00	; 0
     e02:	54 ec       	ldi	r21, 0xC4	; 196
     e04:	d9 01       	movw	r26, r18
     e06:	a4 0f       	add	r26, r20
     e08:	b1 1d       	adc	r27, r1
     e0a:	64 e8       	ldi	r22, 0x84	; 132
     e0c:	49 17       	cp	r20, r25
     e0e:	81 f1       	breq	.+96     	; 0xe70 <_ZN5myI2C9ReadBytesEhhhPh.part.10.constprop.29+0xcc>
     e10:	f9 01       	movw	r30, r18
     e12:	e9 0f       	add	r30, r25
     e14:	f1 1d       	adc	r31, r1
     e16:	50 93 74 00 	sts	0x0074, r21	; 0x800074 <__TEXT_REGION_LENGTH__+0x7e0074>
     e1a:	80 91 74 00 	lds	r24, 0x0074	; 0x800074 <__TEXT_REGION_LENGTH__+0x7e0074>
     e1e:	87 ff       	sbrs	r24, 7
     e20:	fc cf       	rjmp	.-8      	; 0xe1a <_ZN5myI2C9ReadBytesEhhhPh.part.10.constprop.29+0x76>
     e22:	80 91 73 00 	lds	r24, 0x0073	; 0x800073 <__TEXT_REGION_LENGTH__+0x7e0073>
     e26:	80 83       	st	Z, r24
     e28:	9f 5f       	subi	r25, 0xFF	; 255
     e2a:	49 17       	cp	r20, r25
     e2c:	78 f7       	brcc	.-34     	; 0xe0c <_ZN5myI2C9ReadBytesEhhhPh.part.10.constprop.29+0x68>
     e2e:	84 e9       	ldi	r24, 0x94	; 148
     e30:	80 93 74 00 	sts	0x0074, r24	; 0x800074 <__TEXT_REGION_LENGTH__+0x7e0074>
     e34:	80 91 74 00 	lds	r24, 0x0074	; 0x800074 <__TEXT_REGION_LENGTH__+0x7e0074>
     e38:	84 fd       	sbrc	r24, 4
     e3a:	fc cf       	rjmp	.-8      	; 0xe34 <_ZN5myI2C9ReadBytesEhhhPh.part.10.constprop.29+0x90>
     e3c:	08 95       	ret
     e3e:	81 60       	ori	r24, 0x01	; 1
     e40:	80 93 73 00 	sts	0x0073, r24	; 0x800073 <__TEXT_REGION_LENGTH__+0x7e0073>
     e44:	84 e8       	ldi	r24, 0x84	; 132
     e46:	80 93 74 00 	sts	0x0074, r24	; 0x800074 <__TEXT_REGION_LENGTH__+0x7e0074>
     e4a:	80 91 74 00 	lds	r24, 0x0074	; 0x800074 <__TEXT_REGION_LENGTH__+0x7e0074>
     e4e:	87 ff       	sbrs	r24, 7
     e50:	fc cf       	rjmp	.-8      	; 0xe4a <_ZN5myI2C9ReadBytesEhhhPh.part.10.constprop.29+0xa6>
     e52:	80 91 71 00 	lds	r24, 0x0071	; 0x800071 <__TEXT_REGION_LENGTH__+0x7e0071>
     e56:	d3 cf       	rjmp	.-90     	; 0xdfe <_ZN5myI2C9ReadBytesEhhhPh.part.10.constprop.29+0x5a>
     e58:	80 93 73 00 	sts	0x0073, r24	; 0x800073 <__TEXT_REGION_LENGTH__+0x7e0073>
     e5c:	94 e8       	ldi	r25, 0x84	; 132
     e5e:	90 93 74 00 	sts	0x0074, r25	; 0x800074 <__TEXT_REGION_LENGTH__+0x7e0074>
     e62:	90 91 74 00 	lds	r25, 0x0074	; 0x800074 <__TEXT_REGION_LENGTH__+0x7e0074>
     e66:	97 ff       	sbrs	r25, 7
     e68:	fc cf       	rjmp	.-8      	; 0xe62 <_ZN5myI2C9ReadBytesEhhhPh.part.10.constprop.29+0xbe>
     e6a:	90 91 71 00 	lds	r25, 0x0071	; 0x800071 <__TEXT_REGION_LENGTH__+0x7e0071>
     e6e:	aa cf       	rjmp	.-172    	; 0xdc4 <_ZN5myI2C9ReadBytesEhhhPh.part.10.constprop.29+0x20>
     e70:	60 93 74 00 	sts	0x0074, r22	; 0x800074 <__TEXT_REGION_LENGTH__+0x7e0074>
     e74:	80 91 74 00 	lds	r24, 0x0074	; 0x800074 <__TEXT_REGION_LENGTH__+0x7e0074>
     e78:	87 ff       	sbrs	r24, 7
     e7a:	fc cf       	rjmp	.-8      	; 0xe74 <_ZN5myI2C9ReadBytesEhhhPh.part.10.constprop.29+0xd0>
     e7c:	80 91 73 00 	lds	r24, 0x0073	; 0x800073 <__TEXT_REGION_LENGTH__+0x7e0073>
     e80:	8c 93       	st	X, r24
     e82:	d2 cf       	rjmp	.-92     	; 0xe28 <_ZN5myI2C9ReadBytesEhhhPh.part.10.constprop.29+0x84>

00000e84 <_ZN7MPU605016writeMemoryBlockEPKhjhhhh.constprop.24>:
     e84:	4f 92       	push	r4
     e86:	5f 92       	push	r5
     e88:	6f 92       	push	r6
     e8a:	7f 92       	push	r7
     e8c:	8f 92       	push	r8
     e8e:	9f 92       	push	r9
     e90:	af 92       	push	r10
     e92:	bf 92       	push	r11
     e94:	cf 92       	push	r12
     e96:	df 92       	push	r13
     e98:	ef 92       	push	r14
     e9a:	ff 92       	push	r15
     e9c:	0f 93       	push	r16
     e9e:	1f 93       	push	r17
     ea0:	cf 93       	push	r28
     ea2:	df 93       	push	r29
     ea4:	00 d0       	rcall	.+0      	; 0xea6 <_ZN7MPU605016writeMemoryBlockEPKhjhhhh.constprop.24+0x22>
     ea6:	00 d0       	rcall	.+0      	; 0xea8 <_ZN7MPU605016writeMemoryBlockEPKhjhhhh.constprop.24+0x24>
     ea8:	00 d0       	rcall	.+0      	; 0xeaa <_ZN7MPU605016writeMemoryBlockEPKhjhhhh.constprop.24+0x26>
     eaa:	cd b7       	in	r28, 0x3d	; 61
     eac:	de b7       	in	r29, 0x3e	; 62
     eae:	6c 01       	movw	r12, r24
     eb0:	4b 01       	movw	r8, r22
     eb2:	5a 01       	movw	r10, r20
     eb4:	2c 83       	std	Y+4, r18	; 0x04
     eb6:	eb 82       	std	Y+3, r14	; 0x03
     eb8:	12 2f       	mov	r17, r18
     eba:	1f 71       	andi	r17, 0x1F	; 31
     ebc:	41 2f       	mov	r20, r17
     ebe:	6d e6       	ldi	r22, 0x6D	; 109
     ec0:	fc 01       	movw	r30, r24
     ec2:	80 81       	ld	r24, Z
     ec4:	0e 94 ce 05 	call	0xb9c	; 0xb9c <_ZN5myI2C9WriteByteEhhh.constprop.35>
     ec8:	40 2f       	mov	r20, r16
     eca:	6e e6       	ldi	r22, 0x6E	; 110
     ecc:	f6 01       	movw	r30, r12
     ece:	80 81       	ld	r24, Z
     ed0:	0e 94 ce 05 	call	0xb9c	; 0xb9c <_ZN5myI2C9WriteByteEhhh.constprop.35>
     ed4:	80 e1       	ldi	r24, 0x10	; 16
     ed6:	90 e0       	ldi	r25, 0x00	; 0
     ed8:	0e 94 e8 1c 	call	0x39d0	; 0x39d0 <malloc>
     edc:	9a 83       	std	Y+2, r25	; 0x02
     ede:	89 83       	std	Y+1, r24	; 0x01
     ee0:	eb 80       	ldd	r14, Y+3	; 0x03
     ee2:	e1 10       	cpse	r14, r1
     ee4:	0b c1       	rjmp	.+534    	; 0x10fc <_ZN7MPU605016writeMemoryBlockEPKhjhhhh.constprop.24+0x278>
     ee6:	a1 14       	cp	r10, r1
     ee8:	b1 04       	cpc	r11, r1
     eea:	09 f4       	brne	.+2      	; 0xeee <_ZN7MPU605016writeMemoryBlockEPKhjhhhh.constprop.24+0x6a>
     eec:	26 c1       	rjmp	.+588    	; 0x113a <__stack+0x3b>
     eee:	41 2c       	mov	r4, r1
     ef0:	51 2c       	mov	r5, r1
     ef2:	e1 2c       	mov	r14, r1
     ef4:	f1 2c       	mov	r15, r1
     ef6:	70 2e       	mov	r7, r16
     ef8:	61 2e       	mov	r6, r17
     efa:	c7 01       	movw	r24, r14
     efc:	40 96       	adiw	r24, 0x10	; 16
     efe:	a8 16       	cp	r10, r24
     f00:	b9 06       	cpc	r11, r25
     f02:	08 f0       	brcs	.+2      	; 0xf06 <_ZN7MPU605016writeMemoryBlockEPKhjhhhh.constprop.24+0x82>
     f04:	e3 c0       	rjmp	.+454    	; 0x10cc <_ZN7MPU605016writeMemoryBlockEPKhjhhhh.constprop.24+0x248>
     f06:	fa 2d       	mov	r31, r10
     f08:	fe 19       	sub	r31, r14
     f0a:	fe 83       	std	Y+6, r31	; 0x06
     f0c:	8f 2f       	mov	r24, r31
     f0e:	90 e0       	ldi	r25, 0x00	; 0
     f10:	20 e0       	ldi	r18, 0x00	; 0
     f12:	31 e0       	ldi	r19, 0x01	; 1
     f14:	27 19       	sub	r18, r7
     f16:	31 09       	sbc	r19, r1
     f18:	28 17       	cp	r18, r24
     f1a:	39 07       	cpc	r19, r25
     f1c:	1c f4       	brge	.+6      	; 0xf24 <_ZN7MPU605016writeMemoryBlockEPKhjhhhh.constprop.24+0xa0>
     f1e:	87 2d       	mov	r24, r7
     f20:	81 95       	neg	r24
     f22:	8e 83       	std	Y+6, r24	; 0x06
     f24:	9b 81       	ldd	r25, Y+3	; 0x03
     f26:	99 23       	and	r25, r25
     f28:	09 f4       	brne	.+2      	; 0xf2c <_ZN7MPU605016writeMemoryBlockEPKhjhhhh.constprop.24+0xa8>
     f2a:	99 c0       	rjmp	.+306    	; 0x105e <_ZN7MPU605016writeMemoryBlockEPKhjhhhh.constprop.24+0x1da>
     f2c:	ee 81       	ldd	r30, Y+6	; 0x06
     f2e:	ee 23       	and	r30, r30
     f30:	09 f4       	brne	.+2      	; 0xf34 <_ZN7MPU605016writeMemoryBlockEPKhjhhhh.constprop.24+0xb0>
     f32:	9b c0       	rjmp	.+310    	; 0x106a <_ZN7MPU605016writeMemoryBlockEPKhjhhhh.constprop.24+0x1e6>
     f34:	8e 2f       	mov	r24, r30
     f36:	f4 01       	movw	r30, r8
     f38:	ee 0d       	add	r30, r14
     f3a:	ff 1d       	adc	r31, r15
     f3c:	d2 01       	movw	r26, r4
     f3e:	81 50       	subi	r24, 0x01	; 1
     f40:	90 e0       	ldi	r25, 0x00	; 0
     f42:	01 96       	adiw	r24, 0x01	; 1
     f44:	84 0d       	add	r24, r4
     f46:	95 1d       	adc	r25, r5
     f48:	24 91       	lpm	r18, Z
     f4a:	2d 93       	st	X+, r18
     f4c:	31 96       	adiw	r30, 0x01	; 1
     f4e:	a8 17       	cp	r26, r24
     f50:	b9 07       	cpc	r27, r25
     f52:	d1 f7       	brne	.-12     	; 0xf48 <_ZN7MPU605016writeMemoryBlockEPKhjhhhh.constprop.24+0xc4>
     f54:	f6 01       	movw	r30, r12
     f56:	90 81       	ld	r25, Z
     f58:	f4 ea       	ldi	r31, 0xA4	; 164
     f5a:	f0 93 74 00 	sts	0x0074, r31	; 0x800074 <__TEXT_REGION_LENGTH__+0x7e0074>
     f5e:	80 91 74 00 	lds	r24, 0x0074	; 0x800074 <__TEXT_REGION_LENGTH__+0x7e0074>
     f62:	87 ff       	sbrs	r24, 7
     f64:	fc cf       	rjmp	.-8      	; 0xf5e <_ZN7MPU605016writeMemoryBlockEPKhjhhhh.constprop.24+0xda>
     f66:	80 91 71 00 	lds	r24, 0x0071	; 0x800071 <__TEXT_REGION_LENGTH__+0x7e0071>
     f6a:	88 7f       	andi	r24, 0xF8	; 248
     f6c:	88 30       	cpi	r24, 0x08	; 8
     f6e:	09 f4       	brne	.+2      	; 0xf72 <_ZN7MPU605016writeMemoryBlockEPKhjhhhh.constprop.24+0xee>
     f70:	b5 c0       	rjmp	.+362    	; 0x10dc <_ZN7MPU605016writeMemoryBlockEPKhjhhhh.constprop.24+0x258>
     f72:	80 31       	cpi	r24, 0x10	; 16
     f74:	09 f4       	brne	.+2      	; 0xf78 <_ZN7MPU605016writeMemoryBlockEPKhjhhhh.constprop.24+0xf4>
     f76:	b2 c0       	rjmp	.+356    	; 0x10dc <_ZN7MPU605016writeMemoryBlockEPKhjhhhh.constprop.24+0x258>
     f78:	8f e6       	ldi	r24, 0x6F	; 111
     f7a:	80 93 73 00 	sts	0x0073, r24	; 0x800073 <__TEXT_REGION_LENGTH__+0x7e0073>
     f7e:	94 e8       	ldi	r25, 0x84	; 132
     f80:	90 93 74 00 	sts	0x0074, r25	; 0x800074 <__TEXT_REGION_LENGTH__+0x7e0074>
     f84:	80 91 74 00 	lds	r24, 0x0074	; 0x800074 <__TEXT_REGION_LENGTH__+0x7e0074>
     f88:	87 ff       	sbrs	r24, 7
     f8a:	fc cf       	rjmp	.-8      	; 0xf84 <_ZN7MPU605016writeMemoryBlockEPKhjhhhh.constprop.24+0x100>
     f8c:	80 91 71 00 	lds	r24, 0x0071	; 0x800071 <__TEXT_REGION_LENGTH__+0x7e0071>
     f90:	f2 01       	movw	r30, r4
     f92:	90 e0       	ldi	r25, 0x00	; 0
     f94:	81 91       	ld	r24, Z+
     f96:	80 93 73 00 	sts	0x0073, r24	; 0x800073 <__TEXT_REGION_LENGTH__+0x7e0073>
     f9a:	24 e8       	ldi	r18, 0x84	; 132
     f9c:	20 93 74 00 	sts	0x0074, r18	; 0x800074 <__TEXT_REGION_LENGTH__+0x7e0074>
     fa0:	80 91 74 00 	lds	r24, 0x0074	; 0x800074 <__TEXT_REGION_LENGTH__+0x7e0074>
     fa4:	87 ff       	sbrs	r24, 7
     fa6:	fc cf       	rjmp	.-8      	; 0xfa0 <_ZN7MPU605016writeMemoryBlockEPKhjhhhh.constprop.24+0x11c>
     fa8:	80 91 71 00 	lds	r24, 0x0071	; 0x800071 <__TEXT_REGION_LENGTH__+0x7e0071>
     fac:	9f 5f       	subi	r25, 0xFF	; 255
     fae:	8e 81       	ldd	r24, Y+6	; 0x06
     fb0:	98 17       	cp	r25, r24
     fb2:	80 f3       	brcs	.-32     	; 0xf94 <_ZN7MPU605016writeMemoryBlockEPKhjhhhh.constprop.24+0x110>
     fb4:	94 e9       	ldi	r25, 0x94	; 148
     fb6:	90 93 74 00 	sts	0x0074, r25	; 0x800074 <__TEXT_REGION_LENGTH__+0x7e0074>
     fba:	80 91 74 00 	lds	r24, 0x0074	; 0x800074 <__TEXT_REGION_LENGTH__+0x7e0074>
     fbe:	98 2f       	mov	r25, r24
     fc0:	90 71       	andi	r25, 0x10	; 16
     fc2:	84 fd       	sbrc	r24, 4
     fc4:	fa cf       	rjmp	.-12     	; 0xfba <_ZN7MPU605016writeMemoryBlockEPKhjhhhh.constprop.24+0x136>
     fc6:	9d 83       	std	Y+5, r25	; 0x05
     fc8:	89 81       	ldd	r24, Y+1	; 0x01
     fca:	9a 81       	ldd	r25, Y+2	; 0x02
     fcc:	89 2b       	or	r24, r25
     fce:	09 f4       	brne	.+2      	; 0xfd2 <_ZN7MPU605016writeMemoryBlockEPKhjhhhh.constprop.24+0x14e>
     fd0:	91 c0       	rjmp	.+290    	; 0x10f4 <_ZN7MPU605016writeMemoryBlockEPKhjhhhh.constprop.24+0x270>
     fd2:	46 2d       	mov	r20, r6
     fd4:	6d e6       	ldi	r22, 0x6D	; 109
     fd6:	f6 01       	movw	r30, r12
     fd8:	80 81       	ld	r24, Z
     fda:	0e 94 ce 05 	call	0xb9c	; 0xb9c <_ZN5myI2C9WriteByteEhhh.constprop.35>
     fde:	47 2d       	mov	r20, r7
     fe0:	6e e6       	ldi	r22, 0x6E	; 110
     fe2:	f6 01       	movw	r30, r12
     fe4:	80 81       	ld	r24, Z
     fe6:	0e 94 ce 05 	call	0xb9c	; 0xb9c <_ZN5myI2C9WriteByteEhhh.constprop.35>
     fea:	29 81       	ldd	r18, Y+1	; 0x01
     fec:	3a 81       	ldd	r19, Y+2	; 0x02
     fee:	4e 81       	ldd	r20, Y+6	; 0x06
     ff0:	6f e6       	ldi	r22, 0x6F	; 111
     ff2:	f6 01       	movw	r30, r12
     ff4:	80 81       	ld	r24, Z
     ff6:	0e 94 d2 06 	call	0xda4	; 0xda4 <_ZN5myI2C9ReadBytesEhhhPh.part.10.constprop.29>
     ffa:	fe 81       	ldd	r31, Y+6	; 0x06
     ffc:	0f 2f       	mov	r16, r31
     ffe:	10 e0       	ldi	r17, 0x00	; 0
    1000:	a8 01       	movw	r20, r16
    1002:	69 81       	ldd	r22, Y+1	; 0x01
    1004:	7a 81       	ldd	r23, Y+2	; 0x02
    1006:	c2 01       	movw	r24, r4
    1008:	0e 94 ee 1e 	call	0x3ddc	; 0x3ddc <memcmp>
    100c:	89 2b       	or	r24, r25
    100e:	09 f0       	breq	.+2      	; 0x1012 <_ZN7MPU605016writeMemoryBlockEPKhjhhhh.constprop.24+0x18e>
    1010:	87 c0       	rjmp	.+270    	; 0x1120 <__stack+0x21>
    1012:	e0 0e       	add	r14, r16
    1014:	f1 1e       	adc	r15, r17
    1016:	ea 14       	cp	r14, r10
    1018:	fb 04       	cpc	r15, r11
    101a:	08 f4       	brcc	.+2      	; 0x101e <_ZN7MPU605016writeMemoryBlockEPKhjhhhh.constprop.24+0x19a>
    101c:	3d c0       	rjmp	.+122    	; 0x1098 <_ZN7MPU605016writeMemoryBlockEPKhjhhhh.constprop.24+0x214>
    101e:	89 81       	ldd	r24, Y+1	; 0x01
    1020:	9a 81       	ldd	r25, Y+2	; 0x02
    1022:	0e 94 80 1d 	call	0x3b00	; 0x3b00 <free>
    1026:	fb 81       	ldd	r31, Y+3	; 0x03
    1028:	f1 11       	cpse	r31, r1
    102a:	75 c0       	rjmp	.+234    	; 0x1116 <__stack+0x17>
    102c:	11 e0       	ldi	r17, 0x01	; 1
    102e:	81 2f       	mov	r24, r17
    1030:	26 96       	adiw	r28, 0x06	; 6
    1032:	0f b6       	in	r0, 0x3f	; 63
    1034:	f8 94       	cli
    1036:	de bf       	out	0x3e, r29	; 62
    1038:	0f be       	out	0x3f, r0	; 63
    103a:	cd bf       	out	0x3d, r28	; 61
    103c:	df 91       	pop	r29
    103e:	cf 91       	pop	r28
    1040:	1f 91       	pop	r17
    1042:	0f 91       	pop	r16
    1044:	ff 90       	pop	r15
    1046:	ef 90       	pop	r14
    1048:	df 90       	pop	r13
    104a:	cf 90       	pop	r12
    104c:	bf 90       	pop	r11
    104e:	af 90       	pop	r10
    1050:	9f 90       	pop	r9
    1052:	8f 90       	pop	r8
    1054:	7f 90       	pop	r7
    1056:	6f 90       	pop	r6
    1058:	5f 90       	pop	r5
    105a:	4f 90       	pop	r4
    105c:	08 95       	ret
    105e:	24 01       	movw	r4, r8
    1060:	4e 0c       	add	r4, r14
    1062:	5f 1c       	adc	r5, r15
    1064:	fe 81       	ldd	r31, Y+6	; 0x06
    1066:	f1 11       	cpse	r31, r1
    1068:	75 cf       	rjmp	.-278    	; 0xf54 <_ZN7MPU605016writeMemoryBlockEPKhjhhhh.constprop.24+0xd0>
    106a:	89 81       	ldd	r24, Y+1	; 0x01
    106c:	9a 81       	ldd	r25, Y+2	; 0x02
    106e:	89 2b       	or	r24, r25
    1070:	91 f1       	breq	.+100    	; 0x10d6 <_ZN7MPU605016writeMemoryBlockEPKhjhhhh.constprop.24+0x252>
    1072:	46 2d       	mov	r20, r6
    1074:	6d e6       	ldi	r22, 0x6D	; 109
    1076:	f6 01       	movw	r30, r12
    1078:	80 81       	ld	r24, Z
    107a:	0e 94 ce 05 	call	0xb9c	; 0xb9c <_ZN5myI2C9WriteByteEhhh.constprop.35>
    107e:	47 2d       	mov	r20, r7
    1080:	6e e6       	ldi	r22, 0x6E	; 110
    1082:	f6 01       	movw	r30, r12
    1084:	80 81       	ld	r24, Z
    1086:	0e 94 ce 05 	call	0xb9c	; 0xb9c <_ZN5myI2C9WriteByteEhhh.constprop.35>
    108a:	00 e0       	ldi	r16, 0x00	; 0
    108c:	10 e0       	ldi	r17, 0x00	; 0
    108e:	e0 0e       	add	r14, r16
    1090:	f1 1e       	adc	r15, r17
    1092:	ea 14       	cp	r14, r10
    1094:	fb 04       	cpc	r15, r11
    1096:	18 f6       	brcc	.-122    	; 0x101e <_ZN7MPU605016writeMemoryBlockEPKhjhhhh.constprop.24+0x19a>
    1098:	fe 81       	ldd	r31, Y+6	; 0x06
    109a:	7f 0e       	add	r7, r31
    109c:	29 f4       	brne	.+10     	; 0x10a8 <_ZN7MPU605016writeMemoryBlockEPKhjhhhh.constprop.24+0x224>
    109e:	2c 81       	ldd	r18, Y+4	; 0x04
    10a0:	2f 5f       	subi	r18, 0xFF	; 255
    10a2:	2c 83       	std	Y+4, r18	; 0x04
    10a4:	2f 71       	andi	r18, 0x1F	; 31
    10a6:	62 2e       	mov	r6, r18
    10a8:	46 2d       	mov	r20, r6
    10aa:	6d e6       	ldi	r22, 0x6D	; 109
    10ac:	f6 01       	movw	r30, r12
    10ae:	80 81       	ld	r24, Z
    10b0:	0e 94 ce 05 	call	0xb9c	; 0xb9c <_ZN5myI2C9WriteByteEhhh.constprop.35>
    10b4:	47 2d       	mov	r20, r7
    10b6:	6e e6       	ldi	r22, 0x6E	; 110
    10b8:	f6 01       	movw	r30, r12
    10ba:	80 81       	ld	r24, Z
    10bc:	0e 94 ce 05 	call	0xb9c	; 0xb9c <_ZN5myI2C9WriteByteEhhh.constprop.35>
    10c0:	c7 01       	movw	r24, r14
    10c2:	40 96       	adiw	r24, 0x10	; 16
    10c4:	a8 16       	cp	r10, r24
    10c6:	b9 06       	cpc	r11, r25
    10c8:	08 f4       	brcc	.+2      	; 0x10cc <_ZN7MPU605016writeMemoryBlockEPKhjhhhh.constprop.24+0x248>
    10ca:	1d cf       	rjmp	.-454    	; 0xf06 <_ZN7MPU605016writeMemoryBlockEPKhjhhhh.constprop.24+0x82>
    10cc:	80 e1       	ldi	r24, 0x10	; 16
    10ce:	90 e0       	ldi	r25, 0x00	; 0
    10d0:	20 e1       	ldi	r18, 0x10	; 16
    10d2:	2e 83       	std	Y+6, r18	; 0x06
    10d4:	1d cf       	rjmp	.-454    	; 0xf10 <_ZN7MPU605016writeMemoryBlockEPKhjhhhh.constprop.24+0x8c>
    10d6:	00 e0       	ldi	r16, 0x00	; 0
    10d8:	10 e0       	ldi	r17, 0x00	; 0
    10da:	9b cf       	rjmp	.-202    	; 0x1012 <_ZN7MPU605016writeMemoryBlockEPKhjhhhh.constprop.24+0x18e>
    10dc:	90 93 73 00 	sts	0x0073, r25	; 0x800073 <__TEXT_REGION_LENGTH__+0x7e0073>
    10e0:	24 e8       	ldi	r18, 0x84	; 132
    10e2:	20 93 74 00 	sts	0x0074, r18	; 0x800074 <__TEXT_REGION_LENGTH__+0x7e0074>
    10e6:	80 91 74 00 	lds	r24, 0x0074	; 0x800074 <__TEXT_REGION_LENGTH__+0x7e0074>
    10ea:	87 ff       	sbrs	r24, 7
    10ec:	fc cf       	rjmp	.-8      	; 0x10e6 <_ZN7MPU605016writeMemoryBlockEPKhjhhhh.constprop.24+0x262>
    10ee:	80 91 71 00 	lds	r24, 0x0071	; 0x800071 <__TEXT_REGION_LENGTH__+0x7e0071>
    10f2:	42 cf       	rjmp	.-380    	; 0xf78 <_ZN7MPU605016writeMemoryBlockEPKhjhhhh.constprop.24+0xf4>
    10f4:	9e 81       	ldd	r25, Y+6	; 0x06
    10f6:	09 2f       	mov	r16, r25
    10f8:	10 e0       	ldi	r17, 0x00	; 0
    10fa:	8b cf       	rjmp	.-234    	; 0x1012 <_ZN7MPU605016writeMemoryBlockEPKhjhhhh.constprop.24+0x18e>
    10fc:	80 e1       	ldi	r24, 0x10	; 16
    10fe:	90 e0       	ldi	r25, 0x00	; 0
    1100:	0e 94 e8 1c 	call	0x39d0	; 0x39d0 <malloc>
    1104:	2c 01       	movw	r4, r24
    1106:	a1 14       	cp	r10, r1
    1108:	b1 04       	cpc	r11, r1
    110a:	09 f0       	breq	.+2      	; 0x110e <__stack+0xf>
    110c:	f2 ce       	rjmp	.-540    	; 0xef2 <_ZN7MPU605016writeMemoryBlockEPKhjhhhh.constprop.24+0x6e>
    110e:	89 81       	ldd	r24, Y+1	; 0x01
    1110:	9a 81       	ldd	r25, Y+2	; 0x02
    1112:	0e 94 80 1d 	call	0x3b00	; 0x3b00 <free>
    1116:	c2 01       	movw	r24, r4
    1118:	0e 94 80 1d 	call	0x3b00	; 0x3b00 <free>
    111c:	11 e0       	ldi	r17, 0x01	; 1
    111e:	87 cf       	rjmp	.-242    	; 0x102e <_ZN7MPU605016writeMemoryBlockEPKhjhhhh.constprop.24+0x1aa>
    1120:	1d 81       	ldd	r17, Y+5	; 0x05
    1122:	89 81       	ldd	r24, Y+1	; 0x01
    1124:	9a 81       	ldd	r25, Y+2	; 0x02
    1126:	0e 94 80 1d 	call	0x3b00	; 0x3b00 <free>
    112a:	eb 81       	ldd	r30, Y+3	; 0x03
    112c:	ee 23       	and	r30, r30
    112e:	09 f4       	brne	.+2      	; 0x1132 <__stack+0x33>
    1130:	7e cf       	rjmp	.-260    	; 0x102e <_ZN7MPU605016writeMemoryBlockEPKhjhhhh.constprop.24+0x1aa>
    1132:	c2 01       	movw	r24, r4
    1134:	0e 94 80 1d 	call	0x3b00	; 0x3b00 <free>
    1138:	7a cf       	rjmp	.-268    	; 0x102e <_ZN7MPU605016writeMemoryBlockEPKhjhhhh.constprop.24+0x1aa>
    113a:	0e 94 80 1d 	call	0x3b00	; 0x3b00 <free>
    113e:	76 cf       	rjmp	.-276    	; 0x102c <_ZN7MPU605016writeMemoryBlockEPKhjhhhh.constprop.24+0x1a8>

00001140 <_ZN7MPU605024writeDMPConfigurationSetEPKhjh.constprop.23>:
    1140:	4f 92       	push	r4
    1142:	5f 92       	push	r5
    1144:	6f 92       	push	r6
    1146:	7f 92       	push	r7
    1148:	8f 92       	push	r8
    114a:	9f 92       	push	r9
    114c:	af 92       	push	r10
    114e:	bf 92       	push	r11
    1150:	cf 92       	push	r12
    1152:	df 92       	push	r13
    1154:	ef 92       	push	r14
    1156:	ff 92       	push	r15
    1158:	0f 93       	push	r16
    115a:	1f 93       	push	r17
    115c:	cf 93       	push	r28
    115e:	df 93       	push	r29
    1160:	cd b7       	in	r28, 0x3d	; 61
    1162:	de b7       	in	r29, 0x3e	; 62
    1164:	2c 97       	sbiw	r28, 0x0c	; 12
    1166:	0f b6       	in	r0, 0x3f	; 63
    1168:	f8 94       	cli
    116a:	de bf       	out	0x3e, r29	; 62
    116c:	0f be       	out	0x3f, r0	; 63
    116e:	cd bf       	out	0x3d, r28	; 61
    1170:	9a 83       	std	Y+2, r25	; 0x02
    1172:	89 83       	std	Y+1, r24	; 0x01
    1174:	78 87       	std	Y+8, r23	; 0x08
    1176:	6f 83       	std	Y+7, r22	; 0x07
    1178:	5a 87       	std	Y+10, r21	; 0x0a
    117a:	49 87       	std	Y+9, r20	; 0x09
    117c:	88 e0       	ldi	r24, 0x08	; 8
    117e:	90 e0       	ldi	r25, 0x00	; 0
    1180:	0e 94 e8 1c 	call	0x39d0	; 0x39d0 <malloc>
    1184:	5c 01       	movw	r10, r24
    1186:	89 85       	ldd	r24, Y+9	; 0x09
    1188:	9a 85       	ldd	r25, Y+10	; 0x0a
    118a:	89 2b       	or	r24, r25
    118c:	09 f4       	brne	.+2      	; 0x1190 <_ZN7MPU605024writeDMPConfigurationSetEPKhjh.constprop.23+0x50>
    118e:	84 c1       	rjmp	.+776    	; 0x1498 <_ZN7MPU605024writeDMPConfigurationSetEPKhjh.constprop.23+0x358>
    1190:	e1 2c       	mov	r14, r1
    1192:	f1 2c       	mov	r15, r1
    1194:	24 e8       	ldi	r18, 0x84	; 132
    1196:	72 2e       	mov	r7, r18
    1198:	ef 81       	ldd	r30, Y+7	; 0x07
    119a:	f8 85       	ldd	r31, Y+8	; 0x08
    119c:	ee 0d       	add	r30, r14
    119e:	ff 1d       	adc	r31, r15
    11a0:	84 91       	lpm	r24, Z
    11a2:	8c 83       	std	Y+4, r24	; 0x04
    11a4:	f7 01       	movw	r30, r14
    11a6:	31 96       	adiw	r30, 0x01	; 1
    11a8:	8f 81       	ldd	r24, Y+7	; 0x07
    11aa:	98 85       	ldd	r25, Y+8	; 0x08
    11ac:	e8 0f       	add	r30, r24
    11ae:	f9 1f       	adc	r31, r25
    11b0:	64 90       	lpm	r6, Z
    11b2:	f7 01       	movw	r30, r14
    11b4:	33 96       	adiw	r30, 0x03	; 3
    11b6:	fe 83       	std	Y+6, r31	; 0x06
    11b8:	ed 83       	std	Y+5, r30	; 0x05
    11ba:	31 97       	sbiw	r30, 0x01	; 1
    11bc:	e8 0f       	add	r30, r24
    11be:	f9 1f       	adc	r31, r25
    11c0:	04 91       	lpm	r16, Z
    11c2:	00 23       	and	r16, r16
    11c4:	09 f4       	brne	.+2      	; 0x11c8 <_ZN7MPU605024writeDMPConfigurationSetEPKhjh.constprop.23+0x88>
    11c6:	91 c1       	rjmp	.+802    	; 0x14ea <_ZN7MPU605024writeDMPConfigurationSetEPKhjh.constprop.23+0x3aa>
    11c8:	80 2e       	mov	r8, r16
    11ca:	91 2c       	mov	r9, r1
    11cc:	03 30       	cpi	r16, 0x03	; 3
    11ce:	08 f0       	brcs	.+2      	; 0x11d2 <_ZN7MPU605024writeDMPConfigurationSetEPKhjh.constprop.23+0x92>
    11d0:	a3 c1       	rjmp	.+838    	; 0x1518 <_ZN7MPU605024writeDMPConfigurationSetEPKhjh.constprop.23+0x3d8>
    11d2:	fc 01       	movw	r30, r24
    11d4:	8d 81       	ldd	r24, Y+5	; 0x05
    11d6:	9e 81       	ldd	r25, Y+6	; 0x06
    11d8:	e8 0f       	add	r30, r24
    11da:	f9 1f       	adc	r31, r25
    11dc:	d5 01       	movw	r26, r10
    11de:	c5 01       	movw	r24, r10
    11e0:	88 0d       	add	r24, r8
    11e2:	99 1d       	adc	r25, r9
    11e4:	24 91       	lpm	r18, Z
    11e6:	2d 93       	st	X+, r18
    11e8:	31 96       	adiw	r30, 0x01	; 1
    11ea:	8a 17       	cp	r24, r26
    11ec:	9b 07       	cpc	r25, r27
    11ee:	d1 f7       	brne	.-12     	; 0x11e4 <_ZN7MPU605024writeDMPConfigurationSetEPKhjh.constprop.23+0xa4>
    11f0:	9c 81       	ldd	r25, Y+4	; 0x04
    11f2:	9f 71       	andi	r25, 0x1F	; 31
    11f4:	9b 83       	std	Y+3, r25	; 0x03
    11f6:	49 2f       	mov	r20, r25
    11f8:	6d e6       	ldi	r22, 0x6D	; 109
    11fa:	e9 81       	ldd	r30, Y+1	; 0x01
    11fc:	fa 81       	ldd	r31, Y+2	; 0x02
    11fe:	80 81       	ld	r24, Z
    1200:	0e 94 ce 05 	call	0xb9c	; 0xb9c <_ZN5myI2C9WriteByteEhhh.constprop.35>
    1204:	46 2d       	mov	r20, r6
    1206:	6e e6       	ldi	r22, 0x6E	; 110
    1208:	e9 81       	ldd	r30, Y+1	; 0x01
    120a:	fa 81       	ldd	r31, Y+2	; 0x02
    120c:	80 81       	ld	r24, Z
    120e:	0e 94 ce 05 	call	0xb9c	; 0xb9c <_ZN5myI2C9WriteByteEhhh.constprop.35>
    1212:	80 e1       	ldi	r24, 0x10	; 16
    1214:	90 e0       	ldi	r25, 0x00	; 0
    1216:	0e 94 e8 1c 	call	0x39d0	; 0x39d0 <malloc>
    121a:	2c 01       	movw	r4, r24
    121c:	1c 86       	std	Y+12, r1	; 0x0c
    121e:	1b 86       	std	Y+11, r1	; 0x0b
    1220:	8b 85       	ldd	r24, Y+11	; 0x0b
    1222:	9c 85       	ldd	r25, Y+12	; 0x0c
    1224:	40 96       	adiw	r24, 0x10	; 16
    1226:	88 16       	cp	r8, r24
    1228:	99 06       	cpc	r9, r25
    122a:	08 f0       	brcs	.+2      	; 0x122e <_ZN7MPU605024writeDMPConfigurationSetEPKhjh.constprop.23+0xee>
    122c:	9f c0       	rjmp	.+318    	; 0x136c <_ZN7MPU605024writeDMPConfigurationSetEPKhjh.constprop.23+0x22c>
    122e:	10 2f       	mov	r17, r16
    1230:	fb 85       	ldd	r31, Y+11	; 0x0b
    1232:	1f 1b       	sub	r17, r31
    1234:	21 2f       	mov	r18, r17
    1236:	30 e0       	ldi	r19, 0x00	; 0
    1238:	80 e0       	ldi	r24, 0x00	; 0
    123a:	91 e0       	ldi	r25, 0x01	; 1
    123c:	86 19       	sub	r24, r6
    123e:	91 09       	sbc	r25, r1
    1240:	82 17       	cp	r24, r18
    1242:	93 07       	cpc	r25, r19
    1244:	14 f4       	brge	.+4      	; 0x124a <_ZN7MPU605024writeDMPConfigurationSetEPKhjh.constprop.23+0x10a>
    1246:	16 2d       	mov	r17, r6
    1248:	11 95       	neg	r17
    124a:	cb 84       	ldd	r12, Y+11	; 0x0b
    124c:	dc 84       	ldd	r13, Y+12	; 0x0c
    124e:	ca 0c       	add	r12, r10
    1250:	db 1c       	adc	r13, r11
    1252:	e9 81       	ldd	r30, Y+1	; 0x01
    1254:	fa 81       	ldd	r31, Y+2	; 0x02
    1256:	80 81       	ld	r24, Z
    1258:	11 11       	cpse	r17, r1
    125a:	5b c1       	rjmp	.+694    	; 0x1512 <_ZN7MPU605024writeDMPConfigurationSetEPKhjh.constprop.23+0x3d2>
    125c:	41 14       	cp	r4, r1
    125e:	51 04       	cpc	r5, r1
    1260:	09 f4       	brne	.+2      	; 0x1264 <_ZN7MPU605024writeDMPConfigurationSetEPKhjh.constprop.23+0x124>
    1262:	35 c1       	rjmp	.+618    	; 0x14ce <_ZN7MPU605024writeDMPConfigurationSetEPKhjh.constprop.23+0x38e>
    1264:	4b 81       	ldd	r20, Y+3	; 0x03
    1266:	6d e6       	ldi	r22, 0x6D	; 109
    1268:	0e 94 ce 05 	call	0xb9c	; 0xb9c <_ZN5myI2C9WriteByteEhhh.constprop.35>
    126c:	46 2d       	mov	r20, r6
    126e:	6e e6       	ldi	r22, 0x6E	; 110
    1270:	e9 81       	ldd	r30, Y+1	; 0x01
    1272:	fa 81       	ldd	r31, Y+2	; 0x02
    1274:	80 81       	ld	r24, Z
    1276:	0e 94 ce 05 	call	0xb9c	; 0xb9c <_ZN5myI2C9WriteByteEhhh.constprop.35>
    127a:	e1 2c       	mov	r14, r1
    127c:	f1 2c       	mov	r15, r1
    127e:	eb 85       	ldd	r30, Y+11	; 0x0b
    1280:	fc 85       	ldd	r31, Y+12	; 0x0c
    1282:	ee 0d       	add	r30, r14
    1284:	ff 1d       	adc	r31, r15
    1286:	fc 87       	std	Y+12, r31	; 0x0c
    1288:	eb 87       	std	Y+11, r30	; 0x0b
    128a:	e8 15       	cp	r30, r8
    128c:	f9 05       	cpc	r31, r9
    128e:	08 f0       	brcs	.+2      	; 0x1292 <_ZN7MPU605024writeDMPConfigurationSetEPKhjh.constprop.23+0x152>
    1290:	f6 c0       	rjmp	.+492    	; 0x147e <_ZN7MPU605024writeDMPConfigurationSetEPKhjh.constprop.23+0x33e>
    1292:	61 0e       	add	r6, r17
    1294:	29 f4       	brne	.+10     	; 0x12a0 <_ZN7MPU605024writeDMPConfigurationSetEPKhjh.constprop.23+0x160>
    1296:	fc 81       	ldd	r31, Y+4	; 0x04
    1298:	ff 5f       	subi	r31, 0xFF	; 255
    129a:	fc 83       	std	Y+4, r31	; 0x04
    129c:	ff 71       	andi	r31, 0x1F	; 31
    129e:	fb 83       	std	Y+3, r31	; 0x03
    12a0:	e9 81       	ldd	r30, Y+1	; 0x01
    12a2:	fa 81       	ldd	r31, Y+2	; 0x02
    12a4:	90 81       	ld	r25, Z
    12a6:	f4 ea       	ldi	r31, 0xA4	; 164
    12a8:	f0 93 74 00 	sts	0x0074, r31	; 0x800074 <__TEXT_REGION_LENGTH__+0x7e0074>
    12ac:	80 91 74 00 	lds	r24, 0x0074	; 0x800074 <__TEXT_REGION_LENGTH__+0x7e0074>
    12b0:	87 ff       	sbrs	r24, 7
    12b2:	fc cf       	rjmp	.-8      	; 0x12ac <_ZN7MPU605024writeDMPConfigurationSetEPKhjh.constprop.23+0x16c>
    12b4:	80 91 71 00 	lds	r24, 0x0071	; 0x800071 <__TEXT_REGION_LENGTH__+0x7e0071>
    12b8:	88 7f       	andi	r24, 0xF8	; 248
    12ba:	88 30       	cpi	r24, 0x08	; 8
    12bc:	09 f4       	brne	.+2      	; 0x12c0 <_ZN7MPU605024writeDMPConfigurationSetEPKhjh.constprop.23+0x180>
    12be:	f1 c0       	rjmp	.+482    	; 0x14a2 <_ZN7MPU605024writeDMPConfigurationSetEPKhjh.constprop.23+0x362>
    12c0:	80 31       	cpi	r24, 0x10	; 16
    12c2:	09 f4       	brne	.+2      	; 0x12c6 <_ZN7MPU605024writeDMPConfigurationSetEPKhjh.constprop.23+0x186>
    12c4:	ee c0       	rjmp	.+476    	; 0x14a2 <_ZN7MPU605024writeDMPConfigurationSetEPKhjh.constprop.23+0x362>
    12c6:	8d e6       	ldi	r24, 0x6D	; 109
    12c8:	80 93 73 00 	sts	0x0073, r24	; 0x800073 <__TEXT_REGION_LENGTH__+0x7e0073>
    12cc:	70 92 74 00 	sts	0x0074, r7	; 0x800074 <__TEXT_REGION_LENGTH__+0x7e0074>
    12d0:	80 91 74 00 	lds	r24, 0x0074	; 0x800074 <__TEXT_REGION_LENGTH__+0x7e0074>
    12d4:	87 ff       	sbrs	r24, 7
    12d6:	fc cf       	rjmp	.-8      	; 0x12d0 <_ZN7MPU605024writeDMPConfigurationSetEPKhjh.constprop.23+0x190>
    12d8:	80 91 71 00 	lds	r24, 0x0071	; 0x800071 <__TEXT_REGION_LENGTH__+0x7e0071>
    12dc:	8b 81       	ldd	r24, Y+3	; 0x03
    12de:	80 93 73 00 	sts	0x0073, r24	; 0x800073 <__TEXT_REGION_LENGTH__+0x7e0073>
    12e2:	70 92 74 00 	sts	0x0074, r7	; 0x800074 <__TEXT_REGION_LENGTH__+0x7e0074>
    12e6:	80 91 74 00 	lds	r24, 0x0074	; 0x800074 <__TEXT_REGION_LENGTH__+0x7e0074>
    12ea:	87 ff       	sbrs	r24, 7
    12ec:	fc cf       	rjmp	.-8      	; 0x12e6 <_ZN7MPU605024writeDMPConfigurationSetEPKhjh.constprop.23+0x1a6>
    12ee:	80 91 71 00 	lds	r24, 0x0071	; 0x800071 <__TEXT_REGION_LENGTH__+0x7e0071>
    12f2:	94 e9       	ldi	r25, 0x94	; 148
    12f4:	90 93 74 00 	sts	0x0074, r25	; 0x800074 <__TEXT_REGION_LENGTH__+0x7e0074>
    12f8:	80 91 74 00 	lds	r24, 0x0074	; 0x800074 <__TEXT_REGION_LENGTH__+0x7e0074>
    12fc:	84 fd       	sbrc	r24, 4
    12fe:	fc cf       	rjmp	.-8      	; 0x12f8 <_ZN7MPU605024writeDMPConfigurationSetEPKhjh.constprop.23+0x1b8>
    1300:	e9 81       	ldd	r30, Y+1	; 0x01
    1302:	fa 81       	ldd	r31, Y+2	; 0x02
    1304:	90 81       	ld	r25, Z
    1306:	f4 ea       	ldi	r31, 0xA4	; 164
    1308:	f0 93 74 00 	sts	0x0074, r31	; 0x800074 <__TEXT_REGION_LENGTH__+0x7e0074>
    130c:	80 91 74 00 	lds	r24, 0x0074	; 0x800074 <__TEXT_REGION_LENGTH__+0x7e0074>
    1310:	87 ff       	sbrs	r24, 7
    1312:	fc cf       	rjmp	.-8      	; 0x130c <_ZN7MPU605024writeDMPConfigurationSetEPKhjh.constprop.23+0x1cc>
    1314:	80 91 71 00 	lds	r24, 0x0071	; 0x800071 <__TEXT_REGION_LENGTH__+0x7e0071>
    1318:	88 7f       	andi	r24, 0xF8	; 248
    131a:	88 30       	cpi	r24, 0x08	; 8
    131c:	09 f4       	brne	.+2      	; 0x1320 <_ZN7MPU605024writeDMPConfigurationSetEPKhjh.constprop.23+0x1e0>
    131e:	cc c0       	rjmp	.+408    	; 0x14b8 <_ZN7MPU605024writeDMPConfigurationSetEPKhjh.constprop.23+0x378>
    1320:	80 31       	cpi	r24, 0x10	; 16
    1322:	09 f4       	brne	.+2      	; 0x1326 <_ZN7MPU605024writeDMPConfigurationSetEPKhjh.constprop.23+0x1e6>
    1324:	c9 c0       	rjmp	.+402    	; 0x14b8 <_ZN7MPU605024writeDMPConfigurationSetEPKhjh.constprop.23+0x378>
    1326:	8e e6       	ldi	r24, 0x6E	; 110
    1328:	80 93 73 00 	sts	0x0073, r24	; 0x800073 <__TEXT_REGION_LENGTH__+0x7e0073>
    132c:	70 92 74 00 	sts	0x0074, r7	; 0x800074 <__TEXT_REGION_LENGTH__+0x7e0074>
    1330:	80 91 74 00 	lds	r24, 0x0074	; 0x800074 <__TEXT_REGION_LENGTH__+0x7e0074>
    1334:	87 ff       	sbrs	r24, 7
    1336:	fc cf       	rjmp	.-8      	; 0x1330 <_ZN7MPU605024writeDMPConfigurationSetEPKhjh.constprop.23+0x1f0>
    1338:	80 91 71 00 	lds	r24, 0x0071	; 0x800071 <__TEXT_REGION_LENGTH__+0x7e0071>
    133c:	60 92 73 00 	sts	0x0073, r6	; 0x800073 <__TEXT_REGION_LENGTH__+0x7e0073>
    1340:	70 92 74 00 	sts	0x0074, r7	; 0x800074 <__TEXT_REGION_LENGTH__+0x7e0074>
    1344:	80 91 74 00 	lds	r24, 0x0074	; 0x800074 <__TEXT_REGION_LENGTH__+0x7e0074>
    1348:	87 ff       	sbrs	r24, 7
    134a:	fc cf       	rjmp	.-8      	; 0x1344 <_ZN7MPU605024writeDMPConfigurationSetEPKhjh.constprop.23+0x204>
    134c:	80 91 71 00 	lds	r24, 0x0071	; 0x800071 <__TEXT_REGION_LENGTH__+0x7e0071>
    1350:	84 e9       	ldi	r24, 0x94	; 148
    1352:	80 93 74 00 	sts	0x0074, r24	; 0x800074 <__TEXT_REGION_LENGTH__+0x7e0074>
    1356:	80 91 74 00 	lds	r24, 0x0074	; 0x800074 <__TEXT_REGION_LENGTH__+0x7e0074>
    135a:	84 fd       	sbrc	r24, 4
    135c:	fc cf       	rjmp	.-8      	; 0x1356 <_ZN7MPU605024writeDMPConfigurationSetEPKhjh.constprop.23+0x216>
    135e:	8b 85       	ldd	r24, Y+11	; 0x0b
    1360:	9c 85       	ldd	r25, Y+12	; 0x0c
    1362:	40 96       	adiw	r24, 0x10	; 16
    1364:	88 16       	cp	r8, r24
    1366:	99 06       	cpc	r9, r25
    1368:	08 f4       	brcc	.+2      	; 0x136c <_ZN7MPU605024writeDMPConfigurationSetEPKhjh.constprop.23+0x22c>
    136a:	61 cf       	rjmp	.-318    	; 0x122e <_ZN7MPU605024writeDMPConfigurationSetEPKhjh.constprop.23+0xee>
    136c:	80 e0       	ldi	r24, 0x00	; 0
    136e:	91 e0       	ldi	r25, 0x01	; 1
    1370:	86 19       	sub	r24, r6
    1372:	91 09       	sbc	r25, r1
    1374:	40 97       	sbiw	r24, 0x10	; 16
    1376:	0c f4       	brge	.+2      	; 0x137a <_ZN7MPU605024writeDMPConfigurationSetEPKhjh.constprop.23+0x23a>
    1378:	66 cf       	rjmp	.-308    	; 0x1246 <_ZN7MPU605024writeDMPConfigurationSetEPKhjh.constprop.23+0x106>
    137a:	cb 84       	ldd	r12, Y+11	; 0x0b
    137c:	dc 84       	ldd	r13, Y+12	; 0x0c
    137e:	ca 0c       	add	r12, r10
    1380:	db 1c       	adc	r13, r11
    1382:	e9 81       	ldd	r30, Y+1	; 0x01
    1384:	fa 81       	ldd	r31, Y+2	; 0x02
    1386:	80 81       	ld	r24, Z
    1388:	90 e1       	ldi	r25, 0x10	; 16
    138a:	e9 2e       	mov	r14, r25
    138c:	f1 2c       	mov	r15, r1
    138e:	10 e1       	ldi	r17, 0x10	; 16
    1390:	f4 ea       	ldi	r31, 0xA4	; 164
    1392:	f0 93 74 00 	sts	0x0074, r31	; 0x800074 <__TEXT_REGION_LENGTH__+0x7e0074>
    1396:	90 91 74 00 	lds	r25, 0x0074	; 0x800074 <__TEXT_REGION_LENGTH__+0x7e0074>
    139a:	97 ff       	sbrs	r25, 7
    139c:	fc cf       	rjmp	.-8      	; 0x1396 <_ZN7MPU605024writeDMPConfigurationSetEPKhjh.constprop.23+0x256>
    139e:	90 91 71 00 	lds	r25, 0x0071	; 0x800071 <__TEXT_REGION_LENGTH__+0x7e0071>
    13a2:	98 7f       	andi	r25, 0xF8	; 248
    13a4:	98 30       	cpi	r25, 0x08	; 8
    13a6:	09 f4       	brne	.+2      	; 0x13aa <_ZN7MPU605024writeDMPConfigurationSetEPKhjh.constprop.23+0x26a>
    13a8:	95 c0       	rjmp	.+298    	; 0x14d4 <_ZN7MPU605024writeDMPConfigurationSetEPKhjh.constprop.23+0x394>
    13aa:	90 31       	cpi	r25, 0x10	; 16
    13ac:	09 f4       	brne	.+2      	; 0x13b0 <_ZN7MPU605024writeDMPConfigurationSetEPKhjh.constprop.23+0x270>
    13ae:	92 c0       	rjmp	.+292    	; 0x14d4 <_ZN7MPU605024writeDMPConfigurationSetEPKhjh.constprop.23+0x394>
    13b0:	8f e6       	ldi	r24, 0x6F	; 111
    13b2:	80 93 73 00 	sts	0x0073, r24	; 0x800073 <__TEXT_REGION_LENGTH__+0x7e0073>
    13b6:	70 92 74 00 	sts	0x0074, r7	; 0x800074 <__TEXT_REGION_LENGTH__+0x7e0074>
    13ba:	80 91 74 00 	lds	r24, 0x0074	; 0x800074 <__TEXT_REGION_LENGTH__+0x7e0074>
    13be:	87 ff       	sbrs	r24, 7
    13c0:	fc cf       	rjmp	.-8      	; 0x13ba <_ZN7MPU605024writeDMPConfigurationSetEPKhjh.constprop.23+0x27a>
    13c2:	80 91 71 00 	lds	r24, 0x0071	; 0x800071 <__TEXT_REGION_LENGTH__+0x7e0071>
    13c6:	f6 01       	movw	r30, r12
    13c8:	8f ef       	ldi	r24, 0xFF	; 255
    13ca:	81 0f       	add	r24, r17
    13cc:	90 e0       	ldi	r25, 0x00	; 0
    13ce:	01 96       	adiw	r24, 0x01	; 1
    13d0:	8c 0d       	add	r24, r12
    13d2:	9d 1d       	adc	r25, r13
    13d4:	21 91       	ld	r18, Z+
    13d6:	20 93 73 00 	sts	0x0073, r18	; 0x800073 <__TEXT_REGION_LENGTH__+0x7e0073>
    13da:	70 92 74 00 	sts	0x0074, r7	; 0x800074 <__TEXT_REGION_LENGTH__+0x7e0074>
    13de:	20 91 74 00 	lds	r18, 0x0074	; 0x800074 <__TEXT_REGION_LENGTH__+0x7e0074>
    13e2:	27 ff       	sbrs	r18, 7
    13e4:	fc cf       	rjmp	.-8      	; 0x13de <_ZN7MPU605024writeDMPConfigurationSetEPKhjh.constprop.23+0x29e>
    13e6:	20 91 71 00 	lds	r18, 0x0071	; 0x800071 <__TEXT_REGION_LENGTH__+0x7e0071>
    13ea:	8e 17       	cp	r24, r30
    13ec:	9f 07       	cpc	r25, r31
    13ee:	91 f7       	brne	.-28     	; 0x13d4 <_ZN7MPU605024writeDMPConfigurationSetEPKhjh.constprop.23+0x294>
    13f0:	94 e9       	ldi	r25, 0x94	; 148
    13f2:	90 93 74 00 	sts	0x0074, r25	; 0x800074 <__TEXT_REGION_LENGTH__+0x7e0074>
    13f6:	80 91 74 00 	lds	r24, 0x0074	; 0x800074 <__TEXT_REGION_LENGTH__+0x7e0074>
    13fa:	84 fd       	sbrc	r24, 4
    13fc:	fc cf       	rjmp	.-8      	; 0x13f6 <_ZN7MPU605024writeDMPConfigurationSetEPKhjh.constprop.23+0x2b6>
    13fe:	41 14       	cp	r4, r1
    1400:	51 04       	cpc	r5, r1
    1402:	09 f4       	brne	.+2      	; 0x1406 <_ZN7MPU605024writeDMPConfigurationSetEPKhjh.constprop.23+0x2c6>
    1404:	3c cf       	rjmp	.-392    	; 0x127e <_ZN7MPU605024writeDMPConfigurationSetEPKhjh.constprop.23+0x13e>
    1406:	4b 81       	ldd	r20, Y+3	; 0x03
    1408:	6d e6       	ldi	r22, 0x6D	; 109
    140a:	e9 81       	ldd	r30, Y+1	; 0x01
    140c:	fa 81       	ldd	r31, Y+2	; 0x02
    140e:	80 81       	ld	r24, Z
    1410:	0e 94 ce 05 	call	0xb9c	; 0xb9c <_ZN5myI2C9WriteByteEhhh.constprop.35>
    1414:	46 2d       	mov	r20, r6
    1416:	6e e6       	ldi	r22, 0x6E	; 110
    1418:	e9 81       	ldd	r30, Y+1	; 0x01
    141a:	fa 81       	ldd	r31, Y+2	; 0x02
    141c:	80 81       	ld	r24, Z
    141e:	0e 94 ce 05 	call	0xb9c	; 0xb9c <_ZN5myI2C9WriteByteEhhh.constprop.35>
    1422:	92 01       	movw	r18, r4
    1424:	41 2f       	mov	r20, r17
    1426:	6f e6       	ldi	r22, 0x6F	; 111
    1428:	e9 81       	ldd	r30, Y+1	; 0x01
    142a:	fa 81       	ldd	r31, Y+2	; 0x02
    142c:	80 81       	ld	r24, Z
    142e:	0e 94 d2 06 	call	0xda4	; 0xda4 <_ZN5myI2C9ReadBytesEhhhPh.part.10.constprop.29>
    1432:	a7 01       	movw	r20, r14
    1434:	b2 01       	movw	r22, r4
    1436:	c6 01       	movw	r24, r12
    1438:	0e 94 ee 1e 	call	0x3ddc	; 0x3ddc <memcmp>
    143c:	89 2b       	or	r24, r25
    143e:	09 f4       	brne	.+2      	; 0x1442 <_ZN7MPU605024writeDMPConfigurationSetEPKhjh.constprop.23+0x302>
    1440:	1e cf       	rjmp	.-452    	; 0x127e <_ZN7MPU605024writeDMPConfigurationSetEPKhjh.constprop.23+0x13e>
    1442:	c2 01       	movw	r24, r4
    1444:	0e 94 80 1d 	call	0x3b00	; 0x3b00 <free>
    1448:	c5 01       	movw	r24, r10
    144a:	0e 94 80 1d 	call	0x3b00	; 0x3b00 <free>
    144e:	80 e0       	ldi	r24, 0x00	; 0
    1450:	2c 96       	adiw	r28, 0x0c	; 12
    1452:	0f b6       	in	r0, 0x3f	; 63
    1454:	f8 94       	cli
    1456:	de bf       	out	0x3e, r29	; 62
    1458:	0f be       	out	0x3f, r0	; 63
    145a:	cd bf       	out	0x3d, r28	; 61
    145c:	df 91       	pop	r29
    145e:	cf 91       	pop	r28
    1460:	1f 91       	pop	r17
    1462:	0f 91       	pop	r16
    1464:	ff 90       	pop	r15
    1466:	ef 90       	pop	r14
    1468:	df 90       	pop	r13
    146a:	cf 90       	pop	r12
    146c:	bf 90       	pop	r11
    146e:	af 90       	pop	r10
    1470:	9f 90       	pop	r9
    1472:	8f 90       	pop	r8
    1474:	7f 90       	pop	r7
    1476:	6f 90       	pop	r6
    1478:	5f 90       	pop	r5
    147a:	4f 90       	pop	r4
    147c:	08 95       	ret
    147e:	c2 01       	movw	r24, r4
    1480:	0e 94 80 1d 	call	0x3b00	; 0x3b00 <free>
    1484:	ed 80       	ldd	r14, Y+5	; 0x05
    1486:	fe 80       	ldd	r15, Y+6	; 0x06
    1488:	e8 0c       	add	r14, r8
    148a:	f9 1c       	adc	r15, r9
    148c:	e9 85       	ldd	r30, Y+9	; 0x09
    148e:	fa 85       	ldd	r31, Y+10	; 0x0a
    1490:	ee 16       	cp	r14, r30
    1492:	ff 06       	cpc	r15, r31
    1494:	08 f4       	brcc	.+2      	; 0x1498 <_ZN7MPU605024writeDMPConfigurationSetEPKhjh.constprop.23+0x358>
    1496:	80 ce       	rjmp	.-768    	; 0x1198 <_ZN7MPU605024writeDMPConfigurationSetEPKhjh.constprop.23+0x58>
    1498:	c5 01       	movw	r24, r10
    149a:	0e 94 80 1d 	call	0x3b00	; 0x3b00 <free>
    149e:	81 e0       	ldi	r24, 0x01	; 1
    14a0:	d7 cf       	rjmp	.-82     	; 0x1450 <_ZN7MPU605024writeDMPConfigurationSetEPKhjh.constprop.23+0x310>
    14a2:	90 93 73 00 	sts	0x0073, r25	; 0x800073 <__TEXT_REGION_LENGTH__+0x7e0073>
    14a6:	70 92 74 00 	sts	0x0074, r7	; 0x800074 <__TEXT_REGION_LENGTH__+0x7e0074>
    14aa:	80 91 74 00 	lds	r24, 0x0074	; 0x800074 <__TEXT_REGION_LENGTH__+0x7e0074>
    14ae:	87 ff       	sbrs	r24, 7
    14b0:	fc cf       	rjmp	.-8      	; 0x14aa <_ZN7MPU605024writeDMPConfigurationSetEPKhjh.constprop.23+0x36a>
    14b2:	80 91 71 00 	lds	r24, 0x0071	; 0x800071 <__TEXT_REGION_LENGTH__+0x7e0071>
    14b6:	07 cf       	rjmp	.-498    	; 0x12c6 <_ZN7MPU605024writeDMPConfigurationSetEPKhjh.constprop.23+0x186>
    14b8:	90 93 73 00 	sts	0x0073, r25	; 0x800073 <__TEXT_REGION_LENGTH__+0x7e0073>
    14bc:	70 92 74 00 	sts	0x0074, r7	; 0x800074 <__TEXT_REGION_LENGTH__+0x7e0074>
    14c0:	80 91 74 00 	lds	r24, 0x0074	; 0x800074 <__TEXT_REGION_LENGTH__+0x7e0074>
    14c4:	87 ff       	sbrs	r24, 7
    14c6:	fc cf       	rjmp	.-8      	; 0x14c0 <_ZN7MPU605024writeDMPConfigurationSetEPKhjh.constprop.23+0x380>
    14c8:	80 91 71 00 	lds	r24, 0x0071	; 0x800071 <__TEXT_REGION_LENGTH__+0x7e0071>
    14cc:	2c cf       	rjmp	.-424    	; 0x1326 <_ZN7MPU605024writeDMPConfigurationSetEPKhjh.constprop.23+0x1e6>
    14ce:	e1 2c       	mov	r14, r1
    14d0:	f1 2c       	mov	r15, r1
    14d2:	d5 ce       	rjmp	.-598    	; 0x127e <_ZN7MPU605024writeDMPConfigurationSetEPKhjh.constprop.23+0x13e>
    14d4:	80 93 73 00 	sts	0x0073, r24	; 0x800073 <__TEXT_REGION_LENGTH__+0x7e0073>
    14d8:	70 92 74 00 	sts	0x0074, r7	; 0x800074 <__TEXT_REGION_LENGTH__+0x7e0074>
    14dc:	80 91 74 00 	lds	r24, 0x0074	; 0x800074 <__TEXT_REGION_LENGTH__+0x7e0074>
    14e0:	87 ff       	sbrs	r24, 7
    14e2:	fc cf       	rjmp	.-8      	; 0x14dc <_ZN7MPU605024writeDMPConfigurationSetEPKhjh.constprop.23+0x39c>
    14e4:	80 91 71 00 	lds	r24, 0x0071	; 0x800071 <__TEXT_REGION_LENGTH__+0x7e0071>
    14e8:	63 cf       	rjmp	.-314    	; 0x13b0 <_ZN7MPU605024writeDMPConfigurationSetEPKhjh.constprop.23+0x270>
    14ea:	fc 01       	movw	r30, r24
    14ec:	94 e0       	ldi	r25, 0x04	; 4
    14ee:	e9 0e       	add	r14, r25
    14f0:	f1 1c       	adc	r15, r1
    14f2:	8d 81       	ldd	r24, Y+5	; 0x05
    14f4:	9e 81       	ldd	r25, Y+6	; 0x06
    14f6:	e8 0f       	add	r30, r24
    14f8:	f9 1f       	adc	r31, r25
    14fa:	e4 91       	lpm	r30, Z
    14fc:	e1 30       	cpi	r30, 0x01	; 1
    14fe:	09 f0       	breq	.+2      	; 0x1502 <_ZN7MPU605024writeDMPConfigurationSetEPKhjh.constprop.23+0x3c2>
    1500:	a3 cf       	rjmp	.-186    	; 0x1448 <_ZN7MPU605024writeDMPConfigurationSetEPKhjh.constprop.23+0x308>
    1502:	42 e3       	ldi	r20, 0x32	; 50
    1504:	68 e3       	ldi	r22, 0x38	; 56
    1506:	e9 81       	ldd	r30, Y+1	; 0x01
    1508:	fa 81       	ldd	r31, Y+2	; 0x02
    150a:	80 81       	ld	r24, Z
    150c:	0e 94 ce 05 	call	0xb9c	; 0xb9c <_ZN5myI2C9WriteByteEhhh.constprop.35>
    1510:	bd cf       	rjmp	.-134    	; 0x148c <_ZN7MPU605024writeDMPConfigurationSetEPKhjh.constprop.23+0x34c>
    1512:	e1 2e       	mov	r14, r17
    1514:	f1 2c       	mov	r15, r1
    1516:	3c cf       	rjmp	.-392    	; 0x1390 <_ZN7MPU605024writeDMPConfigurationSetEPKhjh.constprop.23+0x250>
    1518:	b4 01       	movw	r22, r8
    151a:	c5 01       	movw	r24, r10
    151c:	0e 94 09 1e 	call	0x3c12	; 0x3c12 <realloc>
    1520:	5c 01       	movw	r10, r24
    1522:	ef 81       	ldd	r30, Y+7	; 0x07
    1524:	f8 85       	ldd	r31, Y+8	; 0x08
    1526:	56 ce       	rjmp	.-852    	; 0x11d4 <_ZN7MPU605024writeDMPConfigurationSetEPKhjh.constprop.23+0x94>

00001528 <_ZN5myLCD9TulisKiriEhPKc.constprop.33>:
    1528:	cf 93       	push	r28
    152a:	df 93       	push	r29
    152c:	d8 2f       	mov	r29, r24
    152e:	c9 2f       	mov	r28, r25
    1530:	80 ec       	ldi	r24, 0xC0	; 192
    1532:	0e 94 ca 04 	call	0x994	; 0x994 <_ZN5myLCD8PerintahEh.constprop.56>
    1536:	ed 2f       	mov	r30, r29
    1538:	fc 2f       	mov	r31, r28
    153a:	af 01       	movw	r20, r30
    153c:	40 5f       	subi	r20, 0xF0	; 240
    153e:	5f 4f       	sbci	r21, 0xFF	; 255
    1540:	22 2d       	mov	r18, r2
    1542:	21 70       	andi	r18, 0x01	; 1
    1544:	29 c0       	rjmp	.+82     	; 0x1598 <_ZN5myLCD9TulisKiriEhPKc.constprop.33+0x70>
    1546:	9d 60       	ori	r25, 0x0D	; 13
    1548:	9b bb       	out	0x1b, r25	; 27
    154a:	35 e0       	ldi	r19, 0x05	; 5
    154c:	3a 95       	dec	r19
    154e:	f1 f7       	brne	.-4      	; 0x154c <_ZN5myLCD9TulisKiriEhPKc.constprop.33+0x24>
    1550:	00 00       	nop
    1552:	da 98       	cbi	0x1b, 2	; 27
    1554:	9a e1       	ldi	r25, 0x1A	; 26
    1556:	9a 95       	dec	r25
    1558:	f1 f7       	brne	.-4      	; 0x1556 <_ZN5myLCD9TulisKiriEhPKc.constprop.33+0x2e>
    155a:	00 c0       	rjmp	.+0      	; 0x155c <_ZN5myLCD9TulisKiriEhPKc.constprop.33+0x34>
    155c:	30 e1       	ldi	r19, 0x10	; 16
    155e:	83 9f       	mul	r24, r19
    1560:	c0 01       	movw	r24, r0
    1562:	11 24       	eor	r1, r1
    1564:	21 11       	cpse	r18, r1
    1566:	21 c0       	rjmp	.+66     	; 0x15aa <_ZN5myLCD9TulisKiriEhPKc.constprop.33+0x82>
    1568:	85 60       	ori	r24, 0x05	; 5
    156a:	8b bb       	out	0x1b, r24	; 27
    156c:	85 e0       	ldi	r24, 0x05	; 5
    156e:	8a 95       	dec	r24
    1570:	f1 f7       	brne	.-4      	; 0x156e <_ZN5myLCD9TulisKiriEhPKc.constprop.33+0x46>
    1572:	00 00       	nop
    1574:	da 98       	cbi	0x1b, 2	; 27
    1576:	95 ed       	ldi	r25, 0xD5	; 213
    1578:	9a 95       	dec	r25
    157a:	f1 f7       	brne	.-4      	; 0x1578 <_ZN5myLCD9TulisKiriEhPKc.constprop.33+0x50>
    157c:	00 00       	nop
    157e:	da 9a       	sbi	0x1b, 2	; 27
    1580:	3f e7       	ldi	r19, 0x7F	; 127
    1582:	88 e3       	ldi	r24, 0x38	; 56
    1584:	91 e0       	ldi	r25, 0x01	; 1
    1586:	31 50       	subi	r19, 0x01	; 1
    1588:	80 40       	sbci	r24, 0x00	; 0
    158a:	90 40       	sbci	r25, 0x00	; 0
    158c:	e1 f7       	brne	.-8      	; 0x1586 <_ZN5myLCD9TulisKiriEhPKc.constprop.33+0x5e>
    158e:	00 c0       	rjmp	.+0      	; 0x1590 <_ZN5myLCD9TulisKiriEhPKc.constprop.33+0x68>
    1590:	00 00       	nop
    1592:	4e 17       	cp	r20, r30
    1594:	5f 07       	cpc	r21, r31
    1596:	61 f0       	breq	.+24     	; 0x15b0 <_ZN5myLCD9TulisKiriEhPKc.constprop.33+0x88>
    1598:	81 91       	ld	r24, Z+
    159a:	d8 9a       	sbi	0x1b, 0	; 27
    159c:	98 2f       	mov	r25, r24
    159e:	90 7f       	andi	r25, 0xF0	; 240
    15a0:	21 11       	cpse	r18, r1
    15a2:	d1 cf       	rjmp	.-94     	; 0x1546 <_ZN5myLCD9TulisKiriEhPKc.constprop.33+0x1e>
    15a4:	95 60       	ori	r25, 0x05	; 5
    15a6:	9b bb       	out	0x1b, r25	; 27
    15a8:	d0 cf       	rjmp	.-96     	; 0x154a <_ZN5myLCD9TulisKiriEhPKc.constprop.33+0x22>
    15aa:	8d 60       	ori	r24, 0x0D	; 13
    15ac:	8b bb       	out	0x1b, r24	; 27
    15ae:	de cf       	rjmp	.-68     	; 0x156c <_ZN5myLCD9TulisKiriEhPKc.constprop.33+0x44>
    15b0:	df 91       	pop	r29
    15b2:	cf 91       	pop	r28
    15b4:	08 95       	ret

000015b6 <__vector_30>:
    15b6:	1f 92       	push	r1
    15b8:	0f 92       	push	r0
    15ba:	0f b6       	in	r0, 0x3f	; 63
    15bc:	0f 92       	push	r0
    15be:	11 24       	eor	r1, r1
    15c0:	0b b6       	in	r0, 0x3b	; 59
    15c2:	0f 92       	push	r0
    15c4:	8f 93       	push	r24
    15c6:	ef 93       	push	r30
    15c8:	ff 93       	push	r31
    15ca:	cf 93       	push	r28
    15cc:	df 93       	push	r29
    15ce:	00 d0       	rcall	.+0      	; 0x15d0 <__vector_30+0x1a>
    15d0:	cd b7       	in	r28, 0x3d	; 61
    15d2:	de b7       	in	r29, 0x3e	; 62
    15d4:	80 91 9b 00 	lds	r24, 0x009B	; 0x80009b <__TEXT_REGION_LENGTH__+0x7e009b>
    15d8:	8a 83       	std	Y+2, r24	; 0x02
    15da:	80 91 9c 00 	lds	r24, 0x009C	; 0x80009c <__TEXT_REGION_LENGTH__+0x7e009c>
    15de:	89 83       	std	Y+1, r24	; 0x01
    15e0:	8a 81       	ldd	r24, Y+2	; 0x02
    15e2:	8c 71       	andi	r24, 0x1C	; 28
    15e4:	a9 f4       	brne	.+42     	; 0x1610 <__vector_30+0x5a>
    15e6:	e0 91 e0 02 	lds	r30, 0x02E0	; 0x8002e0 <rx_wr_index1>
    15ea:	f0 e0       	ldi	r31, 0x00	; 0
    15ec:	89 81       	ldd	r24, Y+1	; 0x01
    15ee:	ef 51       	subi	r30, 0x1F	; 31
    15f0:	fd 4f       	sbci	r31, 0xFD	; 253
    15f2:	80 83       	st	Z, r24
    15f4:	80 91 e0 02 	lds	r24, 0x02E0	; 0x8002e0 <rx_wr_index1>
    15f8:	8f 5f       	subi	r24, 0xFF	; 255
    15fa:	80 93 e0 02 	sts	0x02E0, r24	; 0x8002e0 <rx_wr_index1>
    15fe:	80 31       	cpi	r24, 0x10	; 16
    1600:	d9 f0       	breq	.+54     	; 0x1638 <__vector_30+0x82>
    1602:	80 91 de 02 	lds	r24, 0x02DE	; 0x8002de <rx_counter1>
    1606:	8f 5f       	subi	r24, 0xFF	; 255
    1608:	80 93 de 02 	sts	0x02DE, r24	; 0x8002de <rx_counter1>
    160c:	80 31       	cpi	r24, 0x10	; 16
    160e:	71 f0       	breq	.+28     	; 0x162c <__vector_30+0x76>
    1610:	0f 90       	pop	r0
    1612:	0f 90       	pop	r0
    1614:	df 91       	pop	r29
    1616:	cf 91       	pop	r28
    1618:	ff 91       	pop	r31
    161a:	ef 91       	pop	r30
    161c:	8f 91       	pop	r24
    161e:	0f 90       	pop	r0
    1620:	0b be       	out	0x3b, r0	; 59
    1622:	0f 90       	pop	r0
    1624:	0f be       	out	0x3f, r0	; 63
    1626:	0f 90       	pop	r0
    1628:	1f 90       	pop	r1
    162a:	18 95       	reti
    162c:	10 92 de 02 	sts	0x02DE, r1	; 0x8002de <rx_counter1>
    1630:	81 e0       	ldi	r24, 0x01	; 1
    1632:	80 93 dd 02 	sts	0x02DD, r24	; 0x8002dd <rx_buffer_overflow1>
    1636:	ec cf       	rjmp	.-40     	; 0x1610 <__vector_30+0x5a>
    1638:	10 92 e0 02 	sts	0x02E0, r1	; 0x8002e0 <rx_wr_index1>
    163c:	80 91 de 02 	lds	r24, 0x02DE	; 0x8002de <rx_counter1>
    1640:	8f 5f       	subi	r24, 0xFF	; 255
    1642:	80 93 de 02 	sts	0x02DE, r24	; 0x8002de <rx_counter1>
    1646:	80 31       	cpi	r24, 0x10	; 16
    1648:	19 f7       	brne	.-58     	; 0x1610 <__vector_30+0x5a>
    164a:	f0 cf       	rjmp	.-32     	; 0x162c <__vector_30+0x76>

0000164c <_ZN7myMotor8SpeedPWMEii>:
    164c:	77 fd       	sbrc	r23, 7
    164e:	0d c0       	rjmp	.+26     	; 0x166a <_ZN7myMotor8SpeedPWMEii+0x1e>
    1650:	70 93 85 00 	sts	0x0085, r23	; 0x800085 <__TEXT_REGION_LENGTH__+0x7e0085>
    1654:	60 93 84 00 	sts	0x0084, r22	; 0x800084 <__TEXT_REGION_LENGTH__+0x7e0084>
    1658:	1d 9a       	sbi	0x03, 5	; 3
    165a:	57 fd       	sbrc	r21, 7
    165c:	10 c0       	rjmp	.+32     	; 0x167e <_ZN7myMotor8SpeedPWMEii+0x32>
    165e:	50 93 87 00 	sts	0x0087, r21	; 0x800087 <__TEXT_REGION_LENGTH__+0x7e0087>
    1662:	40 93 86 00 	sts	0x0086, r20	; 0x800086 <__TEXT_REGION_LENGTH__+0x7e0086>
    1666:	1a 9a       	sbi	0x03, 2	; 3
    1668:	08 95       	ret
    166a:	71 95       	neg	r23
    166c:	61 95       	neg	r22
    166e:	71 09       	sbc	r23, r1
    1670:	70 93 85 00 	sts	0x0085, r23	; 0x800085 <__TEXT_REGION_LENGTH__+0x7e0085>
    1674:	60 93 84 00 	sts	0x0084, r22	; 0x800084 <__TEXT_REGION_LENGTH__+0x7e0084>
    1678:	1d 98       	cbi	0x03, 5	; 3
    167a:	57 ff       	sbrs	r21, 7
    167c:	f0 cf       	rjmp	.-32     	; 0x165e <_ZN7myMotor8SpeedPWMEii+0x12>
    167e:	51 95       	neg	r21
    1680:	41 95       	neg	r20
    1682:	51 09       	sbc	r21, r1
    1684:	50 93 87 00 	sts	0x0087, r21	; 0x800087 <__TEXT_REGION_LENGTH__+0x7e0087>
    1688:	40 93 86 00 	sts	0x0086, r20	; 0x800086 <__TEXT_REGION_LENGTH__+0x7e0086>
    168c:	1a 98       	cbi	0x03, 2	; 3
    168e:	08 95       	ret

00001690 <_ZN11myBalancing7ControlEv.part.20>:
    1690:	4f 92       	push	r4
    1692:	5f 92       	push	r5
    1694:	6f 92       	push	r6
    1696:	7f 92       	push	r7
    1698:	8f 92       	push	r8
    169a:	9f 92       	push	r9
    169c:	af 92       	push	r10
    169e:	bf 92       	push	r11
    16a0:	cf 92       	push	r12
    16a2:	df 92       	push	r13
    16a4:	ef 92       	push	r14
    16a6:	ff 92       	push	r15
    16a8:	0f 93       	push	r16
    16aa:	1f 93       	push	r17
    16ac:	cf 93       	push	r28
    16ae:	df 93       	push	r29
    16b0:	cd b7       	in	r28, 0x3d	; 61
    16b2:	de b7       	in	r29, 0x3e	; 62
    16b4:	2c 97       	sbiw	r28, 0x0c	; 12
    16b6:	0f b6       	in	r0, 0x3f	; 63
    16b8:	f8 94       	cli
    16ba:	de bf       	out	0x3e, r29	; 62
    16bc:	0f be       	out	0x3f, r0	; 63
    16be:	cd bf       	out	0x3d, r28	; 61
    16c0:	8c 01       	movw	r16, r24
    16c2:	80 91 cc 02 	lds	r24, 0x02CC	; 0x8002cc <imu+0x43>
    16c6:	90 91 cd 02 	lds	r25, 0x02CD	; 0x8002cd <imu+0x44>
    16ca:	a0 91 ce 02 	lds	r26, 0x02CE	; 0x8002ce <imu+0x45>
    16ce:	b0 91 cf 02 	lds	r27, 0x02CF	; 0x8002cf <imu+0x46>
    16d2:	89 87       	std	Y+9, r24	; 0x09
    16d4:	9a 87       	std	Y+10, r25	; 0x0a
    16d6:	ab 87       	std	Y+11, r26	; 0x0b
    16d8:	bc 87       	std	Y+12, r27	; 0x0c
    16da:	80 91 bc 02 	lds	r24, 0x02BC	; 0x8002bc <imu+0x33>
    16de:	90 91 bd 02 	lds	r25, 0x02BD	; 0x8002bd <imu+0x34>
    16e2:	a0 91 be 02 	lds	r26, 0x02BE	; 0x8002be <imu+0x35>
    16e6:	b0 91 bf 02 	lds	r27, 0x02BF	; 0x8002bf <imu+0x36>
    16ea:	89 83       	std	Y+1, r24	; 0x01
    16ec:	9a 83       	std	Y+2, r25	; 0x02
    16ee:	ab 83       	std	Y+3, r26	; 0x03
    16f0:	bc 83       	std	Y+4, r27	; 0x04
    16f2:	80 91 c0 02 	lds	r24, 0x02C0	; 0x8002c0 <imu+0x37>
    16f6:	90 91 c1 02 	lds	r25, 0x02C1	; 0x8002c1 <imu+0x38>
    16fa:	a0 91 c2 02 	lds	r26, 0x02C2	; 0x8002c2 <imu+0x39>
    16fe:	b0 91 c3 02 	lds	r27, 0x02C3	; 0x8002c3 <imu+0x3a>
    1702:	8d 83       	std	Y+5, r24	; 0x05
    1704:	9e 83       	std	Y+6, r25	; 0x06
    1706:	af 83       	std	Y+7, r26	; 0x07
    1708:	b8 87       	std	Y+8, r27	; 0x08
    170a:	80 90 c4 02 	lds	r8, 0x02C4	; 0x8002c4 <imu+0x3b>
    170e:	90 90 c5 02 	lds	r9, 0x02C5	; 0x8002c5 <imu+0x3c>
    1712:	a0 90 c6 02 	lds	r10, 0x02C6	; 0x8002c6 <imu+0x3d>
    1716:	b0 90 c7 02 	lds	r11, 0x02C7	; 0x8002c7 <imu+0x3e>
    171a:	c0 90 c8 02 	lds	r12, 0x02C8	; 0x8002c8 <imu+0x3f>
    171e:	d0 90 c9 02 	lds	r13, 0x02C9	; 0x8002c9 <imu+0x40>
    1722:	e0 90 ca 02 	lds	r14, 0x02CA	; 0x8002ca <imu+0x41>
    1726:	f0 90 cb 02 	lds	r15, 0x02CB	; 0x8002cb <imu+0x42>
    172a:	69 81       	ldd	r22, Y+1	; 0x01
    172c:	7a 81       	ldd	r23, Y+2	; 0x02
    172e:	8b 81       	ldd	r24, Y+3	; 0x03
    1730:	9c 81       	ldd	r25, Y+4	; 0x04
    1732:	90 58       	subi	r25, 0x80	; 128
    1734:	29 81       	ldd	r18, Y+1	; 0x01
    1736:	3a 81       	ldd	r19, Y+2	; 0x02
    1738:	4b 81       	ldd	r20, Y+3	; 0x03
    173a:	5c 81       	ldd	r21, Y+4	; 0x04
    173c:	0e 94 77 1c 	call	0x38ee	; 0x38ee <__mulsf3>
    1740:	2b 01       	movw	r4, r22
    1742:	3c 01       	movw	r6, r24
    1744:	2d 81       	ldd	r18, Y+5	; 0x05
    1746:	3e 81       	ldd	r19, Y+6	; 0x06
    1748:	4f 81       	ldd	r20, Y+7	; 0x07
    174a:	58 85       	ldd	r21, Y+8	; 0x08
    174c:	ca 01       	movw	r24, r20
    174e:	b9 01       	movw	r22, r18
    1750:	0e 94 77 1c 	call	0x38ee	; 0x38ee <__mulsf3>
    1754:	9b 01       	movw	r18, r22
    1756:	ac 01       	movw	r20, r24
    1758:	c3 01       	movw	r24, r6
    175a:	b2 01       	movw	r22, r4
    175c:	0e 94 06 1a 	call	0x340c	; 0x340c <__addsf3>
    1760:	2b 01       	movw	r4, r22
    1762:	3c 01       	movw	r6, r24
    1764:	a5 01       	movw	r20, r10
    1766:	94 01       	movw	r18, r8
    1768:	c5 01       	movw	r24, r10
    176a:	b4 01       	movw	r22, r8
    176c:	0e 94 77 1c 	call	0x38ee	; 0x38ee <__mulsf3>
    1770:	9b 01       	movw	r18, r22
    1772:	ac 01       	movw	r20, r24
    1774:	c3 01       	movw	r24, r6
    1776:	b2 01       	movw	r22, r4
    1778:	0e 94 06 1a 	call	0x340c	; 0x340c <__addsf3>
    177c:	2b 01       	movw	r4, r22
    177e:	3c 01       	movw	r6, r24
    1780:	a7 01       	movw	r20, r14
    1782:	96 01       	movw	r18, r12
    1784:	c7 01       	movw	r24, r14
    1786:	b6 01       	movw	r22, r12
    1788:	0e 94 77 1c 	call	0x38ee	; 0x38ee <__mulsf3>
    178c:	9b 01       	movw	r18, r22
    178e:	ac 01       	movw	r20, r24
    1790:	c3 01       	movw	r24, r6
    1792:	b2 01       	movw	r22, r4
    1794:	0e 94 05 1a 	call	0x340a	; 0x340a <__subsf3>
    1798:	29 85       	ldd	r18, Y+9	; 0x09
    179a:	3a 85       	ldd	r19, Y+10	; 0x0a
    179c:	4b 85       	ldd	r20, Y+11	; 0x0b
    179e:	5c 85       	ldd	r21, Y+12	; 0x0c
    17a0:	0e 94 77 1c 	call	0x38ee	; 0x38ee <__mulsf3>
    17a4:	20 e0       	ldi	r18, 0x00	; 0
    17a6:	30 e0       	ldi	r19, 0x00	; 0
    17a8:	40 e0       	ldi	r20, 0x00	; 0
    17aa:	5f e3       	ldi	r21, 0x3F	; 63
    17ac:	0e 94 77 1c 	call	0x38ee	; 0x38ee <__mulsf3>
    17b0:	2b 01       	movw	r4, r22
    17b2:	3c 01       	movw	r6, r24
    17b4:	a5 01       	movw	r20, r10
    17b6:	94 01       	movw	r18, r8
    17b8:	69 81       	ldd	r22, Y+1	; 0x01
    17ba:	7a 81       	ldd	r23, Y+2	; 0x02
    17bc:	8b 81       	ldd	r24, Y+3	; 0x03
    17be:	9c 81       	ldd	r25, Y+4	; 0x04
    17c0:	0e 94 77 1c 	call	0x38ee	; 0x38ee <__mulsf3>
    17c4:	4b 01       	movw	r8, r22
    17c6:	5c 01       	movw	r10, r24
    17c8:	a7 01       	movw	r20, r14
    17ca:	96 01       	movw	r18, r12
    17cc:	6d 81       	ldd	r22, Y+5	; 0x05
    17ce:	7e 81       	ldd	r23, Y+6	; 0x06
    17d0:	8f 81       	ldd	r24, Y+7	; 0x07
    17d2:	98 85       	ldd	r25, Y+8	; 0x08
    17d4:	0e 94 77 1c 	call	0x38ee	; 0x38ee <__mulsf3>
    17d8:	9b 01       	movw	r18, r22
    17da:	ac 01       	movw	r20, r24
    17dc:	c5 01       	movw	r24, r10
    17de:	b4 01       	movw	r22, r8
    17e0:	0e 94 05 1a 	call	0x340a	; 0x340a <__subsf3>
    17e4:	29 85       	ldd	r18, Y+9	; 0x09
    17e6:	3a 85       	ldd	r19, Y+10	; 0x0a
    17e8:	4b 85       	ldd	r20, Y+11	; 0x0b
    17ea:	5c 85       	ldd	r21, Y+12	; 0x0c
    17ec:	0e 94 77 1c 	call	0x38ee	; 0x38ee <__mulsf3>
    17f0:	a3 01       	movw	r20, r6
    17f2:	92 01       	movw	r18, r4
    17f4:	0e 94 85 1a 	call	0x350a	; 0x350a <atan2>
    17f8:	21 ee       	ldi	r18, 0xE1	; 225
    17fa:	3e e2       	ldi	r19, 0x2E	; 46
    17fc:	45 e6       	ldi	r20, 0x65	; 101
    17fe:	52 e4       	ldi	r21, 0x42	; 66
    1800:	0e 94 77 1c 	call	0x38ee	; 0x38ee <__mulsf3>
    1804:	2d ec       	ldi	r18, 0xCD	; 205
    1806:	3c ec       	ldi	r19, 0xCC	; 204
    1808:	42 ec       	ldi	r20, 0xC2	; 194
    180a:	52 e4       	ldi	r21, 0x42	; 66
    180c:	0e 94 06 1a 	call	0x340c	; 0x340c <__addsf3>
    1810:	6b 01       	movw	r12, r22
    1812:	7c 01       	movw	r14, r24
    1814:	60 93 82 02 	sts	0x0282, r22	; 0x800282 <Error>
    1818:	70 93 83 02 	sts	0x0283, r23	; 0x800283 <Error+0x1>
    181c:	80 93 84 02 	sts	0x0284, r24	; 0x800284 <Error+0x2>
    1820:	90 93 85 02 	sts	0x0285, r25	; 0x800285 <Error+0x3>
    1824:	20 e0       	ldi	r18, 0x00	; 0
    1826:	30 e0       	ldi	r19, 0x00	; 0
    1828:	48 e4       	ldi	r20, 0x48	; 72
    182a:	52 e4       	ldi	r21, 0x42	; 66
    182c:	0e 94 e4 1a 	call	0x35c8	; 0x35c8 <__cmpsf2>
    1830:	87 ff       	sbrs	r24, 7
    1832:	e6 c0       	rjmp	.+460    	; 0x1a00 <_ZN11myBalancing7ControlEv.part.20+0x370>
    1834:	20 e0       	ldi	r18, 0x00	; 0
    1836:	30 e0       	ldi	r19, 0x00	; 0
    1838:	48 e4       	ldi	r20, 0x48	; 72
    183a:	52 ec       	ldi	r21, 0xC2	; 194
    183c:	c7 01       	movw	r24, r14
    183e:	b6 01       	movw	r22, r12
    1840:	0e 94 6a 1c 	call	0x38d4	; 0x38d4 <__gesf2>
    1844:	18 16       	cp	r1, r24
    1846:	0c f0       	brlt	.+2      	; 0x184a <_ZN11myBalancing7ControlEv.part.20+0x1ba>
    1848:	db c0       	rjmp	.+438    	; 0x1a00 <_ZN11myBalancing7ControlEv.part.20+0x370>
    184a:	20 91 ff 02 	lds	r18, 0x02FF	; 0x8002ff <_ZZN11myBalancing7ControlEvE9lastError>
    184e:	30 91 00 03 	lds	r19, 0x0300	; 0x800300 <_ZZN11myBalancing7ControlEvE9lastError+0x1>
    1852:	40 91 01 03 	lds	r20, 0x0301	; 0x800301 <_ZZN11myBalancing7ControlEvE9lastError+0x2>
    1856:	50 91 02 03 	lds	r21, 0x0302	; 0x800302 <_ZZN11myBalancing7ControlEvE9lastError+0x3>
    185a:	c7 01       	movw	r24, r14
    185c:	b6 01       	movw	r22, r12
    185e:	0e 94 06 1a 	call	0x340c	; 0x340c <__addsf3>
    1862:	4b 01       	movw	r8, r22
    1864:	5c 01       	movw	r10, r24
    1866:	2d ec       	ldi	r18, 0xCD	; 205
    1868:	3c ec       	ldi	r19, 0xCC	; 204
    186a:	4c ec       	ldi	r20, 0xCC	; 204
    186c:	5e e3       	ldi	r21, 0x3E	; 62
    186e:	0e 94 77 1c 	call	0x38ee	; 0x38ee <__mulsf3>
    1872:	20 91 fb 02 	lds	r18, 0x02FB	; 0x8002fb <_ZZN11myBalancing7ControlEvE6iError>
    1876:	30 91 fc 02 	lds	r19, 0x02FC	; 0x8002fc <_ZZN11myBalancing7ControlEvE6iError+0x1>
    187a:	40 91 fd 02 	lds	r20, 0x02FD	; 0x8002fd <_ZZN11myBalancing7ControlEvE6iError+0x2>
    187e:	50 91 fe 02 	lds	r21, 0x02FE	; 0x8002fe <_ZZN11myBalancing7ControlEvE6iError+0x3>
    1882:	0e 94 06 1a 	call	0x340c	; 0x340c <__addsf3>
    1886:	3b 01       	movw	r6, r22
    1888:	8d 83       	std	Y+5, r24	; 0x05
    188a:	99 83       	std	Y+1, r25	; 0x01
    188c:	cb 01       	movw	r24, r22
    188e:	ad 81       	ldd	r26, Y+5	; 0x05
    1890:	b9 81       	ldd	r27, Y+1	; 0x01
    1892:	80 93 fb 02 	sts	0x02FB, r24	; 0x8002fb <_ZZN11myBalancing7ControlEvE6iError>
    1896:	90 93 fc 02 	sts	0x02FC, r25	; 0x8002fc <_ZZN11myBalancing7ControlEvE6iError+0x1>
    189a:	a0 93 fd 02 	sts	0x02FD, r26	; 0x8002fd <_ZZN11myBalancing7ControlEvE6iError+0x2>
    189e:	b0 93 fe 02 	sts	0x02FE, r27	; 0x8002fe <_ZZN11myBalancing7ControlEvE6iError+0x3>
    18a2:	c0 92 ff 02 	sts	0x02FF, r12	; 0x8002ff <_ZZN11myBalancing7ControlEvE9lastError>
    18a6:	d0 92 00 03 	sts	0x0300, r13	; 0x800300 <_ZZN11myBalancing7ControlEvE9lastError+0x1>
    18aa:	e0 92 01 03 	sts	0x0301, r14	; 0x800301 <_ZZN11myBalancing7ControlEvE9lastError+0x2>
    18ae:	f0 92 02 03 	sts	0x0302, r15	; 0x800302 <_ZZN11myBalancing7ControlEvE9lastError+0x3>
    18b2:	20 e0       	ldi	r18, 0x00	; 0
    18b4:	30 e0       	ldi	r19, 0x00	; 0
    18b6:	48 ec       	ldi	r20, 0xC8	; 200
    18b8:	53 e4       	ldi	r21, 0x43	; 67
    18ba:	b3 01       	movw	r22, r6
    18bc:	cd 01       	movw	r24, r26
    18be:	0e 94 6a 1c 	call	0x38d4	; 0x38d4 <__gesf2>
    18c2:	18 16       	cp	r1, r24
    18c4:	0c f4       	brge	.+2      	; 0x18c8 <_ZN11myBalancing7ControlEv.part.20+0x238>
    18c6:	c5 c0       	rjmp	.+394    	; 0x1a52 <_ZN11myBalancing7ControlEv.part.20+0x3c2>
    18c8:	20 e0       	ldi	r18, 0x00	; 0
    18ca:	30 e0       	ldi	r19, 0x00	; 0
    18cc:	48 ec       	ldi	r20, 0xC8	; 200
    18ce:	53 ec       	ldi	r21, 0xC3	; 195
    18d0:	b3 01       	movw	r22, r6
    18d2:	8d 81       	ldd	r24, Y+5	; 0x05
    18d4:	99 81       	ldd	r25, Y+1	; 0x01
    18d6:	0e 94 e4 1a 	call	0x35c8	; 0x35c8 <__cmpsf2>
    18da:	87 ff       	sbrs	r24, 7
    18dc:	d2 c0       	rjmp	.+420    	; 0x1a82 <_ZN11myBalancing7ControlEv.part.20+0x3f2>
    18de:	80 e0       	ldi	r24, 0x00	; 0
    18e0:	90 e0       	ldi	r25, 0x00	; 0
    18e2:	a8 ec       	ldi	r26, 0xC8	; 200
    18e4:	b3 ec       	ldi	r27, 0xC3	; 195
    18e6:	80 93 fb 02 	sts	0x02FB, r24	; 0x8002fb <_ZZN11myBalancing7ControlEvE6iError>
    18ea:	90 93 fc 02 	sts	0x02FC, r25	; 0x8002fc <_ZZN11myBalancing7ControlEvE6iError+0x1>
    18ee:	a0 93 fd 02 	sts	0x02FD, r26	; 0x8002fd <_ZZN11myBalancing7ControlEvE6iError+0x2>
    18f2:	b0 93 fe 02 	sts	0x02FE, r27	; 0x8002fe <_ZZN11myBalancing7ControlEvE6iError+0x3>
    18f6:	e1 2c       	mov	r14, r1
    18f8:	f1 2c       	mov	r15, r1
    18fa:	b8 ec       	ldi	r27, 0xC8	; 200
    18fc:	bd 83       	std	Y+5, r27	; 0x05
    18fe:	e3 ec       	ldi	r30, 0xC3	; 195
    1900:	e9 83       	std	Y+1, r30	; 0x01
    1902:	20 e0       	ldi	r18, 0x00	; 0
    1904:	30 e0       	ldi	r19, 0x00	; 0
    1906:	a9 01       	movw	r20, r18
    1908:	c5 01       	movw	r24, r10
    190a:	b4 01       	movw	r22, r8
    190c:	0e 94 e4 1a 	call	0x35c8	; 0x35c8 <__cmpsf2>
    1910:	24 01       	movw	r4, r8
    1912:	35 01       	movw	r6, r10
    1914:	87 fd       	sbrc	r24, 7
    1916:	b0 c0       	rjmp	.+352    	; 0x1a78 <_ZN11myBalancing7ControlEv.part.20+0x3e8>
    1918:	20 e0       	ldi	r18, 0x00	; 0
    191a:	30 e0       	ldi	r19, 0x00	; 0
    191c:	40 e1       	ldi	r20, 0x10	; 16
    191e:	51 e4       	ldi	r21, 0x41	; 65
    1920:	c5 01       	movw	r24, r10
    1922:	b4 01       	movw	r22, r8
    1924:	0e 94 77 1c 	call	0x38ee	; 0x38ee <__mulsf3>
    1928:	4b 01       	movw	r8, r22
    192a:	5c 01       	movw	r10, r24
    192c:	2a e0       	ldi	r18, 0x0A	; 10
    192e:	37 ed       	ldi	r19, 0xD7	; 215
    1930:	43 ea       	ldi	r20, 0xA3	; 163
    1932:	5c e3       	ldi	r21, 0x3C	; 60
    1934:	c3 01       	movw	r24, r6
    1936:	b2 01       	movw	r22, r4
    1938:	0e 94 77 1c 	call	0x38ee	; 0x38ee <__mulsf3>
    193c:	2a e9       	ldi	r18, 0x9A	; 154
    193e:	39 e9       	ldi	r19, 0x99	; 153
    1940:	49 e1       	ldi	r20, 0x19	; 25
    1942:	5f e3       	ldi	r21, 0x3F	; 63
    1944:	0e 94 06 1a 	call	0x340c	; 0x340c <__addsf3>
    1948:	2b 01       	movw	r4, r22
    194a:	3c 01       	movw	r6, r24
    194c:	60 91 b8 02 	lds	r22, 0x02B8	; 0x8002b8 <imu+0x2f>
    1950:	70 91 b9 02 	lds	r23, 0x02B9	; 0x8002b9 <imu+0x30>
    1954:	07 2e       	mov	r0, r23
    1956:	00 0c       	add	r0, r0
    1958:	88 0b       	sbc	r24, r24
    195a:	99 0b       	sbc	r25, r25
    195c:	0e 94 93 1b 	call	0x3726	; 0x3726 <__floatsisf>
    1960:	9b 01       	movw	r18, r22
    1962:	ac 01       	movw	r20, r24
    1964:	c3 01       	movw	r24, r6
    1966:	b2 01       	movw	r22, r4
    1968:	0e 94 77 1c 	call	0x38ee	; 0x38ee <__mulsf3>
    196c:	9b 01       	movw	r18, r22
    196e:	ac 01       	movw	r20, r24
    1970:	c5 01       	movw	r24, r10
    1972:	b4 01       	movw	r22, r8
    1974:	0e 94 05 1a 	call	0x340a	; 0x340a <__subsf3>
    1978:	97 01       	movw	r18, r14
    197a:	4d 81       	ldd	r20, Y+5	; 0x05
    197c:	59 81       	ldd	r21, Y+1	; 0x01
    197e:	0e 94 06 1a 	call	0x340c	; 0x340c <__addsf3>
    1982:	0e 94 5b 1b 	call	0x36b6	; 0x36b6 <__fixsfsi>
    1986:	d8 01       	movw	r26, r16
    1988:	11 96       	adiw	r26, 0x01	; 1
    198a:	4c 91       	ld	r20, X
    198c:	04 2e       	mov	r0, r20
    198e:	00 0c       	add	r0, r0
    1990:	55 0b       	sbc	r21, r21
    1992:	9b 01       	movw	r18, r22
    1994:	24 1b       	sub	r18, r20
    1996:	35 0b       	sbc	r19, r21
    1998:	64 0f       	add	r22, r20
    199a:	75 1f       	adc	r23, r21
    199c:	c9 01       	movw	r24, r18
    199e:	20 37       	cpi	r18, 0x70	; 112
    19a0:	3e 4f       	sbci	r19, 0xFE	; 254
    19a2:	14 f4       	brge	.+4      	; 0x19a8 <_ZN11myBalancing7ControlEv.part.20+0x318>
    19a4:	80 e7       	ldi	r24, 0x70	; 112
    19a6:	9e ef       	ldi	r25, 0xFE	; 254
    19a8:	60 37       	cpi	r22, 0x70	; 112
    19aa:	ee ef       	ldi	r30, 0xFE	; 254
    19ac:	7e 07       	cpc	r23, r30
    19ae:	14 f4       	brge	.+4      	; 0x19b4 <_ZN11myBalancing7ControlEv.part.20+0x324>
    19b0:	60 e7       	ldi	r22, 0x70	; 112
    19b2:	7e ef       	ldi	r23, 0xFE	; 254
    19b4:	ab 01       	movw	r20, r22
    19b6:	61 39       	cpi	r22, 0x91	; 145
    19b8:	71 40       	sbci	r23, 0x01	; 1
    19ba:	14 f0       	brlt	.+4      	; 0x19c0 <_ZN11myBalancing7ControlEv.part.20+0x330>
    19bc:	40 e9       	ldi	r20, 0x90	; 144
    19be:	51 e0       	ldi	r21, 0x01	; 1
    19c0:	bc 01       	movw	r22, r24
    19c2:	81 39       	cpi	r24, 0x91	; 145
    19c4:	91 40       	sbci	r25, 0x01	; 1
    19c6:	14 f0       	brlt	.+4      	; 0x19cc <_ZN11myBalancing7ControlEv.part.20+0x33c>
    19c8:	60 e9       	ldi	r22, 0x90	; 144
    19ca:	71 e0       	ldi	r23, 0x01	; 1
    19cc:	84 ed       	ldi	r24, 0xD4	; 212
    19ce:	92 e0       	ldi	r25, 0x02	; 2
    19d0:	2c 96       	adiw	r28, 0x0c	; 12
    19d2:	0f b6       	in	r0, 0x3f	; 63
    19d4:	f8 94       	cli
    19d6:	de bf       	out	0x3e, r29	; 62
    19d8:	0f be       	out	0x3f, r0	; 63
    19da:	cd bf       	out	0x3d, r28	; 61
    19dc:	df 91       	pop	r29
    19de:	cf 91       	pop	r28
    19e0:	1f 91       	pop	r17
    19e2:	0f 91       	pop	r16
    19e4:	ff 90       	pop	r15
    19e6:	ef 90       	pop	r14
    19e8:	df 90       	pop	r13
    19ea:	cf 90       	pop	r12
    19ec:	bf 90       	pop	r11
    19ee:	af 90       	pop	r10
    19f0:	9f 90       	pop	r9
    19f2:	8f 90       	pop	r8
    19f4:	7f 90       	pop	r7
    19f6:	6f 90       	pop	r6
    19f8:	5f 90       	pop	r5
    19fa:	4f 90       	pop	r4
    19fc:	0c 94 26 0b 	jmp	0x164c	; 0x164c <_ZN7myMotor8SpeedPWMEii>
    1a00:	10 92 85 00 	sts	0x0085, r1	; 0x800085 <__TEXT_REGION_LENGTH__+0x7e0085>
    1a04:	10 92 84 00 	sts	0x0084, r1	; 0x800084 <__TEXT_REGION_LENGTH__+0x7e0084>
    1a08:	1d 9a       	sbi	0x03, 5	; 3
    1a0a:	10 92 87 00 	sts	0x0087, r1	; 0x800087 <__TEXT_REGION_LENGTH__+0x7e0087>
    1a0e:	10 92 86 00 	sts	0x0086, r1	; 0x800086 <__TEXT_REGION_LENGTH__+0x7e0086>
    1a12:	1a 9a       	sbi	0x03, 2	; 3
    1a14:	10 92 fb 02 	sts	0x02FB, r1	; 0x8002fb <_ZZN11myBalancing7ControlEvE6iError>
    1a18:	10 92 fc 02 	sts	0x02FC, r1	; 0x8002fc <_ZZN11myBalancing7ControlEvE6iError+0x1>
    1a1c:	10 92 fd 02 	sts	0x02FD, r1	; 0x8002fd <_ZZN11myBalancing7ControlEvE6iError+0x2>
    1a20:	10 92 fe 02 	sts	0x02FE, r1	; 0x8002fe <_ZZN11myBalancing7ControlEvE6iError+0x3>
    1a24:	2c 96       	adiw	r28, 0x0c	; 12
    1a26:	0f b6       	in	r0, 0x3f	; 63
    1a28:	f8 94       	cli
    1a2a:	de bf       	out	0x3e, r29	; 62
    1a2c:	0f be       	out	0x3f, r0	; 63
    1a2e:	cd bf       	out	0x3d, r28	; 61
    1a30:	df 91       	pop	r29
    1a32:	cf 91       	pop	r28
    1a34:	1f 91       	pop	r17
    1a36:	0f 91       	pop	r16
    1a38:	ff 90       	pop	r15
    1a3a:	ef 90       	pop	r14
    1a3c:	df 90       	pop	r13
    1a3e:	cf 90       	pop	r12
    1a40:	bf 90       	pop	r11
    1a42:	af 90       	pop	r10
    1a44:	9f 90       	pop	r9
    1a46:	8f 90       	pop	r8
    1a48:	7f 90       	pop	r7
    1a4a:	6f 90       	pop	r6
    1a4c:	5f 90       	pop	r5
    1a4e:	4f 90       	pop	r4
    1a50:	08 95       	ret
    1a52:	80 e0       	ldi	r24, 0x00	; 0
    1a54:	90 e0       	ldi	r25, 0x00	; 0
    1a56:	a8 ec       	ldi	r26, 0xC8	; 200
    1a58:	b3 e4       	ldi	r27, 0x43	; 67
    1a5a:	80 93 fb 02 	sts	0x02FB, r24	; 0x8002fb <_ZZN11myBalancing7ControlEvE6iError>
    1a5e:	90 93 fc 02 	sts	0x02FC, r25	; 0x8002fc <_ZZN11myBalancing7ControlEvE6iError+0x1>
    1a62:	a0 93 fd 02 	sts	0x02FD, r26	; 0x8002fd <_ZZN11myBalancing7ControlEvE6iError+0x2>
    1a66:	b0 93 fe 02 	sts	0x02FE, r27	; 0x8002fe <_ZZN11myBalancing7ControlEvE6iError+0x3>
    1a6a:	e1 2c       	mov	r14, r1
    1a6c:	f1 2c       	mov	r15, r1
    1a6e:	98 ec       	ldi	r25, 0xC8	; 200
    1a70:	9d 83       	std	Y+5, r25	; 0x05
    1a72:	a3 e4       	ldi	r26, 0x43	; 67
    1a74:	a9 83       	std	Y+1, r26	; 0x01
    1a76:	45 cf       	rjmp	.-374    	; 0x1902 <_ZN11myBalancing7ControlEv.part.20+0x272>
    1a78:	77 fa       	bst	r7, 7
    1a7a:	70 94       	com	r7
    1a7c:	77 f8       	bld	r7, 7
    1a7e:	70 94       	com	r7
    1a80:	4b cf       	rjmp	.-362    	; 0x1918 <_ZN11myBalancing7ControlEv.part.20+0x288>
    1a82:	73 01       	movw	r14, r6
    1a84:	3e cf       	rjmp	.-388    	; 0x1902 <_ZN11myBalancing7ControlEv.part.20+0x272>

00001a86 <_ZN8myBuzzer5Nada1Ev>:
    1a86:	8b e1       	ldi	r24, 0x1B	; 27
    1a88:	83 bf       	out	0x33, r24	; 51
    1a8a:	12 be       	out	0x32, r1	; 50
    1a8c:	8a ef       	ldi	r24, 0xFA	; 250
    1a8e:	81 bf       	out	0x31, r24	; 49
    1a90:	84 e6       	ldi	r24, 0x64	; 100
    1a92:	90 e0       	ldi	r25, 0x00	; 0
    1a94:	ef e9       	ldi	r30, 0x9F	; 159
    1a96:	ff e0       	ldi	r31, 0x0F	; 15
    1a98:	31 97       	sbiw	r30, 0x01	; 1
    1a9a:	f1 f7       	brne	.-4      	; 0x1a98 <_ZN8myBuzzer5Nada1Ev+0x12>
    1a9c:	00 c0       	rjmp	.+0      	; 0x1a9e <_ZN8myBuzzer5Nada1Ev+0x18>
    1a9e:	00 00       	nop
    1aa0:	01 97       	sbiw	r24, 0x01	; 1
    1aa2:	c1 f7       	brne	.-16     	; 0x1a94 <_ZN8myBuzzer5Nada1Ev+0xe>
    1aa4:	13 be       	out	0x33, r1	; 51
    1aa6:	10 be       	out	0x30, r1	; 48
    1aa8:	c4 98       	cbi	0x18, 4	; 24
    1aaa:	8c e1       	ldi	r24, 0x1C	; 28
    1aac:	83 bf       	out	0x33, r24	; 51
    1aae:	12 be       	out	0x32, r1	; 50
    1ab0:	8a ef       	ldi	r24, 0xFA	; 250
    1ab2:	81 bf       	out	0x31, r24	; 49
    1ab4:	84 e1       	ldi	r24, 0x14	; 20
    1ab6:	90 e0       	ldi	r25, 0x00	; 0
    1ab8:	ef e9       	ldi	r30, 0x9F	; 159
    1aba:	ff e0       	ldi	r31, 0x0F	; 15
    1abc:	31 97       	sbiw	r30, 0x01	; 1
    1abe:	f1 f7       	brne	.-4      	; 0x1abc <_ZN8myBuzzer5Nada1Ev+0x36>
    1ac0:	00 c0       	rjmp	.+0      	; 0x1ac2 <_ZN8myBuzzer5Nada1Ev+0x3c>
    1ac2:	00 00       	nop
    1ac4:	01 97       	sbiw	r24, 0x01	; 1
    1ac6:	c1 f7       	brne	.-16     	; 0x1ab8 <_ZN8myBuzzer5Nada1Ev+0x32>
    1ac8:	13 be       	out	0x33, r1	; 51
    1aca:	10 be       	out	0x30, r1	; 48
    1acc:	c4 98       	cbi	0x18, 4	; 24
    1ace:	8b e1       	ldi	r24, 0x1B	; 27
    1ad0:	83 bf       	out	0x33, r24	; 51
    1ad2:	12 be       	out	0x32, r1	; 50
    1ad4:	83 e5       	ldi	r24, 0x53	; 83
    1ad6:	81 bf       	out	0x31, r24	; 49
    1ad8:	82 e3       	ldi	r24, 0x32	; 50
    1ada:	90 e0       	ldi	r25, 0x00	; 0
    1adc:	ef e9       	ldi	r30, 0x9F	; 159
    1ade:	ff e0       	ldi	r31, 0x0F	; 15
    1ae0:	31 97       	sbiw	r30, 0x01	; 1
    1ae2:	f1 f7       	brne	.-4      	; 0x1ae0 <_ZN8myBuzzer5Nada1Ev+0x5a>
    1ae4:	00 c0       	rjmp	.+0      	; 0x1ae6 <_ZN8myBuzzer5Nada1Ev+0x60>
    1ae6:	00 00       	nop
    1ae8:	01 97       	sbiw	r24, 0x01	; 1
    1aea:	c1 f7       	brne	.-16     	; 0x1adc <_ZN8myBuzzer5Nada1Ev+0x56>
    1aec:	13 be       	out	0x33, r1	; 51
    1aee:	10 be       	out	0x30, r1	; 48
    1af0:	c4 98       	cbi	0x18, 4	; 24
    1af2:	8c e1       	ldi	r24, 0x1C	; 28
    1af4:	83 bf       	out	0x33, r24	; 51
    1af6:	12 be       	out	0x32, r1	; 50
    1af8:	8a ef       	ldi	r24, 0xFA	; 250
    1afa:	81 bf       	out	0x31, r24	; 49
    1afc:	84 e1       	ldi	r24, 0x14	; 20
    1afe:	90 e0       	ldi	r25, 0x00	; 0
    1b00:	ef e9       	ldi	r30, 0x9F	; 159
    1b02:	ff e0       	ldi	r31, 0x0F	; 15
    1b04:	31 97       	sbiw	r30, 0x01	; 1
    1b06:	f1 f7       	brne	.-4      	; 0x1b04 <_ZN8myBuzzer5Nada1Ev+0x7e>
    1b08:	00 c0       	rjmp	.+0      	; 0x1b0a <_ZN8myBuzzer5Nada1Ev+0x84>
    1b0a:	00 00       	nop
    1b0c:	01 97       	sbiw	r24, 0x01	; 1
    1b0e:	c1 f7       	brne	.-16     	; 0x1b00 <_ZN8myBuzzer5Nada1Ev+0x7a>
    1b10:	13 be       	out	0x33, r1	; 51
    1b12:	10 be       	out	0x30, r1	; 48
    1b14:	c4 98       	cbi	0x18, 4	; 24
    1b16:	8b e1       	ldi	r24, 0x1B	; 27
    1b18:	83 bf       	out	0x33, r24	; 51
    1b1a:	12 be       	out	0x32, r1	; 50
    1b1c:	83 e5       	ldi	r24, 0x53	; 83
    1b1e:	81 bf       	out	0x31, r24	; 49
    1b20:	84 e6       	ldi	r24, 0x64	; 100
    1b22:	90 e0       	ldi	r25, 0x00	; 0
    1b24:	ef e9       	ldi	r30, 0x9F	; 159
    1b26:	ff e0       	ldi	r31, 0x0F	; 15
    1b28:	31 97       	sbiw	r30, 0x01	; 1
    1b2a:	f1 f7       	brne	.-4      	; 0x1b28 <_ZN8myBuzzer5Nada1Ev+0xa2>
    1b2c:	00 c0       	rjmp	.+0      	; 0x1b2e <_ZN8myBuzzer5Nada1Ev+0xa8>
    1b2e:	00 00       	nop
    1b30:	01 97       	sbiw	r24, 0x01	; 1
    1b32:	c1 f7       	brne	.-16     	; 0x1b24 <_ZN8myBuzzer5Nada1Ev+0x9e>
    1b34:	13 be       	out	0x33, r1	; 51
    1b36:	10 be       	out	0x30, r1	; 48
    1b38:	c4 98       	cbi	0x18, 4	; 24
    1b3a:	8c e1       	ldi	r24, 0x1C	; 28
    1b3c:	83 bf       	out	0x33, r24	; 51
    1b3e:	12 be       	out	0x32, r1	; 50
    1b40:	8a ef       	ldi	r24, 0xFA	; 250
    1b42:	81 bf       	out	0x31, r24	; 49
    1b44:	84 e1       	ldi	r24, 0x14	; 20
    1b46:	90 e0       	ldi	r25, 0x00	; 0
    1b48:	ef e9       	ldi	r30, 0x9F	; 159
    1b4a:	ff e0       	ldi	r31, 0x0F	; 15
    1b4c:	31 97       	sbiw	r30, 0x01	; 1
    1b4e:	f1 f7       	brne	.-4      	; 0x1b4c <_ZN8myBuzzer5Nada1Ev+0xc6>
    1b50:	00 c0       	rjmp	.+0      	; 0x1b52 <_ZN8myBuzzer5Nada1Ev+0xcc>
    1b52:	00 00       	nop
    1b54:	01 97       	sbiw	r24, 0x01	; 1
    1b56:	c1 f7       	brne	.-16     	; 0x1b48 <_ZN8myBuzzer5Nada1Ev+0xc2>
    1b58:	13 be       	out	0x33, r1	; 51
    1b5a:	10 be       	out	0x30, r1	; 48
    1b5c:	c4 98       	cbi	0x18, 4	; 24
    1b5e:	8b e1       	ldi	r24, 0x1B	; 27
    1b60:	83 bf       	out	0x33, r24	; 51
    1b62:	12 be       	out	0x32, r1	; 50
    1b64:	8d e7       	ldi	r24, 0x7D	; 125
    1b66:	81 bf       	out	0x31, r24	; 49
    1b68:	82 e3       	ldi	r24, 0x32	; 50
    1b6a:	90 e0       	ldi	r25, 0x00	; 0
    1b6c:	ef e9       	ldi	r30, 0x9F	; 159
    1b6e:	ff e0       	ldi	r31, 0x0F	; 15
    1b70:	31 97       	sbiw	r30, 0x01	; 1
    1b72:	f1 f7       	brne	.-4      	; 0x1b70 <_ZN8myBuzzer5Nada1Ev+0xea>
    1b74:	00 c0       	rjmp	.+0      	; 0x1b76 <_ZN8myBuzzer5Nada1Ev+0xf0>
    1b76:	00 00       	nop
    1b78:	01 97       	sbiw	r24, 0x01	; 1
    1b7a:	c1 f7       	brne	.-16     	; 0x1b6c <_ZN8myBuzzer5Nada1Ev+0xe6>
    1b7c:	13 be       	out	0x33, r1	; 51
    1b7e:	10 be       	out	0x30, r1	; 48
    1b80:	c4 98       	cbi	0x18, 4	; 24
    1b82:	08 95       	ret

00001b84 <_ZN8myBuzzer5Nada2Ev>:
    1b84:	8b e1       	ldi	r24, 0x1B	; 27
    1b86:	83 bf       	out	0x33, r24	; 51
    1b88:	12 be       	out	0x32, r1	; 50
    1b8a:	83 e5       	ldi	r24, 0x53	; 83
    1b8c:	81 bf       	out	0x31, r24	; 49
    1b8e:	84 e6       	ldi	r24, 0x64	; 100
    1b90:	90 e0       	ldi	r25, 0x00	; 0
    1b92:	ef e9       	ldi	r30, 0x9F	; 159
    1b94:	ff e0       	ldi	r31, 0x0F	; 15
    1b96:	31 97       	sbiw	r30, 0x01	; 1
    1b98:	f1 f7       	brne	.-4      	; 0x1b96 <_ZN8myBuzzer5Nada2Ev+0x12>
    1b9a:	00 c0       	rjmp	.+0      	; 0x1b9c <_ZN8myBuzzer5Nada2Ev+0x18>
    1b9c:	00 00       	nop
    1b9e:	01 97       	sbiw	r24, 0x01	; 1
    1ba0:	c1 f7       	brne	.-16     	; 0x1b92 <_ZN8myBuzzer5Nada2Ev+0xe>
    1ba2:	13 be       	out	0x33, r1	; 51
    1ba4:	10 be       	out	0x30, r1	; 48
    1ba6:	c4 98       	cbi	0x18, 4	; 24
    1ba8:	8c e1       	ldi	r24, 0x1C	; 28
    1baa:	83 bf       	out	0x33, r24	; 51
    1bac:	12 be       	out	0x32, r1	; 50
    1bae:	8a ef       	ldi	r24, 0xFA	; 250
    1bb0:	81 bf       	out	0x31, r24	; 49
    1bb2:	84 e1       	ldi	r24, 0x14	; 20
    1bb4:	90 e0       	ldi	r25, 0x00	; 0
    1bb6:	ef e9       	ldi	r30, 0x9F	; 159
    1bb8:	ff e0       	ldi	r31, 0x0F	; 15
    1bba:	31 97       	sbiw	r30, 0x01	; 1
    1bbc:	f1 f7       	brne	.-4      	; 0x1bba <_ZN8myBuzzer5Nada2Ev+0x36>
    1bbe:	00 c0       	rjmp	.+0      	; 0x1bc0 <_ZN8myBuzzer5Nada2Ev+0x3c>
    1bc0:	00 00       	nop
    1bc2:	01 97       	sbiw	r24, 0x01	; 1
    1bc4:	c1 f7       	brne	.-16     	; 0x1bb6 <_ZN8myBuzzer5Nada2Ev+0x32>
    1bc6:	13 be       	out	0x33, r1	; 51
    1bc8:	10 be       	out	0x30, r1	; 48
    1bca:	c4 98       	cbi	0x18, 4	; 24
    1bcc:	8b e1       	ldi	r24, 0x1B	; 27
    1bce:	83 bf       	out	0x33, r24	; 51
    1bd0:	12 be       	out	0x32, r1	; 50
    1bd2:	84 e6       	ldi	r24, 0x64	; 100
    1bd4:	81 bf       	out	0x31, r24	; 49
    1bd6:	86 e9       	ldi	r24, 0x96	; 150
    1bd8:	90 e0       	ldi	r25, 0x00	; 0
    1bda:	ef e9       	ldi	r30, 0x9F	; 159
    1bdc:	ff e0       	ldi	r31, 0x0F	; 15
    1bde:	31 97       	sbiw	r30, 0x01	; 1
    1be0:	f1 f7       	brne	.-4      	; 0x1bde <_ZN8myBuzzer5Nada2Ev+0x5a>
    1be2:	00 c0       	rjmp	.+0      	; 0x1be4 <_ZN8myBuzzer5Nada2Ev+0x60>
    1be4:	00 00       	nop
    1be6:	01 97       	sbiw	r24, 0x01	; 1
    1be8:	c1 f7       	brne	.-16     	; 0x1bda <_ZN8myBuzzer5Nada2Ev+0x56>
    1bea:	13 be       	out	0x33, r1	; 51
    1bec:	10 be       	out	0x30, r1	; 48
    1bee:	c4 98       	cbi	0x18, 4	; 24
    1bf0:	8c e1       	ldi	r24, 0x1C	; 28
    1bf2:	83 bf       	out	0x33, r24	; 51
    1bf4:	12 be       	out	0x32, r1	; 50
    1bf6:	8a ef       	ldi	r24, 0xFA	; 250
    1bf8:	81 bf       	out	0x31, r24	; 49
    1bfa:	84 e1       	ldi	r24, 0x14	; 20
    1bfc:	90 e0       	ldi	r25, 0x00	; 0
    1bfe:	ef e9       	ldi	r30, 0x9F	; 159
    1c00:	ff e0       	ldi	r31, 0x0F	; 15
    1c02:	31 97       	sbiw	r30, 0x01	; 1
    1c04:	f1 f7       	brne	.-4      	; 0x1c02 <_ZN8myBuzzer5Nada2Ev+0x7e>
    1c06:	00 c0       	rjmp	.+0      	; 0x1c08 <_ZN8myBuzzer5Nada2Ev+0x84>
    1c08:	00 00       	nop
    1c0a:	01 97       	sbiw	r24, 0x01	; 1
    1c0c:	c1 f7       	brne	.-16     	; 0x1bfe <_ZN8myBuzzer5Nada2Ev+0x7a>
    1c0e:	13 be       	out	0x33, r1	; 51
    1c10:	10 be       	out	0x30, r1	; 48
    1c12:	c4 98       	cbi	0x18, 4	; 24
    1c14:	8b e1       	ldi	r24, 0x1B	; 27
    1c16:	83 bf       	out	0x33, r24	; 51
    1c18:	12 be       	out	0x32, r1	; 50
    1c1a:	8a ef       	ldi	r24, 0xFA	; 250
    1c1c:	81 bf       	out	0x31, r24	; 49
    1c1e:	82 e3       	ldi	r24, 0x32	; 50
    1c20:	90 e0       	ldi	r25, 0x00	; 0
    1c22:	ef e9       	ldi	r30, 0x9F	; 159
    1c24:	ff e0       	ldi	r31, 0x0F	; 15
    1c26:	31 97       	sbiw	r30, 0x01	; 1
    1c28:	f1 f7       	brne	.-4      	; 0x1c26 <_ZN8myBuzzer5Nada2Ev+0xa2>
    1c2a:	00 c0       	rjmp	.+0      	; 0x1c2c <_ZN8myBuzzer5Nada2Ev+0xa8>
    1c2c:	00 00       	nop
    1c2e:	01 97       	sbiw	r24, 0x01	; 1
    1c30:	c1 f7       	brne	.-16     	; 0x1c22 <_ZN8myBuzzer5Nada2Ev+0x9e>
    1c32:	13 be       	out	0x33, r1	; 51
    1c34:	10 be       	out	0x30, r1	; 48
    1c36:	c4 98       	cbi	0x18, 4	; 24
    1c38:	8c e1       	ldi	r24, 0x1C	; 28
    1c3a:	83 bf       	out	0x33, r24	; 51
    1c3c:	12 be       	out	0x32, r1	; 50
    1c3e:	8a ef       	ldi	r24, 0xFA	; 250
    1c40:	81 bf       	out	0x31, r24	; 49
    1c42:	84 e1       	ldi	r24, 0x14	; 20
    1c44:	90 e0       	ldi	r25, 0x00	; 0
    1c46:	ef e9       	ldi	r30, 0x9F	; 159
    1c48:	ff e0       	ldi	r31, 0x0F	; 15
    1c4a:	31 97       	sbiw	r30, 0x01	; 1
    1c4c:	f1 f7       	brne	.-4      	; 0x1c4a <_ZN8myBuzzer5Nada2Ev+0xc6>
    1c4e:	00 c0       	rjmp	.+0      	; 0x1c50 <_ZN8myBuzzer5Nada2Ev+0xcc>
    1c50:	00 00       	nop
    1c52:	01 97       	sbiw	r24, 0x01	; 1
    1c54:	c1 f7       	brne	.-16     	; 0x1c46 <_ZN8myBuzzer5Nada2Ev+0xc2>
    1c56:	13 be       	out	0x33, r1	; 51
    1c58:	10 be       	out	0x30, r1	; 48
    1c5a:	c4 98       	cbi	0x18, 4	; 24
    1c5c:	8b e1       	ldi	r24, 0x1B	; 27
    1c5e:	83 bf       	out	0x33, r24	; 51
    1c60:	12 be       	out	0x32, r1	; 50
    1c62:	83 e5       	ldi	r24, 0x53	; 83
    1c64:	81 bf       	out	0x31, r24	; 49
    1c66:	82 e3       	ldi	r24, 0x32	; 50
    1c68:	90 e0       	ldi	r25, 0x00	; 0
    1c6a:	ef e9       	ldi	r30, 0x9F	; 159
    1c6c:	ff e0       	ldi	r31, 0x0F	; 15
    1c6e:	31 97       	sbiw	r30, 0x01	; 1
    1c70:	f1 f7       	brne	.-4      	; 0x1c6e <_ZN8myBuzzer5Nada2Ev+0xea>
    1c72:	00 c0       	rjmp	.+0      	; 0x1c74 <_ZN8myBuzzer5Nada2Ev+0xf0>
    1c74:	00 00       	nop
    1c76:	01 97       	sbiw	r24, 0x01	; 1
    1c78:	c1 f7       	brne	.-16     	; 0x1c6a <_ZN8myBuzzer5Nada2Ev+0xe6>
    1c7a:	13 be       	out	0x33, r1	; 51
    1c7c:	10 be       	out	0x30, r1	; 48
    1c7e:	c4 98       	cbi	0x18, 4	; 24
    1c80:	08 95       	ret

00001c82 <_ZN8myBuzzer9NadaErrorEv>:
    1c82:	8b e1       	ldi	r24, 0x1B	; 27
    1c84:	83 bf       	out	0x33, r24	; 51
    1c86:	12 be       	out	0x32, r1	; 50
    1c88:	8d e7       	ldi	r24, 0x7D	; 125
    1c8a:	81 bf       	out	0x31, r24	; 49
    1c8c:	8a ef       	ldi	r24, 0xFA	; 250
    1c8e:	90 e0       	ldi	r25, 0x00	; 0
    1c90:	ef e9       	ldi	r30, 0x9F	; 159
    1c92:	ff e0       	ldi	r31, 0x0F	; 15
    1c94:	31 97       	sbiw	r30, 0x01	; 1
    1c96:	f1 f7       	brne	.-4      	; 0x1c94 <_ZN8myBuzzer9NadaErrorEv+0x12>
    1c98:	00 c0       	rjmp	.+0      	; 0x1c9a <_ZN8myBuzzer9NadaErrorEv+0x18>
    1c9a:	00 00       	nop
    1c9c:	01 97       	sbiw	r24, 0x01	; 1
    1c9e:	c1 f7       	brne	.-16     	; 0x1c90 <_ZN8myBuzzer9NadaErrorEv+0xe>
    1ca0:	13 be       	out	0x33, r1	; 51
    1ca2:	10 be       	out	0x30, r1	; 48
    1ca4:	c4 98       	cbi	0x18, 4	; 24
    1ca6:	ff ef       	ldi	r31, 0xFF	; 255
    1ca8:	29 e6       	ldi	r18, 0x69	; 105
    1caa:	88 e1       	ldi	r24, 0x18	; 24
    1cac:	f1 50       	subi	r31, 0x01	; 1
    1cae:	20 40       	sbci	r18, 0x00	; 0
    1cb0:	80 40       	sbci	r24, 0x00	; 0
    1cb2:	e1 f7       	brne	.-8      	; 0x1cac <_ZN8myBuzzer9NadaErrorEv+0x2a>
    1cb4:	00 c0       	rjmp	.+0      	; 0x1cb6 <_ZN8myBuzzer9NadaErrorEv+0x34>
    1cb6:	00 00       	nop
    1cb8:	8b e1       	ldi	r24, 0x1B	; 27
    1cba:	83 bf       	out	0x33, r24	; 51
    1cbc:	12 be       	out	0x32, r1	; 50
    1cbe:	8d e7       	ldi	r24, 0x7D	; 125
    1cc0:	81 bf       	out	0x31, r24	; 49
    1cc2:	8a ef       	ldi	r24, 0xFA	; 250
    1cc4:	90 e0       	ldi	r25, 0x00	; 0
    1cc6:	ef e9       	ldi	r30, 0x9F	; 159
    1cc8:	ff e0       	ldi	r31, 0x0F	; 15
    1cca:	31 97       	sbiw	r30, 0x01	; 1
    1ccc:	f1 f7       	brne	.-4      	; 0x1cca <_ZN8myBuzzer9NadaErrorEv+0x48>
    1cce:	00 c0       	rjmp	.+0      	; 0x1cd0 <_ZN8myBuzzer9NadaErrorEv+0x4e>
    1cd0:	00 00       	nop
    1cd2:	01 97       	sbiw	r24, 0x01	; 1
    1cd4:	c1 f7       	brne	.-16     	; 0x1cc6 <_ZN8myBuzzer9NadaErrorEv+0x44>
    1cd6:	13 be       	out	0x33, r1	; 51
    1cd8:	10 be       	out	0x30, r1	; 48
    1cda:	c4 98       	cbi	0x18, 4	; 24
    1cdc:	ff ef       	ldi	r31, 0xFF	; 255
    1cde:	29 e6       	ldi	r18, 0x69	; 105
    1ce0:	88 e1       	ldi	r24, 0x18	; 24
    1ce2:	f1 50       	subi	r31, 0x01	; 1
    1ce4:	20 40       	sbci	r18, 0x00	; 0
    1ce6:	80 40       	sbci	r24, 0x00	; 0
    1ce8:	e1 f7       	brne	.-8      	; 0x1ce2 <_ZN8myBuzzer9NadaErrorEv+0x60>
    1cea:	00 c0       	rjmp	.+0      	; 0x1cec <_ZN8myBuzzer9NadaErrorEv+0x6a>
    1cec:	00 00       	nop
    1cee:	8b e1       	ldi	r24, 0x1B	; 27
    1cf0:	83 bf       	out	0x33, r24	; 51
    1cf2:	12 be       	out	0x32, r1	; 50
    1cf4:	8d e7       	ldi	r24, 0x7D	; 125
    1cf6:	81 bf       	out	0x31, r24	; 49
    1cf8:	8a ef       	ldi	r24, 0xFA	; 250
    1cfa:	90 e0       	ldi	r25, 0x00	; 0
    1cfc:	ef e9       	ldi	r30, 0x9F	; 159
    1cfe:	ff e0       	ldi	r31, 0x0F	; 15
    1d00:	31 97       	sbiw	r30, 0x01	; 1
    1d02:	f1 f7       	brne	.-4      	; 0x1d00 <_ZN8myBuzzer9NadaErrorEv+0x7e>
    1d04:	00 c0       	rjmp	.+0      	; 0x1d06 <_ZN8myBuzzer9NadaErrorEv+0x84>
    1d06:	00 00       	nop
    1d08:	01 97       	sbiw	r24, 0x01	; 1
    1d0a:	c1 f7       	brne	.-16     	; 0x1cfc <_ZN8myBuzzer9NadaErrorEv+0x7a>
    1d0c:	13 be       	out	0x33, r1	; 51
    1d0e:	10 be       	out	0x30, r1	; 48
    1d10:	c4 98       	cbi	0x18, 4	; 24
    1d12:	08 95       	ret

00001d14 <_ZN5myLCD8PerintahEh>:
    1d14:	d8 98       	cbi	0x1b, 0	; 27
    1d16:	86 2f       	mov	r24, r22
    1d18:	80 7f       	andi	r24, 0xF0	; 240
    1d1a:	20 fe       	sbrs	r2, 0
    1d1c:	20 c0       	rjmp	.+64     	; 0x1d5e <_ZN5myLCD8PerintahEh+0x4a>
    1d1e:	8c 60       	ori	r24, 0x0C	; 12
    1d20:	8b bb       	out	0x1b, r24	; 27
    1d22:	85 e0       	ldi	r24, 0x05	; 5
    1d24:	8a 95       	dec	r24
    1d26:	f1 f7       	brne	.-4      	; 0x1d24 <_ZN5myLCD8PerintahEh+0x10>
    1d28:	00 00       	nop
    1d2a:	da 98       	cbi	0x1b, 2	; 27
    1d2c:	9a e1       	ldi	r25, 0x1A	; 26
    1d2e:	9a 95       	dec	r25
    1d30:	f1 f7       	brne	.-4      	; 0x1d2e <_ZN5myLCD8PerintahEh+0x1a>
    1d32:	00 c0       	rjmp	.+0      	; 0x1d34 <_ZN5myLCD8PerintahEh+0x20>
    1d34:	20 fc       	sbrc	r2, 0
    1d36:	16 c0       	rjmp	.+44     	; 0x1d64 <_ZN5myLCD8PerintahEh+0x50>
    1d38:	90 e1       	ldi	r25, 0x10	; 16
    1d3a:	69 9f       	mul	r22, r25
    1d3c:	b0 01       	movw	r22, r0
    1d3e:	11 24       	eor	r1, r1
    1d40:	64 60       	ori	r22, 0x04	; 4
    1d42:	6b bb       	out	0x1b, r22	; 27
    1d44:	85 e0       	ldi	r24, 0x05	; 5
    1d46:	8a 95       	dec	r24
    1d48:	f1 f7       	brne	.-4      	; 0x1d46 <_ZN5myLCD8PerintahEh+0x32>
    1d4a:	00 00       	nop
    1d4c:	da 98       	cbi	0x1b, 2	; 27
    1d4e:	8f ee       	ldi	r24, 0xEF	; 239
    1d50:	9a e0       	ldi	r25, 0x0A	; 10
    1d52:	01 97       	sbiw	r24, 0x01	; 1
    1d54:	f1 f7       	brne	.-4      	; 0x1d52 <_ZN5myLCD8PerintahEh+0x3e>
    1d56:	00 c0       	rjmp	.+0      	; 0x1d58 <_ZN5myLCD8PerintahEh+0x44>
    1d58:	00 00       	nop
    1d5a:	da 9a       	sbi	0x1b, 2	; 27
    1d5c:	08 95       	ret
    1d5e:	84 60       	ori	r24, 0x04	; 4
    1d60:	8b bb       	out	0x1b, r24	; 27
    1d62:	df cf       	rjmp	.-66     	; 0x1d22 <_ZN5myLCD8PerintahEh+0xe>
    1d64:	80 e1       	ldi	r24, 0x10	; 16
    1d66:	68 9f       	mul	r22, r24
    1d68:	b0 01       	movw	r22, r0
    1d6a:	11 24       	eor	r1, r1
    1d6c:	6c 60       	ori	r22, 0x0C	; 12
    1d6e:	6b bb       	out	0x1b, r22	; 27
    1d70:	e9 cf       	rjmp	.-46     	; 0x1d44 <_ZN5myLCD8PerintahEh+0x30>

00001d72 <_ZN5myLCD4DataEh>:
    1d72:	d8 9a       	sbi	0x1b, 0	; 27
    1d74:	86 2f       	mov	r24, r22
    1d76:	80 7f       	andi	r24, 0xF0	; 240
    1d78:	20 fe       	sbrs	r2, 0
    1d7a:	1e c0       	rjmp	.+60     	; 0x1db8 <_ZN5myLCD4DataEh+0x46>
    1d7c:	8d 60       	ori	r24, 0x0D	; 13
    1d7e:	8b bb       	out	0x1b, r24	; 27
    1d80:	85 e0       	ldi	r24, 0x05	; 5
    1d82:	8a 95       	dec	r24
    1d84:	f1 f7       	brne	.-4      	; 0x1d82 <_ZN5myLCD4DataEh+0x10>
    1d86:	00 00       	nop
    1d88:	da 98       	cbi	0x1b, 2	; 27
    1d8a:	8a e1       	ldi	r24, 0x1A	; 26
    1d8c:	8a 95       	dec	r24
    1d8e:	f1 f7       	brne	.-4      	; 0x1d8c <_ZN5myLCD4DataEh+0x1a>
    1d90:	00 c0       	rjmp	.+0      	; 0x1d92 <_ZN5myLCD4DataEh+0x20>
    1d92:	80 e1       	ldi	r24, 0x10	; 16
    1d94:	68 9f       	mul	r22, r24
    1d96:	b0 01       	movw	r22, r0
    1d98:	11 24       	eor	r1, r1
    1d9a:	20 fc       	sbrc	r2, 0
    1d9c:	10 c0       	rjmp	.+32     	; 0x1dbe <_ZN5myLCD4DataEh+0x4c>
    1d9e:	65 60       	ori	r22, 0x05	; 5
    1da0:	6b bb       	out	0x1b, r22	; 27
    1da2:	85 e0       	ldi	r24, 0x05	; 5
    1da4:	8a 95       	dec	r24
    1da6:	f1 f7       	brne	.-4      	; 0x1da4 <_ZN5myLCD4DataEh+0x32>
    1da8:	00 00       	nop
    1daa:	da 98       	cbi	0x1b, 2	; 27
    1dac:	85 ed       	ldi	r24, 0xD5	; 213
    1dae:	8a 95       	dec	r24
    1db0:	f1 f7       	brne	.-4      	; 0x1dae <_ZN5myLCD4DataEh+0x3c>
    1db2:	00 00       	nop
    1db4:	da 9a       	sbi	0x1b, 2	; 27
    1db6:	08 95       	ret
    1db8:	85 60       	ori	r24, 0x05	; 5
    1dba:	8b bb       	out	0x1b, r24	; 27
    1dbc:	e1 cf       	rjmp	.-62     	; 0x1d80 <_ZN5myLCD4DataEh+0xe>
    1dbe:	6d 60       	ori	r22, 0x0D	; 13
    1dc0:	6b bb       	out	0x1b, r22	; 27
    1dc2:	ef cf       	rjmp	.-34     	; 0x1da2 <_ZN5myLCD4DataEh+0x30>

00001dc4 <_ZN5myLCD4InitEv>:
    1dc4:	cf 93       	push	r28
    1dc6:	df 93       	push	r29
    1dc8:	ec 01       	movw	r28, r24
    1dca:	2f ef       	ldi	r18, 0xFF	; 255
    1dcc:	80 e7       	ldi	r24, 0x70	; 112
    1dce:	92 e0       	ldi	r25, 0x02	; 2
    1dd0:	21 50       	subi	r18, 0x01	; 1
    1dd2:	80 40       	sbci	r24, 0x00	; 0
    1dd4:	90 40       	sbci	r25, 0x00	; 0
    1dd6:	e1 f7       	brne	.-8      	; 0x1dd0 <_ZN5myLCD4InitEv+0xc>
    1dd8:	00 c0       	rjmp	.+0      	; 0x1dda <_ZN5myLCD4InitEv+0x16>
    1dda:	00 00       	nop
    1ddc:	84 e3       	ldi	r24, 0x34	; 52
    1dde:	8b bb       	out	0x1b, r24	; 27
    1de0:	e5 e0       	ldi	r30, 0x05	; 5
    1de2:	ea 95       	dec	r30
    1de4:	f1 f7       	brne	.-4      	; 0x1de2 <_ZN5myLCD4InitEv+0x1e>
    1de6:	00 00       	nop
    1de8:	da 98       	cbi	0x1b, 2	; 27
    1dea:	ef e1       	ldi	r30, 0x1F	; 31
    1dec:	fe e4       	ldi	r31, 0x4E	; 78
    1dee:	31 97       	sbiw	r30, 0x01	; 1
    1df0:	f1 f7       	brne	.-4      	; 0x1dee <_ZN5myLCD4InitEv+0x2a>
    1df2:	00 c0       	rjmp	.+0      	; 0x1df4 <_ZN5myLCD4InitEv+0x30>
    1df4:	00 00       	nop
    1df6:	8b bb       	out	0x1b, r24	; 27
    1df8:	f5 e0       	ldi	r31, 0x05	; 5
    1dfa:	fa 95       	dec	r31
    1dfc:	f1 f7       	brne	.-4      	; 0x1dfa <_ZN5myLCD4InitEv+0x36>
    1dfe:	00 00       	nop
    1e00:	da 98       	cbi	0x1b, 2	; 27
    1e02:	ef e9       	ldi	r30, 0x9F	; 159
    1e04:	ff e0       	ldi	r31, 0x0F	; 15
    1e06:	31 97       	sbiw	r30, 0x01	; 1
    1e08:	f1 f7       	brne	.-4      	; 0x1e06 <_ZN5myLCD4InitEv+0x42>
    1e0a:	00 c0       	rjmp	.+0      	; 0x1e0c <_ZN5myLCD4InitEv+0x48>
    1e0c:	00 00       	nop
    1e0e:	8b bb       	out	0x1b, r24	; 27
    1e10:	f5 e0       	ldi	r31, 0x05	; 5
    1e12:	fa 95       	dec	r31
    1e14:	f1 f7       	brne	.-4      	; 0x1e12 <_ZN5myLCD4InitEv+0x4e>
    1e16:	00 00       	nop
    1e18:	da 98       	cbi	0x1b, 2	; 27
    1e1a:	8f e9       	ldi	r24, 0x9F	; 159
    1e1c:	9f e0       	ldi	r25, 0x0F	; 15
    1e1e:	01 97       	sbiw	r24, 0x01	; 1
    1e20:	f1 f7       	brne	.-4      	; 0x1e1e <_ZN5myLCD4InitEv+0x5a>
    1e22:	00 c0       	rjmp	.+0      	; 0x1e24 <_ZN5myLCD4InitEv+0x60>
    1e24:	00 00       	nop
    1e26:	84 e2       	ldi	r24, 0x24	; 36
    1e28:	8b bb       	out	0x1b, r24	; 27
    1e2a:	95 e0       	ldi	r25, 0x05	; 5
    1e2c:	9a 95       	dec	r25
    1e2e:	f1 f7       	brne	.-4      	; 0x1e2c <_ZN5myLCD4InitEv+0x68>
    1e30:	00 00       	nop
    1e32:	da 98       	cbi	0x1b, 2	; 27
    1e34:	68 e2       	ldi	r22, 0x28	; 40
    1e36:	ce 01       	movw	r24, r28
    1e38:	0e 94 8a 0e 	call	0x1d14	; 0x1d14 <_ZN5myLCD8PerintahEh>
    1e3c:	60 e1       	ldi	r22, 0x10	; 16
    1e3e:	ce 01       	movw	r24, r28
    1e40:	0e 94 8a 0e 	call	0x1d14	; 0x1d14 <_ZN5myLCD8PerintahEh>
    1e44:	66 e0       	ldi	r22, 0x06	; 6
    1e46:	ce 01       	movw	r24, r28
    1e48:	0e 94 8a 0e 	call	0x1d14	; 0x1d14 <_ZN5myLCD8PerintahEh>
    1e4c:	6c e0       	ldi	r22, 0x0C	; 12
    1e4e:	ce 01       	movw	r24, r28
    1e50:	0e 94 8a 0e 	call	0x1d14	; 0x1d14 <_ZN5myLCD8PerintahEh>
    1e54:	61 e0       	ldi	r22, 0x01	; 1
    1e56:	ce 01       	movw	r24, r28
    1e58:	0e 94 8a 0e 	call	0x1d14	; 0x1d14 <_ZN5myLCD8PerintahEh>
    1e5c:	ef e3       	ldi	r30, 0x3F	; 63
    1e5e:	ff e1       	ldi	r31, 0x1F	; 31
    1e60:	31 97       	sbiw	r30, 0x01	; 1
    1e62:	f1 f7       	brne	.-4      	; 0x1e60 <_ZN5myLCD4InitEv+0x9c>
    1e64:	00 c0       	rjmp	.+0      	; 0x1e66 <_ZN5myLCD4InitEv+0xa2>
    1e66:	00 00       	nop
    1e68:	df 91       	pop	r29
    1e6a:	cf 91       	pop	r28
    1e6c:	08 95       	ret

00001e6e <_ZN5myLCD10HapusBarisEh>:
    1e6e:	61 11       	cpse	r22, r1
    1e70:	2c c0       	rjmp	.+88     	; 0x1eca <_ZN5myLCD10HapusBarisEh+0x5c>
    1e72:	60 e8       	ldi	r22, 0x80	; 128
    1e74:	0e 94 8a 0e 	call	0x1d14	; 0x1d14 <_ZN5myLCD8PerintahEh>
    1e78:	80 e1       	ldi	r24, 0x10	; 16
    1e7a:	92 2d       	mov	r25, r2
    1e7c:	91 70       	andi	r25, 0x01	; 1
    1e7e:	45 e2       	ldi	r20, 0x25	; 37
    1e80:	3d e2       	ldi	r19, 0x2D	; 45
    1e82:	25 e0       	ldi	r18, 0x05	; 5
    1e84:	5d e0       	ldi	r21, 0x0D	; 13
    1e86:	19 c0       	rjmp	.+50     	; 0x1eba <_ZN5myLCD10HapusBarisEh+0x4c>
    1e88:	3b bb       	out	0x1b, r19	; 27
    1e8a:	65 e0       	ldi	r22, 0x05	; 5
    1e8c:	6a 95       	dec	r22
    1e8e:	f1 f7       	brne	.-4      	; 0x1e8c <_ZN5myLCD10HapusBarisEh+0x1e>
    1e90:	00 00       	nop
    1e92:	da 98       	cbi	0x1b, 2	; 27
    1e94:	6a e1       	ldi	r22, 0x1A	; 26
    1e96:	6a 95       	dec	r22
    1e98:	f1 f7       	brne	.-4      	; 0x1e96 <_ZN5myLCD10HapusBarisEh+0x28>
    1e9a:	00 c0       	rjmp	.+0      	; 0x1e9c <_ZN5myLCD10HapusBarisEh+0x2e>
    1e9c:	91 11       	cpse	r25, r1
    1e9e:	12 c0       	rjmp	.+36     	; 0x1ec4 <_ZN5myLCD10HapusBarisEh+0x56>
    1ea0:	2b bb       	out	0x1b, r18	; 27
    1ea2:	65 e0       	ldi	r22, 0x05	; 5
    1ea4:	6a 95       	dec	r22
    1ea6:	f1 f7       	brne	.-4      	; 0x1ea4 <_ZN5myLCD10HapusBarisEh+0x36>
    1ea8:	00 00       	nop
    1eaa:	da 98       	cbi	0x1b, 2	; 27
    1eac:	65 ed       	ldi	r22, 0xD5	; 213
    1eae:	6a 95       	dec	r22
    1eb0:	f1 f7       	brne	.-4      	; 0x1eae <_ZN5myLCD10HapusBarisEh+0x40>
    1eb2:	00 00       	nop
    1eb4:	da 9a       	sbi	0x1b, 2	; 27
    1eb6:	81 50       	subi	r24, 0x01	; 1
    1eb8:	39 f0       	breq	.+14     	; 0x1ec8 <_ZN5myLCD10HapusBarisEh+0x5a>
    1eba:	d8 9a       	sbi	0x1b, 0	; 27
    1ebc:	91 11       	cpse	r25, r1
    1ebe:	e4 cf       	rjmp	.-56     	; 0x1e88 <_ZN5myLCD10HapusBarisEh+0x1a>
    1ec0:	4b bb       	out	0x1b, r20	; 27
    1ec2:	e3 cf       	rjmp	.-58     	; 0x1e8a <_ZN5myLCD10HapusBarisEh+0x1c>
    1ec4:	5b bb       	out	0x1b, r21	; 27
    1ec6:	ed cf       	rjmp	.-38     	; 0x1ea2 <_ZN5myLCD10HapusBarisEh+0x34>
    1ec8:	08 95       	ret
    1eca:	60 ec       	ldi	r22, 0xC0	; 192
    1ecc:	0e 94 8a 0e 	call	0x1d14	; 0x1d14 <_ZN5myLCD8PerintahEh>
    1ed0:	d3 cf       	rjmp	.-90     	; 0x1e78 <_ZN5myLCD10HapusBarisEh+0xa>

00001ed2 <_ZN7MPU605010initializeEv>:
    1ed2:	0f 93       	push	r16
    1ed4:	cf 93       	push	r28
    1ed6:	df 93       	push	r29
    1ed8:	ec 01       	movw	r28, r24
    1eda:	01 e0       	ldi	r16, 0x01	; 1
    1edc:	23 e0       	ldi	r18, 0x03	; 3
    1ede:	42 e0       	ldi	r20, 0x02	; 2
    1ee0:	6b e6       	ldi	r22, 0x6B	; 107
    1ee2:	88 81       	ld	r24, Y
    1ee4:	0e 94 5f 06 	call	0xcbe	; 0xcbe <_ZN5myI2C9WriteBitsEhhhhh.part.13.constprop.34>
    1ee8:	00 e0       	ldi	r16, 0x00	; 0
    1eea:	22 e0       	ldi	r18, 0x02	; 2
    1eec:	44 e0       	ldi	r20, 0x04	; 4
    1eee:	6b e1       	ldi	r22, 0x1B	; 27
    1ef0:	88 81       	ld	r24, Y
    1ef2:	0e 94 5f 06 	call	0xcbe	; 0xcbe <_ZN5myI2C9WriteBitsEhhhhh.part.13.constprop.34>
    1ef6:	22 e0       	ldi	r18, 0x02	; 2
    1ef8:	44 e0       	ldi	r20, 0x04	; 4
    1efa:	6c e1       	ldi	r22, 0x1C	; 28
    1efc:	88 81       	ld	r24, Y
    1efe:	0e 94 5f 06 	call	0xcbe	; 0xcbe <_ZN5myI2C9WriteBitsEhhhhh.part.13.constprop.34>
    1f02:	20 e0       	ldi	r18, 0x00	; 0
    1f04:	46 e0       	ldi	r20, 0x06	; 6
    1f06:	6b e6       	ldi	r22, 0x6B	; 107
    1f08:	88 81       	ld	r24, Y
    1f0a:	df 91       	pop	r29
    1f0c:	cf 91       	pop	r28
    1f0e:	0f 91       	pop	r16
    1f10:	0c 94 a5 06 	jmp	0xd4a	; 0xd4a <_ZN5myI2C8WriteBitEhhhh.constprop.26>

00001f14 <_ZN7MPU605012getFIFOCountEv>:
    1f14:	fc 01       	movw	r30, r24
    1f16:	20 81       	ld	r18, Z
    1f18:	84 ea       	ldi	r24, 0xA4	; 164
    1f1a:	80 93 74 00 	sts	0x0074, r24	; 0x800074 <__TEXT_REGION_LENGTH__+0x7e0074>
    1f1e:	90 91 74 00 	lds	r25, 0x0074	; 0x800074 <__TEXT_REGION_LENGTH__+0x7e0074>
    1f22:	97 ff       	sbrs	r25, 7
    1f24:	fc cf       	rjmp	.-8      	; 0x1f1e <_ZN7MPU605012getFIFOCountEv+0xa>
    1f26:	90 91 71 00 	lds	r25, 0x0071	; 0x800071 <__TEXT_REGION_LENGTH__+0x7e0071>
    1f2a:	98 7f       	andi	r25, 0xF8	; 248
    1f2c:	98 30       	cpi	r25, 0x08	; 8
    1f2e:	09 f4       	brne	.+2      	; 0x1f32 <_ZN7MPU605012getFIFOCountEv+0x1e>
    1f30:	45 c0       	rjmp	.+138    	; 0x1fbc <_ZN7MPU605012getFIFOCountEv+0xa8>
    1f32:	90 31       	cpi	r25, 0x10	; 16
    1f34:	09 f4       	brne	.+2      	; 0x1f38 <_ZN7MPU605012getFIFOCountEv+0x24>
    1f36:	42 c0       	rjmp	.+132    	; 0x1fbc <_ZN7MPU605012getFIFOCountEv+0xa8>
    1f38:	82 e7       	ldi	r24, 0x72	; 114
    1f3a:	80 93 73 00 	sts	0x0073, r24	; 0x800073 <__TEXT_REGION_LENGTH__+0x7e0073>
    1f3e:	84 e8       	ldi	r24, 0x84	; 132
    1f40:	80 93 74 00 	sts	0x0074, r24	; 0x800074 <__TEXT_REGION_LENGTH__+0x7e0074>
    1f44:	90 91 74 00 	lds	r25, 0x0074	; 0x800074 <__TEXT_REGION_LENGTH__+0x7e0074>
    1f48:	97 ff       	sbrs	r25, 7
    1f4a:	fc cf       	rjmp	.-8      	; 0x1f44 <_ZN7MPU605012getFIFOCountEv+0x30>
    1f4c:	80 91 71 00 	lds	r24, 0x0071	; 0x800071 <__TEXT_REGION_LENGTH__+0x7e0071>
    1f50:	90 81       	ld	r25, Z
    1f52:	84 ea       	ldi	r24, 0xA4	; 164
    1f54:	80 93 74 00 	sts	0x0074, r24	; 0x800074 <__TEXT_REGION_LENGTH__+0x7e0074>
    1f58:	80 91 74 00 	lds	r24, 0x0074	; 0x800074 <__TEXT_REGION_LENGTH__+0x7e0074>
    1f5c:	87 ff       	sbrs	r24, 7
    1f5e:	fc cf       	rjmp	.-8      	; 0x1f58 <_ZN7MPU605012getFIFOCountEv+0x44>
    1f60:	80 91 71 00 	lds	r24, 0x0071	; 0x800071 <__TEXT_REGION_LENGTH__+0x7e0071>
    1f64:	88 7f       	andi	r24, 0xF8	; 248
    1f66:	88 30       	cpi	r24, 0x08	; 8
    1f68:	e1 f0       	breq	.+56     	; 0x1fa2 <_ZN7MPU605012getFIFOCountEv+0x8e>
    1f6a:	80 31       	cpi	r24, 0x10	; 16
    1f6c:	d1 f0       	breq	.+52     	; 0x1fa2 <_ZN7MPU605012getFIFOCountEv+0x8e>
    1f6e:	84 ec       	ldi	r24, 0xC4	; 196
    1f70:	80 93 74 00 	sts	0x0074, r24	; 0x800074 <__TEXT_REGION_LENGTH__+0x7e0074>
    1f74:	80 91 74 00 	lds	r24, 0x0074	; 0x800074 <__TEXT_REGION_LENGTH__+0x7e0074>
    1f78:	87 ff       	sbrs	r24, 7
    1f7a:	fc cf       	rjmp	.-8      	; 0x1f74 <_ZN7MPU605012getFIFOCountEv+0x60>
    1f7c:	90 91 73 00 	lds	r25, 0x0073	; 0x800073 <__TEXT_REGION_LENGTH__+0x7e0073>
    1f80:	84 e8       	ldi	r24, 0x84	; 132
    1f82:	80 93 74 00 	sts	0x0074, r24	; 0x800074 <__TEXT_REGION_LENGTH__+0x7e0074>
    1f86:	80 91 74 00 	lds	r24, 0x0074	; 0x800074 <__TEXT_REGION_LENGTH__+0x7e0074>
    1f8a:	87 ff       	sbrs	r24, 7
    1f8c:	fc cf       	rjmp	.-8      	; 0x1f86 <_ZN7MPU605012getFIFOCountEv+0x72>
    1f8e:	80 91 73 00 	lds	r24, 0x0073	; 0x800073 <__TEXT_REGION_LENGTH__+0x7e0073>
    1f92:	24 e9       	ldi	r18, 0x94	; 148
    1f94:	20 93 74 00 	sts	0x0074, r18	; 0x800074 <__TEXT_REGION_LENGTH__+0x7e0074>
    1f98:	20 91 74 00 	lds	r18, 0x0074	; 0x800074 <__TEXT_REGION_LENGTH__+0x7e0074>
    1f9c:	24 fd       	sbrc	r18, 4
    1f9e:	fc cf       	rjmp	.-8      	; 0x1f98 <_ZN7MPU605012getFIFOCountEv+0x84>
    1fa0:	08 95       	ret
    1fa2:	91 60       	ori	r25, 0x01	; 1
    1fa4:	90 93 73 00 	sts	0x0073, r25	; 0x800073 <__TEXT_REGION_LENGTH__+0x7e0073>
    1fa8:	84 e8       	ldi	r24, 0x84	; 132
    1faa:	80 93 74 00 	sts	0x0074, r24	; 0x800074 <__TEXT_REGION_LENGTH__+0x7e0074>
    1fae:	80 91 74 00 	lds	r24, 0x0074	; 0x800074 <__TEXT_REGION_LENGTH__+0x7e0074>
    1fb2:	87 ff       	sbrs	r24, 7
    1fb4:	fc cf       	rjmp	.-8      	; 0x1fae <_ZN7MPU605012getFIFOCountEv+0x9a>
    1fb6:	80 91 71 00 	lds	r24, 0x0071	; 0x800071 <__TEXT_REGION_LENGTH__+0x7e0071>
    1fba:	d9 cf       	rjmp	.-78     	; 0x1f6e <_ZN7MPU605012getFIFOCountEv+0x5a>
    1fbc:	20 93 73 00 	sts	0x0073, r18	; 0x800073 <__TEXT_REGION_LENGTH__+0x7e0073>
    1fc0:	84 e8       	ldi	r24, 0x84	; 132
    1fc2:	80 93 74 00 	sts	0x0074, r24	; 0x800074 <__TEXT_REGION_LENGTH__+0x7e0074>
    1fc6:	90 91 74 00 	lds	r25, 0x0074	; 0x800074 <__TEXT_REGION_LENGTH__+0x7e0074>
    1fca:	97 ff       	sbrs	r25, 7
    1fcc:	fc cf       	rjmp	.-8      	; 0x1fc6 <_ZN7MPU605012getFIFOCountEv+0xb2>
    1fce:	80 91 71 00 	lds	r24, 0x0071	; 0x800071 <__TEXT_REGION_LENGTH__+0x7e0071>
    1fd2:	b2 cf       	rjmp	.-156    	; 0x1f38 <_ZN7MPU605012getFIFOCountEv+0x24>

00001fd4 <_ZN7MPU605015readMemoryBlockEPhjhh>:
    1fd4:	4f 92       	push	r4
    1fd6:	5f 92       	push	r5
    1fd8:	6f 92       	push	r6
    1fda:	7f 92       	push	r7
    1fdc:	8f 92       	push	r8
    1fde:	9f 92       	push	r9
    1fe0:	af 92       	push	r10
    1fe2:	bf 92       	push	r11
    1fe4:	cf 92       	push	r12
    1fe6:	df 92       	push	r13
    1fe8:	ef 92       	push	r14
    1fea:	ff 92       	push	r15
    1fec:	0f 93       	push	r16
    1fee:	1f 93       	push	r17
    1ff0:	cf 93       	push	r28
    1ff2:	df 93       	push	r29
    1ff4:	5c 01       	movw	r10, r24
    1ff6:	3b 01       	movw	r6, r22
    1ff8:	7a 01       	movw	r14, r20
    1ffa:	52 2e       	mov	r5, r18
    1ffc:	82 2f       	mov	r24, r18
    1ffe:	8f 71       	andi	r24, 0x1F	; 31
    2000:	48 2e       	mov	r4, r24
    2002:	48 2f       	mov	r20, r24
    2004:	6d e6       	ldi	r22, 0x6D	; 109
    2006:	f5 01       	movw	r30, r10
    2008:	80 81       	ld	r24, Z
    200a:	0e 94 ce 05 	call	0xb9c	; 0xb9c <_ZN5myI2C9WriteByteEhhh.constprop.35>
    200e:	40 2f       	mov	r20, r16
    2010:	6e e6       	ldi	r22, 0x6E	; 110
    2012:	f5 01       	movw	r30, r10
    2014:	80 81       	ld	r24, Z
    2016:	0e 94 ce 05 	call	0xb9c	; 0xb9c <_ZN5myI2C9WriteByteEhhh.constprop.35>
    201a:	e1 14       	cp	r14, r1
    201c:	f1 04       	cpc	r15, r1
    201e:	f9 f0       	breq	.+62     	; 0x205e <_ZN7MPU605015readMemoryBlockEPhjhh+0x8a>
    2020:	c0 e0       	ldi	r28, 0x00	; 0
    2022:	d0 e0       	ldi	r29, 0x00	; 0
    2024:	81 2c       	mov	r8, r1
    2026:	99 24       	eor	r9, r9
    2028:	93 94       	inc	r9
    202a:	6e 01       	movw	r12, r28
    202c:	f0 e1       	ldi	r31, 0x10	; 16
    202e:	cf 0e       	add	r12, r31
    2030:	d1 1c       	adc	r13, r1
    2032:	ec 14       	cp	r14, r12
    2034:	fd 04       	cpc	r15, r13
    2036:	e8 f5       	brcc	.+122    	; 0x20b2 <_ZN7MPU605015readMemoryBlockEPhjhh+0xde>
    2038:	1e 2d       	mov	r17, r14
    203a:	1c 1b       	sub	r17, r28
    203c:	21 2f       	mov	r18, r17
    203e:	30 e0       	ldi	r19, 0x00	; 0
    2040:	c4 01       	movw	r24, r8
    2042:	80 1b       	sub	r24, r16
    2044:	91 09       	sbc	r25, r1
    2046:	82 17       	cp	r24, r18
    2048:	93 07       	cpc	r25, r19
    204a:	14 f4       	brge	.+4      	; 0x2050 <_ZN7MPU605015readMemoryBlockEPhjhh+0x7c>
    204c:	10 2f       	mov	r17, r16
    204e:	11 95       	neg	r17
    2050:	f5 01       	movw	r30, r10
    2052:	80 81       	ld	r24, Z
    2054:	11 11       	cpse	r17, r1
    2056:	3e c0       	rjmp	.+124    	; 0x20d4 <_ZN7MPU605015readMemoryBlockEPhjhh+0x100>
    2058:	ce 15       	cp	r28, r14
    205a:	df 05       	cpc	r29, r15
    205c:	88 f0       	brcs	.+34     	; 0x2080 <_ZN7MPU605015readMemoryBlockEPhjhh+0xac>
    205e:	df 91       	pop	r29
    2060:	cf 91       	pop	r28
    2062:	1f 91       	pop	r17
    2064:	0f 91       	pop	r16
    2066:	ff 90       	pop	r15
    2068:	ef 90       	pop	r14
    206a:	df 90       	pop	r13
    206c:	cf 90       	pop	r12
    206e:	bf 90       	pop	r11
    2070:	af 90       	pop	r10
    2072:	9f 90       	pop	r9
    2074:	8f 90       	pop	r8
    2076:	7f 90       	pop	r7
    2078:	6f 90       	pop	r6
    207a:	5f 90       	pop	r5
    207c:	4f 90       	pop	r4
    207e:	08 95       	ret
    2080:	01 0f       	add	r16, r17
    2082:	21 f4       	brne	.+8      	; 0x208c <_ZN7MPU605015readMemoryBlockEPhjhh+0xb8>
    2084:	53 94       	inc	r5
    2086:	f5 2d       	mov	r31, r5
    2088:	ff 71       	andi	r31, 0x1F	; 31
    208a:	4f 2e       	mov	r4, r31
    208c:	44 2d       	mov	r20, r4
    208e:	6d e6       	ldi	r22, 0x6D	; 109
    2090:	f5 01       	movw	r30, r10
    2092:	80 81       	ld	r24, Z
    2094:	0e 94 ce 05 	call	0xb9c	; 0xb9c <_ZN5myI2C9WriteByteEhhh.constprop.35>
    2098:	40 2f       	mov	r20, r16
    209a:	6e e6       	ldi	r22, 0x6E	; 110
    209c:	f5 01       	movw	r30, r10
    209e:	80 81       	ld	r24, Z
    20a0:	0e 94 ce 05 	call	0xb9c	; 0xb9c <_ZN5myI2C9WriteByteEhhh.constprop.35>
    20a4:	6e 01       	movw	r12, r28
    20a6:	f0 e1       	ldi	r31, 0x10	; 16
    20a8:	cf 0e       	add	r12, r31
    20aa:	d1 1c       	adc	r13, r1
    20ac:	ec 14       	cp	r14, r12
    20ae:	fd 04       	cpc	r15, r13
    20b0:	18 f2       	brcs	.-122    	; 0x2038 <_ZN7MPU605015readMemoryBlockEPhjhh+0x64>
    20b2:	c4 01       	movw	r24, r8
    20b4:	80 1b       	sub	r24, r16
    20b6:	91 09       	sbc	r25, r1
    20b8:	40 97       	sbiw	r24, 0x10	; 16
    20ba:	44 f2       	brlt	.-112    	; 0x204c <_ZN7MPU605015readMemoryBlockEPhjhh+0x78>
    20bc:	93 01       	movw	r18, r6
    20be:	2c 0f       	add	r18, r28
    20c0:	3d 1f       	adc	r19, r29
    20c2:	f5 01       	movw	r30, r10
    20c4:	80 81       	ld	r24, Z
    20c6:	10 e1       	ldi	r17, 0x10	; 16
    20c8:	41 2f       	mov	r20, r17
    20ca:	6f e6       	ldi	r22, 0x6F	; 111
    20cc:	0e 94 d2 06 	call	0xda4	; 0xda4 <_ZN5myI2C9ReadBytesEhhhPh.part.10.constprop.29>
    20d0:	e6 01       	movw	r28, r12
    20d2:	c2 cf       	rjmp	.-124    	; 0x2058 <_ZN7MPU605015readMemoryBlockEPhjhh+0x84>
    20d4:	93 01       	movw	r18, r6
    20d6:	2c 0f       	add	r18, r28
    20d8:	3d 1f       	adc	r19, r29
    20da:	6e 01       	movw	r12, r28
    20dc:	c1 0e       	add	r12, r17
    20de:	d1 1c       	adc	r13, r1
    20e0:	f3 cf       	rjmp	.-26     	; 0x20c8 <_ZN7MPU605015readMemoryBlockEPhjhh+0xf4>

000020e2 <_ZN5myDMP21dmpGetQuaternion16BitEv>:
    20e2:	4f 92       	push	r4
    20e4:	5f 92       	push	r5
    20e6:	6f 92       	push	r6
    20e8:	7f 92       	push	r7
    20ea:	8f 92       	push	r8
    20ec:	9f 92       	push	r9
    20ee:	af 92       	push	r10
    20f0:	bf 92       	push	r11
    20f2:	cf 92       	push	r12
    20f4:	df 92       	push	r13
    20f6:	ef 92       	push	r14
    20f8:	ff 92       	push	r15
    20fa:	0f 93       	push	r16
    20fc:	1f 93       	push	r17
    20fe:	cf 93       	push	r28
    2100:	df 93       	push	r29
    2102:	00 d0       	rcall	.+0      	; 0x2104 <_ZN5myDMP21dmpGetQuaternion16BitEv+0x22>
    2104:	00 d0       	rcall	.+0      	; 0x2106 <_ZN5myDMP21dmpGetQuaternion16BitEv+0x24>
    2106:	00 d0       	rcall	.+0      	; 0x2108 <_ZN5myDMP21dmpGetQuaternion16BitEv+0x26>
    2108:	cd b7       	in	r28, 0x3d	; 61
    210a:	de b7       	in	r29, 0x3e	; 62
    210c:	9e 83       	std	Y+6, r25	; 0x06
    210e:	8d 83       	std	Y+5, r24	; 0x05
    2110:	dc 01       	movw	r26, r24
    2112:	1f 96       	adiw	r26, 0x0f	; 15
    2114:	1c 91       	ld	r17, X
    2116:	1f 97       	sbiw	r26, 0x0f	; 15
    2118:	50 96       	adiw	r26, 0x10	; 16
    211a:	0c 91       	ld	r16, X
    211c:	b8 01       	movw	r22, r16
    211e:	11 0f       	add	r17, r17
    2120:	88 0b       	sbc	r24, r24
    2122:	99 0b       	sbc	r25, r25
    2124:	0e 94 93 1b 	call	0x3726	; 0x3726 <__floatsisf>
    2128:	20 e0       	ldi	r18, 0x00	; 0
    212a:	30 e0       	ldi	r19, 0x00	; 0
    212c:	40 e8       	ldi	r20, 0x80	; 128
    212e:	58 e3       	ldi	r21, 0x38	; 56
    2130:	0e 94 77 1c 	call	0x38ee	; 0x38ee <__mulsf3>
    2134:	2b 01       	movw	r4, r22
    2136:	3c 01       	movw	r6, r24
    2138:	ed 81       	ldd	r30, Y+5	; 0x05
    213a:	fe 81       	ldd	r31, Y+6	; 0x06
    213c:	63 ab       	std	Z+51, r22	; 0x33
    213e:	74 ab       	std	Z+52, r23	; 0x34
    2140:	85 ab       	std	Z+53, r24	; 0x35
    2142:	96 ab       	std	Z+54, r25	; 0x36
    2144:	13 89       	ldd	r17, Z+19	; 0x13
    2146:	04 89       	ldd	r16, Z+20	; 0x14
    2148:	b8 01       	movw	r22, r16
    214a:	11 0f       	add	r17, r17
    214c:	88 0b       	sbc	r24, r24
    214e:	99 0b       	sbc	r25, r25
    2150:	0e 94 93 1b 	call	0x3726	; 0x3726 <__floatsisf>
    2154:	20 e0       	ldi	r18, 0x00	; 0
    2156:	30 e0       	ldi	r19, 0x00	; 0
    2158:	40 e8       	ldi	r20, 0x80	; 128
    215a:	58 e3       	ldi	r21, 0x38	; 56
    215c:	0e 94 77 1c 	call	0x38ee	; 0x38ee <__mulsf3>
    2160:	4b 01       	movw	r8, r22
    2162:	5c 01       	movw	r10, r24
    2164:	ad 81       	ldd	r26, Y+5	; 0x05
    2166:	be 81       	ldd	r27, Y+6	; 0x06
    2168:	d7 96       	adiw	r26, 0x37	; 55
    216a:	6d 93       	st	X+, r22
    216c:	7d 93       	st	X+, r23
    216e:	8d 93       	st	X+, r24
    2170:	9c 93       	st	X, r25
    2172:	da 97       	sbiw	r26, 0x3a	; 58
    2174:	57 96       	adiw	r26, 0x17	; 23
    2176:	1c 91       	ld	r17, X
    2178:	57 97       	sbiw	r26, 0x17	; 23
    217a:	58 96       	adiw	r26, 0x18	; 24
    217c:	0c 91       	ld	r16, X
    217e:	b8 01       	movw	r22, r16
    2180:	11 0f       	add	r17, r17
    2182:	88 0b       	sbc	r24, r24
    2184:	99 0b       	sbc	r25, r25
    2186:	0e 94 93 1b 	call	0x3726	; 0x3726 <__floatsisf>
    218a:	20 e0       	ldi	r18, 0x00	; 0
    218c:	30 e0       	ldi	r19, 0x00	; 0
    218e:	40 e8       	ldi	r20, 0x80	; 128
    2190:	58 e3       	ldi	r21, 0x38	; 56
    2192:	0e 94 77 1c 	call	0x38ee	; 0x38ee <__mulsf3>
    2196:	6b 01       	movw	r12, r22
    2198:	7c 01       	movw	r14, r24
    219a:	ed 81       	ldd	r30, Y+5	; 0x05
    219c:	fe 81       	ldd	r31, Y+6	; 0x06
    219e:	63 af       	std	Z+59, r22	; 0x3b
    21a0:	74 af       	std	Z+60, r23	; 0x3c
    21a2:	85 af       	std	Z+61, r24	; 0x3d
    21a4:	96 af       	std	Z+62, r25	; 0x3e
    21a6:	13 8d       	ldd	r17, Z+27	; 0x1b
    21a8:	04 8d       	ldd	r16, Z+28	; 0x1c
    21aa:	b8 01       	movw	r22, r16
    21ac:	11 0f       	add	r17, r17
    21ae:	88 0b       	sbc	r24, r24
    21b0:	99 0b       	sbc	r25, r25
    21b2:	0e 94 93 1b 	call	0x3726	; 0x3726 <__floatsisf>
    21b6:	20 e0       	ldi	r18, 0x00	; 0
    21b8:	30 e0       	ldi	r19, 0x00	; 0
    21ba:	40 e8       	ldi	r20, 0x80	; 128
    21bc:	58 e3       	ldi	r21, 0x38	; 56
    21be:	0e 94 77 1c 	call	0x38ee	; 0x38ee <__mulsf3>
    21c2:	69 83       	std	Y+1, r22	; 0x01
    21c4:	7a 83       	std	Y+2, r23	; 0x02
    21c6:	8b 83       	std	Y+3, r24	; 0x03
    21c8:	9c 83       	std	Y+4, r25	; 0x04
    21ca:	ed 81       	ldd	r30, Y+5	; 0x05
    21cc:	fe 81       	ldd	r31, Y+6	; 0x06
    21ce:	ff 96       	adiw	r30, 0x3f	; 63
    21d0:	60 83       	st	Z, r22
    21d2:	71 83       	std	Z+1, r23	; 0x01
    21d4:	82 83       	std	Z+2, r24	; 0x02
    21d6:	93 83       	std	Z+3, r25	; 0x03
    21d8:	8d 81       	ldd	r24, Y+5	; 0x05
    21da:	9e 81       	ldd	r25, Y+6	; 0x06
    21dc:	8d 5b       	subi	r24, 0xBD	; 189
    21de:	9f 4f       	sbci	r25, 0xFF	; 255
    21e0:	9e 83       	std	Y+6, r25	; 0x06
    21e2:	8d 83       	std	Y+5, r24	; 0x05
    21e4:	a3 01       	movw	r20, r6
    21e6:	92 01       	movw	r18, r4
    21e8:	c3 01       	movw	r24, r6
    21ea:	b2 01       	movw	r22, r4
    21ec:	0e 94 77 1c 	call	0x38ee	; 0x38ee <__mulsf3>
    21f0:	2b 01       	movw	r4, r22
    21f2:	3c 01       	movw	r6, r24
    21f4:	a5 01       	movw	r20, r10
    21f6:	94 01       	movw	r18, r8
    21f8:	c5 01       	movw	r24, r10
    21fa:	b4 01       	movw	r22, r8
    21fc:	0e 94 77 1c 	call	0x38ee	; 0x38ee <__mulsf3>
    2200:	9b 01       	movw	r18, r22
    2202:	ac 01       	movw	r20, r24
    2204:	c3 01       	movw	r24, r6
    2206:	b2 01       	movw	r22, r4
    2208:	0e 94 06 1a 	call	0x340c	; 0x340c <__addsf3>
    220c:	4b 01       	movw	r8, r22
    220e:	5c 01       	movw	r10, r24
    2210:	a7 01       	movw	r20, r14
    2212:	96 01       	movw	r18, r12
    2214:	c7 01       	movw	r24, r14
    2216:	b6 01       	movw	r22, r12
    2218:	0e 94 77 1c 	call	0x38ee	; 0x38ee <__mulsf3>
    221c:	9b 01       	movw	r18, r22
    221e:	ac 01       	movw	r20, r24
    2220:	c5 01       	movw	r24, r10
    2222:	b4 01       	movw	r22, r8
    2224:	0e 94 06 1a 	call	0x340c	; 0x340c <__addsf3>
    2228:	6b 01       	movw	r12, r22
    222a:	7c 01       	movw	r14, r24
    222c:	29 81       	ldd	r18, Y+1	; 0x01
    222e:	3a 81       	ldd	r19, Y+2	; 0x02
    2230:	4b 81       	ldd	r20, Y+3	; 0x03
    2232:	5c 81       	ldd	r21, Y+4	; 0x04
    2234:	ca 01       	movw	r24, r20
    2236:	b9 01       	movw	r22, r18
    2238:	0e 94 77 1c 	call	0x38ee	; 0x38ee <__mulsf3>
    223c:	9b 01       	movw	r18, r22
    223e:	ac 01       	movw	r20, r24
    2240:	c7 01       	movw	r24, r14
    2242:	b6 01       	movw	r22, r12
    2244:	0e 94 06 1a 	call	0x340c	; 0x340c <__addsf3>
    2248:	9b 01       	movw	r18, r22
    224a:	ac 01       	movw	r20, r24
    224c:	60 e0       	ldi	r22, 0x00	; 0
    224e:	70 e0       	ldi	r23, 0x00	; 0
    2250:	80 e0       	ldi	r24, 0x00	; 0
    2252:	90 e4       	ldi	r25, 0x40	; 64
    2254:	0e 94 e9 1a 	call	0x35d2	; 0x35d2 <__divsf3>
    2258:	ad 81       	ldd	r26, Y+5	; 0x05
    225a:	be 81       	ldd	r27, Y+6	; 0x06
    225c:	6d 93       	st	X+, r22
    225e:	7d 93       	st	X+, r23
    2260:	8d 93       	st	X+, r24
    2262:	9c 93       	st	X, r25
    2264:	13 97       	sbiw	r26, 0x03	; 3
    2266:	26 96       	adiw	r28, 0x06	; 6
    2268:	0f b6       	in	r0, 0x3f	; 63
    226a:	f8 94       	cli
    226c:	de bf       	out	0x3e, r29	; 62
    226e:	0f be       	out	0x3f, r0	; 63
    2270:	cd bf       	out	0x3d, r28	; 61
    2272:	df 91       	pop	r29
    2274:	cf 91       	pop	r28
    2276:	1f 91       	pop	r17
    2278:	0f 91       	pop	r16
    227a:	ff 90       	pop	r15
    227c:	ef 90       	pop	r14
    227e:	df 90       	pop	r13
    2280:	cf 90       	pop	r12
    2282:	bf 90       	pop	r11
    2284:	af 90       	pop	r10
    2286:	9f 90       	pop	r9
    2288:	8f 90       	pop	r8
    228a:	7f 90       	pop	r7
    228c:	6f 90       	pop	r6
    228e:	5f 90       	pop	r5
    2290:	4f 90       	pop	r4
    2292:	08 95       	ret

00002294 <_ZN5myDMP7InitDMPEv>:
    2294:	af 92       	push	r10
    2296:	bf 92       	push	r11
    2298:	cf 92       	push	r12
    229a:	df 92       	push	r13
    229c:	ef 92       	push	r14
    229e:	0f 93       	push	r16
    22a0:	cf 93       	push	r28
    22a2:	df 93       	push	r29
    22a4:	cd b7       	in	r28, 0x3d	; 61
    22a6:	de b7       	in	r29, 0x3e	; 62
    22a8:	60 97       	sbiw	r28, 0x10	; 16
    22aa:	0f b6       	in	r0, 0x3f	; 63
    22ac:	f8 94       	cli
    22ae:	de bf       	out	0x3e, r29	; 62
    22b0:	0f be       	out	0x3f, r0	; 63
    22b2:	cd bf       	out	0x3d, r28	; 61
    22b4:	5c 01       	movw	r10, r24
    22b6:	21 e0       	ldi	r18, 0x01	; 1
    22b8:	47 e0       	ldi	r20, 0x07	; 7
    22ba:	6b e6       	ldi	r22, 0x6B	; 107
    22bc:	fc 01       	movw	r30, r24
    22be:	80 81       	ld	r24, Z
    22c0:	0e 94 a5 06 	call	0xd4a	; 0xd4a <_ZN5myI2C8WriteBitEhhhh.constprop.26>
    22c4:	ff ef       	ldi	r31, 0xFF	; 255
    22c6:	26 e7       	ldi	r18, 0x76	; 118
    22c8:	81 e0       	ldi	r24, 0x01	; 1
    22ca:	f1 50       	subi	r31, 0x01	; 1
    22cc:	20 40       	sbci	r18, 0x00	; 0
    22ce:	80 40       	sbci	r24, 0x00	; 0
    22d0:	e1 f7       	brne	.-8      	; 0x22ca <_ZN5myDMP7InitDMPEv+0x36>
    22d2:	00 c0       	rjmp	.+0      	; 0x22d4 <_ZN5myDMP7InitDMPEv+0x40>
    22d4:	00 00       	nop
    22d6:	20 e0       	ldi	r18, 0x00	; 0
    22d8:	46 e0       	ldi	r20, 0x06	; 6
    22da:	6b e6       	ldi	r22, 0x6B	; 107
    22dc:	f5 01       	movw	r30, r10
    22de:	80 81       	ld	r24, Z
    22e0:	0e 94 a5 06 	call	0xd4a	; 0xd4a <_ZN5myI2C8WriteBitEhhhh.constprop.26>
    22e4:	40 e7       	ldi	r20, 0x70	; 112
    22e6:	6d e6       	ldi	r22, 0x6D	; 109
    22e8:	f5 01       	movw	r30, r10
    22ea:	80 81       	ld	r24, Z
    22ec:	0e 94 ce 05 	call	0xb9c	; 0xb9c <_ZN5myI2C9WriteByteEhhh.constprop.35>
    22f0:	46 e0       	ldi	r20, 0x06	; 6
    22f2:	6e e6       	ldi	r22, 0x6E	; 110
    22f4:	f5 01       	movw	r30, r10
    22f6:	80 81       	ld	r24, Z
    22f8:	0e 94 ce 05 	call	0xb9c	; 0xb9c <_ZN5myI2C9WriteByteEhhh.constprop.35>
    22fc:	40 e0       	ldi	r20, 0x00	; 0
    22fe:	6d e6       	ldi	r22, 0x6D	; 109
    2300:	f5 01       	movw	r30, r10
    2302:	80 81       	ld	r24, Z
    2304:	0e 94 ce 05 	call	0xb9c	; 0xb9c <_ZN5myI2C9WriteByteEhhh.constprop.35>
    2308:	4f e7       	ldi	r20, 0x7F	; 127
    230a:	65 e2       	ldi	r22, 0x25	; 37
    230c:	f5 01       	movw	r30, r10
    230e:	80 81       	ld	r24, Z
    2310:	0e 94 ce 05 	call	0xb9c	; 0xb9c <_ZN5myI2C9WriteByteEhhh.constprop.35>
    2314:	20 e0       	ldi	r18, 0x00	; 0
    2316:	45 e0       	ldi	r20, 0x05	; 5
    2318:	6a e6       	ldi	r22, 0x6A	; 106
    231a:	f5 01       	movw	r30, r10
    231c:	80 81       	ld	r24, Z
    231e:	0e 94 a5 06 	call	0xd4a	; 0xd4a <_ZN5myI2C8WriteBitEhhhh.constprop.26>
    2322:	48 e6       	ldi	r20, 0x68	; 104
    2324:	65 e2       	ldi	r22, 0x25	; 37
    2326:	f5 01       	movw	r30, r10
    2328:	80 81       	ld	r24, Z
    232a:	0e 94 ce 05 	call	0xb9c	; 0xb9c <_ZN5myI2C9WriteByteEhhh.constprop.35>
    232e:	21 e0       	ldi	r18, 0x01	; 1
    2330:	41 e0       	ldi	r20, 0x01	; 1
    2332:	6a e6       	ldi	r22, 0x6A	; 106
    2334:	f5 01       	movw	r30, r10
    2336:	80 81       	ld	r24, Z
    2338:	0e 94 a5 06 	call	0xd4a	; 0xd4a <_ZN5myI2C8WriteBitEhhhh.constprop.26>
    233c:	ff ef       	ldi	r31, 0xFF	; 255
    233e:	29 ef       	ldi	r18, 0xF9	; 249
    2340:	80 e0       	ldi	r24, 0x00	; 0
    2342:	f1 50       	subi	r31, 0x01	; 1
    2344:	20 40       	sbci	r18, 0x00	; 0
    2346:	80 40       	sbci	r24, 0x00	; 0
    2348:	e1 f7       	brne	.-8      	; 0x2342 <_ZN5myDMP7InitDMPEv+0xae>
    234a:	00 c0       	rjmp	.+0      	; 0x234c <_ZN5myDMP7InitDMPEv+0xb8>
    234c:	00 00       	nop
    234e:	ee 24       	eor	r14, r14
    2350:	e3 94       	inc	r14
    2352:	00 e0       	ldi	r16, 0x00	; 0
    2354:	20 e0       	ldi	r18, 0x00	; 0
    2356:	49 e8       	ldi	r20, 0x89	; 137
    2358:	57 e0       	ldi	r21, 0x07	; 7
    235a:	6f e5       	ldi	r22, 0x5F	; 95
    235c:	71 e0       	ldi	r23, 0x01	; 1
    235e:	c5 01       	movw	r24, r10
    2360:	0e 94 42 07 	call	0xe84	; 0xe84 <_ZN7MPU605016writeMemoryBlockEPKhjhhhh.constprop.24>
    2364:	81 11       	cpse	r24, r1
    2366:	10 c0       	rjmp	.+32     	; 0x2388 <_ZN5myDMP7InitDMPEv+0xf4>
    2368:	80 e0       	ldi	r24, 0x00	; 0
    236a:	60 96       	adiw	r28, 0x10	; 16
    236c:	0f b6       	in	r0, 0x3f	; 63
    236e:	f8 94       	cli
    2370:	de bf       	out	0x3e, r29	; 62
    2372:	0f be       	out	0x3f, r0	; 63
    2374:	cd bf       	out	0x3d, r28	; 61
    2376:	df 91       	pop	r29
    2378:	cf 91       	pop	r28
    237a:	0f 91       	pop	r16
    237c:	ef 90       	pop	r14
    237e:	df 90       	pop	r13
    2380:	cf 90       	pop	r12
    2382:	bf 90       	pop	r11
    2384:	af 90       	pop	r10
    2386:	08 95       	ret
    2388:	46 e7       	ldi	r20, 0x76	; 118
    238a:	50 e0       	ldi	r21, 0x00	; 0
    238c:	69 ee       	ldi	r22, 0xE9	; 233
    238e:	70 e0       	ldi	r23, 0x00	; 0
    2390:	c5 01       	movw	r24, r10
    2392:	0e 94 a0 08 	call	0x1140	; 0x1140 <_ZN7MPU605024writeDMPConfigurationSetEPKhjh.constprop.23>
    2396:	88 23       	and	r24, r24
    2398:	39 f3       	breq	.-50     	; 0x2368 <_ZN5myDMP7InitDMPEv+0xd4>
    239a:	03 e0       	ldi	r16, 0x03	; 3
    239c:	23 e0       	ldi	r18, 0x03	; 3
    239e:	42 e0       	ldi	r20, 0x02	; 2
    23a0:	6b e6       	ldi	r22, 0x6B	; 107
    23a2:	f5 01       	movw	r30, r10
    23a4:	80 81       	ld	r24, Z
    23a6:	0e 94 5f 06 	call	0xcbe	; 0xcbe <_ZN5myI2C9WriteBitsEhhhhh.part.13.constprop.34>
    23aa:	42 e1       	ldi	r20, 0x12	; 18
    23ac:	68 e3       	ldi	r22, 0x38	; 56
    23ae:	f5 01       	movw	r30, r10
    23b0:	80 81       	ld	r24, Z
    23b2:	0e 94 ce 05 	call	0xb9c	; 0xb9c <_ZN5myI2C9WriteByteEhhh.constprop.35>
    23b6:	44 e0       	ldi	r20, 0x04	; 4
    23b8:	69 e1       	ldi	r22, 0x19	; 25
    23ba:	f5 01       	movw	r30, r10
    23bc:	80 81       	ld	r24, Z
    23be:	0e 94 ce 05 	call	0xb9c	; 0xb9c <_ZN5myI2C9WriteByteEhhh.constprop.35>
    23c2:	01 e0       	ldi	r16, 0x01	; 1
    23c4:	23 e0       	ldi	r18, 0x03	; 3
    23c6:	45 e0       	ldi	r20, 0x05	; 5
    23c8:	6a e1       	ldi	r22, 0x1A	; 26
    23ca:	f5 01       	movw	r30, r10
    23cc:	80 81       	ld	r24, Z
    23ce:	0e 94 5f 06 	call	0xcbe	; 0xcbe <_ZN5myI2C9WriteBitsEhhhhh.part.13.constprop.34>
    23d2:	03 e0       	ldi	r16, 0x03	; 3
    23d4:	23 e0       	ldi	r18, 0x03	; 3
    23d6:	42 e0       	ldi	r20, 0x02	; 2
    23d8:	6a e1       	ldi	r22, 0x1A	; 26
    23da:	f5 01       	movw	r30, r10
    23dc:	80 81       	ld	r24, Z
    23de:	0e 94 5f 06 	call	0xcbe	; 0xcbe <_ZN5myI2C9WriteBitsEhhhhh.part.13.constprop.34>
    23e2:	22 e0       	ldi	r18, 0x02	; 2
    23e4:	44 e0       	ldi	r20, 0x04	; 4
    23e6:	6b e1       	ldi	r22, 0x1B	; 27
    23e8:	f5 01       	movw	r30, r10
    23ea:	80 81       	ld	r24, Z
    23ec:	0e 94 5f 06 	call	0xcbe	; 0xcbe <_ZN5myI2C9WriteBitsEhhhhh.part.13.constprop.34>
    23f0:	43 e0       	ldi	r20, 0x03	; 3
    23f2:	60 e7       	ldi	r22, 0x70	; 112
    23f4:	f5 01       	movw	r30, r10
    23f6:	80 81       	ld	r24, Z
    23f8:	0e 94 ce 05 	call	0xb9c	; 0xb9c <_ZN5myI2C9WriteByteEhhh.constprop.35>
    23fc:	40 e0       	ldi	r20, 0x00	; 0
    23fe:	61 e7       	ldi	r22, 0x71	; 113
    2400:	f5 01       	movw	r30, r10
    2402:	80 81       	ld	r24, Z
    2404:	0e 94 ce 05 	call	0xb9c	; 0xb9c <_ZN5myI2C9WriteByteEhhh.constprop.35>
    2408:	20 e0       	ldi	r18, 0x00	; 0
    240a:	40 e0       	ldi	r20, 0x00	; 0
    240c:	60 e0       	ldi	r22, 0x00	; 0
    240e:	f5 01       	movw	r30, r10
    2410:	80 81       	ld	r24, Z
    2412:	0e 94 a5 06 	call	0xd4a	; 0xd4a <_ZN5myI2C8WriteBitEhhhh.constprop.26>
    2416:	c1 2c       	mov	r12, r1
    2418:	d1 2c       	mov	r13, r1
    241a:	20 e0       	ldi	r18, 0x00	; 0
    241c:	80 e0       	ldi	r24, 0x00	; 0
    241e:	90 e0       	ldi	r25, 0x00	; 0
    2420:	02 c0       	rjmp	.+4      	; 0x2426 <_ZN5myDMP7InitDMPEv+0x192>
    2422:	82 2f       	mov	r24, r18
    2424:	90 e0       	ldi	r25, 0x00	; 0
    2426:	f6 01       	movw	r30, r12
    2428:	e6 54       	subi	r30, 0x46	; 70
    242a:	ff 4f       	sbci	r31, 0xFF	; 255
    242c:	e4 91       	lpm	r30, Z
    242e:	a1 e0       	ldi	r26, 0x01	; 1
    2430:	b0 e0       	ldi	r27, 0x00	; 0
    2432:	ac 0f       	add	r26, r28
    2434:	bd 1f       	adc	r27, r29
    2436:	a8 0f       	add	r26, r24
    2438:	b9 1f       	adc	r27, r25
    243a:	ec 93       	st	X, r30
    243c:	2f 5f       	subi	r18, 0xFF	; 255
    243e:	ff ef       	ldi	r31, 0xFF	; 255
    2440:	cf 1a       	sub	r12, r31
    2442:	df 0a       	sbc	r13, r31
    2444:	24 30       	cpi	r18, 0x04	; 4
    2446:	68 f3       	brcs	.-38     	; 0x2422 <_ZN5myDMP7InitDMPEv+0x18e>
    2448:	4b 81       	ldd	r20, Y+3	; 0x03
    244a:	50 e0       	ldi	r21, 0x00	; 0
    244c:	ba 01       	movw	r22, r20
    244e:	6e 5f       	subi	r22, 0xFE	; 254
    2450:	7f 4f       	sbci	r23, 0xFF	; 255
    2452:	82 2f       	mov	r24, r18
    2454:	90 e0       	ldi	r25, 0x00	; 0
    2456:	68 17       	cp	r22, r24
    2458:	79 07       	cpc	r23, r25
    245a:	2c f7       	brge	.-54     	; 0x2426 <_ZN5myDMP7InitDMPEv+0x192>
    245c:	e1 2c       	mov	r14, r1
    245e:	0a 81       	ldd	r16, Y+2	; 0x02
    2460:	29 81       	ldd	r18, Y+1	; 0x01
    2462:	be 01       	movw	r22, r28
    2464:	6c 5f       	subi	r22, 0xFC	; 252
    2466:	7f 4f       	sbci	r23, 0xFF	; 255
    2468:	c5 01       	movw	r24, r10
    246a:	0e 94 42 07 	call	0xe84	; 0xe84 <_ZN7MPU605016writeMemoryBlockEPKhjhhhh.constprop.24>
    246e:	20 e0       	ldi	r18, 0x00	; 0
    2470:	80 e0       	ldi	r24, 0x00	; 0
    2472:	90 e0       	ldi	r25, 0x00	; 0
    2474:	f6 01       	movw	r30, r12
    2476:	e6 54       	subi	r30, 0x46	; 70
    2478:	ff 4f       	sbci	r31, 0xFF	; 255
    247a:	e4 91       	lpm	r30, Z
    247c:	a1 e0       	ldi	r26, 0x01	; 1
    247e:	b0 e0       	ldi	r27, 0x00	; 0
    2480:	ac 0f       	add	r26, r28
    2482:	bd 1f       	adc	r27, r29
    2484:	a8 0f       	add	r26, r24
    2486:	b9 1f       	adc	r27, r25
    2488:	ec 93       	st	X, r30
    248a:	2f 5f       	subi	r18, 0xFF	; 255
    248c:	8f ef       	ldi	r24, 0xFF	; 255
    248e:	c8 1a       	sub	r12, r24
    2490:	d8 0a       	sbc	r13, r24
    2492:	24 30       	cpi	r18, 0x04	; 4
    2494:	18 f4       	brcc	.+6      	; 0x249c <_ZN5myDMP7InitDMPEv+0x208>
    2496:	82 2f       	mov	r24, r18
    2498:	90 e0       	ldi	r25, 0x00	; 0
    249a:	ec cf       	rjmp	.-40     	; 0x2474 <_ZN5myDMP7InitDMPEv+0x1e0>
    249c:	4b 81       	ldd	r20, Y+3	; 0x03
    249e:	50 e0       	ldi	r21, 0x00	; 0
    24a0:	ba 01       	movw	r22, r20
    24a2:	6e 5f       	subi	r22, 0xFE	; 254
    24a4:	7f 4f       	sbci	r23, 0xFF	; 255
    24a6:	82 2f       	mov	r24, r18
    24a8:	90 e0       	ldi	r25, 0x00	; 0
    24aa:	68 17       	cp	r22, r24
    24ac:	79 07       	cpc	r23, r25
    24ae:	14 f7       	brge	.-60     	; 0x2474 <_ZN5myDMP7InitDMPEv+0x1e0>
    24b0:	e1 2c       	mov	r14, r1
    24b2:	0a 81       	ldd	r16, Y+2	; 0x02
    24b4:	29 81       	ldd	r18, Y+1	; 0x01
    24b6:	be 01       	movw	r22, r28
    24b8:	6c 5f       	subi	r22, 0xFC	; 252
    24ba:	7f 4f       	sbci	r23, 0xFF	; 255
    24bc:	c5 01       	movw	r24, r10
    24be:	0e 94 42 07 	call	0xe84	; 0xe84 <_ZN7MPU605016writeMemoryBlockEPKhjhhhh.constprop.24>
    24c2:	21 e0       	ldi	r18, 0x01	; 1
    24c4:	42 e0       	ldi	r20, 0x02	; 2
    24c6:	6a e6       	ldi	r22, 0x6A	; 106
    24c8:	f5 01       	movw	r30, r10
    24ca:	80 81       	ld	r24, Z
    24cc:	0e 94 a5 06 	call	0xd4a	; 0xd4a <_ZN5myI2C8WriteBitEhhhh.constprop.26>
    24d0:	c5 01       	movw	r24, r10
    24d2:	0e 94 8a 0f 	call	0x1f14	; 0x1f14 <_ZN7MPU605012getFIFOCountEv>
    24d6:	42 e0       	ldi	r20, 0x02	; 2
    24d8:	6f e1       	ldi	r22, 0x1F	; 31
    24da:	f5 01       	movw	r30, r10
    24dc:	80 81       	ld	r24, Z
    24de:	0e 94 ce 05 	call	0xb9c	; 0xb9c <_ZN5myI2C9WriteByteEhhh.constprop.35>
    24e2:	4c e9       	ldi	r20, 0x9C	; 156
    24e4:	61 e2       	ldi	r22, 0x21	; 33
    24e6:	f5 01       	movw	r30, r10
    24e8:	80 81       	ld	r24, Z
    24ea:	0e 94 ce 05 	call	0xb9c	; 0xb9c <_ZN5myI2C9WriteByteEhhh.constprop.35>
    24ee:	40 e5       	ldi	r20, 0x50	; 80
    24f0:	60 e2       	ldi	r22, 0x20	; 32
    24f2:	f5 01       	movw	r30, r10
    24f4:	80 81       	ld	r24, Z
    24f6:	0e 94 ce 05 	call	0xb9c	; 0xb9c <_ZN5myI2C9WriteByteEhhh.constprop.35>
    24fa:	40 e0       	ldi	r20, 0x00	; 0
    24fc:	62 e2       	ldi	r22, 0x22	; 34
    24fe:	f5 01       	movw	r30, r10
    2500:	80 81       	ld	r24, Z
    2502:	0e 94 ce 05 	call	0xb9c	; 0xb9c <_ZN5myI2C9WriteByteEhhh.constprop.35>
    2506:	21 e0       	ldi	r18, 0x01	; 1
    2508:	42 e0       	ldi	r20, 0x02	; 2
    250a:	6a e6       	ldi	r22, 0x6A	; 106
    250c:	f5 01       	movw	r30, r10
    250e:	80 81       	ld	r24, Z
    2510:	0e 94 a5 06 	call	0xd4a	; 0xd4a <_ZN5myI2C8WriteBitEhhhh.constprop.26>
    2514:	21 e0       	ldi	r18, 0x01	; 1
    2516:	46 e0       	ldi	r20, 0x06	; 6
    2518:	6a e6       	ldi	r22, 0x6A	; 106
    251a:	f5 01       	movw	r30, r10
    251c:	80 81       	ld	r24, Z
    251e:	0e 94 a5 06 	call	0xd4a	; 0xd4a <_ZN5myI2C8WriteBitEhhhh.constprop.26>
    2522:	21 e0       	ldi	r18, 0x01	; 1
    2524:	47 e0       	ldi	r20, 0x07	; 7
    2526:	6a e6       	ldi	r22, 0x6A	; 106
    2528:	f5 01       	movw	r30, r10
    252a:	80 81       	ld	r24, Z
    252c:	0e 94 a5 06 	call	0xd4a	; 0xd4a <_ZN5myI2C8WriteBitEhhhh.constprop.26>
    2530:	21 e0       	ldi	r18, 0x01	; 1
    2532:	43 e0       	ldi	r20, 0x03	; 3
    2534:	6a e6       	ldi	r22, 0x6A	; 106
    2536:	f5 01       	movw	r30, r10
    2538:	80 81       	ld	r24, Z
    253a:	0e 94 a5 06 	call	0xd4a	; 0xd4a <_ZN5myI2C8WriteBitEhhhh.constprop.26>
    253e:	20 e0       	ldi	r18, 0x00	; 0
    2540:	80 e0       	ldi	r24, 0x00	; 0
    2542:	90 e0       	ldi	r25, 0x00	; 0
    2544:	f6 01       	movw	r30, r12
    2546:	e6 54       	subi	r30, 0x46	; 70
    2548:	ff 4f       	sbci	r31, 0xFF	; 255
    254a:	e4 91       	lpm	r30, Z
    254c:	a1 e0       	ldi	r26, 0x01	; 1
    254e:	b0 e0       	ldi	r27, 0x00	; 0
    2550:	ac 0f       	add	r26, r28
    2552:	bd 1f       	adc	r27, r29
    2554:	a8 0f       	add	r26, r24
    2556:	b9 1f       	adc	r27, r25
    2558:	ec 93       	st	X, r30
    255a:	2f 5f       	subi	r18, 0xFF	; 255
    255c:	ff ef       	ldi	r31, 0xFF	; 255
    255e:	cf 1a       	sub	r12, r31
    2560:	df 0a       	sbc	r13, r31
    2562:	24 30       	cpi	r18, 0x04	; 4
    2564:	18 f4       	brcc	.+6      	; 0x256c <_ZN5myDMP7InitDMPEv+0x2d8>
    2566:	82 2f       	mov	r24, r18
    2568:	90 e0       	ldi	r25, 0x00	; 0
    256a:	ec cf       	rjmp	.-40     	; 0x2544 <_ZN5myDMP7InitDMPEv+0x2b0>
    256c:	4b 81       	ldd	r20, Y+3	; 0x03
    256e:	50 e0       	ldi	r21, 0x00	; 0
    2570:	ba 01       	movw	r22, r20
    2572:	6e 5f       	subi	r22, 0xFE	; 254
    2574:	7f 4f       	sbci	r23, 0xFF	; 255
    2576:	82 2f       	mov	r24, r18
    2578:	90 e0       	ldi	r25, 0x00	; 0
    257a:	68 17       	cp	r22, r24
    257c:	79 07       	cpc	r23, r25
    257e:	14 f7       	brge	.-60     	; 0x2544 <_ZN5myDMP7InitDMPEv+0x2b0>
    2580:	e1 2c       	mov	r14, r1
    2582:	0a 81       	ldd	r16, Y+2	; 0x02
    2584:	29 81       	ldd	r18, Y+1	; 0x01
    2586:	be 01       	movw	r22, r28
    2588:	6c 5f       	subi	r22, 0xFC	; 252
    258a:	7f 4f       	sbci	r23, 0xFF	; 255
    258c:	c5 01       	movw	r24, r10
    258e:	0e 94 42 07 	call	0xe84	; 0xe84 <_ZN7MPU605016writeMemoryBlockEPKhjhhhh.constprop.24>
    2592:	20 e0       	ldi	r18, 0x00	; 0
    2594:	80 e0       	ldi	r24, 0x00	; 0
    2596:	90 e0       	ldi	r25, 0x00	; 0
    2598:	f6 01       	movw	r30, r12
    259a:	e6 54       	subi	r30, 0x46	; 70
    259c:	ff 4f       	sbci	r31, 0xFF	; 255
    259e:	e4 91       	lpm	r30, Z
    25a0:	a1 e0       	ldi	r26, 0x01	; 1
    25a2:	b0 e0       	ldi	r27, 0x00	; 0
    25a4:	ac 0f       	add	r26, r28
    25a6:	bd 1f       	adc	r27, r29
    25a8:	a8 0f       	add	r26, r24
    25aa:	b9 1f       	adc	r27, r25
    25ac:	ec 93       	st	X, r30
    25ae:	2f 5f       	subi	r18, 0xFF	; 255
    25b0:	8f ef       	ldi	r24, 0xFF	; 255
    25b2:	c8 1a       	sub	r12, r24
    25b4:	d8 0a       	sbc	r13, r24
    25b6:	24 30       	cpi	r18, 0x04	; 4
    25b8:	18 f4       	brcc	.+6      	; 0x25c0 <_ZN5myDMP7InitDMPEv+0x32c>
    25ba:	82 2f       	mov	r24, r18
    25bc:	90 e0       	ldi	r25, 0x00	; 0
    25be:	ec cf       	rjmp	.-40     	; 0x2598 <_ZN5myDMP7InitDMPEv+0x304>
    25c0:	4b 81       	ldd	r20, Y+3	; 0x03
    25c2:	50 e0       	ldi	r21, 0x00	; 0
    25c4:	ba 01       	movw	r22, r20
    25c6:	6e 5f       	subi	r22, 0xFE	; 254
    25c8:	7f 4f       	sbci	r23, 0xFF	; 255
    25ca:	82 2f       	mov	r24, r18
    25cc:	90 e0       	ldi	r25, 0x00	; 0
    25ce:	68 17       	cp	r22, r24
    25d0:	79 07       	cpc	r23, r25
    25d2:	14 f7       	brge	.-60     	; 0x2598 <_ZN5myDMP7InitDMPEv+0x304>
    25d4:	e1 2c       	mov	r14, r1
    25d6:	0a 81       	ldd	r16, Y+2	; 0x02
    25d8:	29 81       	ldd	r18, Y+1	; 0x01
    25da:	be 01       	movw	r22, r28
    25dc:	6c 5f       	subi	r22, 0xFC	; 252
    25de:	7f 4f       	sbci	r23, 0xFF	; 255
    25e0:	c5 01       	movw	r24, r10
    25e2:	0e 94 42 07 	call	0xe84	; 0xe84 <_ZN7MPU605016writeMemoryBlockEPKhjhhhh.constprop.24>
    25e6:	20 e0       	ldi	r18, 0x00	; 0
    25e8:	80 e0       	ldi	r24, 0x00	; 0
    25ea:	90 e0       	ldi	r25, 0x00	; 0
    25ec:	f6 01       	movw	r30, r12
    25ee:	e6 54       	subi	r30, 0x46	; 70
    25f0:	ff 4f       	sbci	r31, 0xFF	; 255
    25f2:	e4 91       	lpm	r30, Z
    25f4:	a1 e0       	ldi	r26, 0x01	; 1
    25f6:	b0 e0       	ldi	r27, 0x00	; 0
    25f8:	ac 0f       	add	r26, r28
    25fa:	bd 1f       	adc	r27, r29
    25fc:	a8 0f       	add	r26, r24
    25fe:	b9 1f       	adc	r27, r25
    2600:	ec 93       	st	X, r30
    2602:	2f 5f       	subi	r18, 0xFF	; 255
    2604:	9f ef       	ldi	r25, 0xFF	; 255
    2606:	c9 1a       	sub	r12, r25
    2608:	d9 0a       	sbc	r13, r25
    260a:	24 30       	cpi	r18, 0x04	; 4
    260c:	18 f4       	brcc	.+6      	; 0x2614 <_ZN5myDMP7InitDMPEv+0x380>
    260e:	82 2f       	mov	r24, r18
    2610:	90 e0       	ldi	r25, 0x00	; 0
    2612:	ec cf       	rjmp	.-40     	; 0x25ec <_ZN5myDMP7InitDMPEv+0x358>
    2614:	4b 81       	ldd	r20, Y+3	; 0x03
    2616:	50 e0       	ldi	r21, 0x00	; 0
    2618:	ba 01       	movw	r22, r20
    261a:	6e 5f       	subi	r22, 0xFE	; 254
    261c:	7f 4f       	sbci	r23, 0xFF	; 255
    261e:	82 2f       	mov	r24, r18
    2620:	90 e0       	ldi	r25, 0x00	; 0
    2622:	68 17       	cp	r22, r24
    2624:	79 07       	cpc	r23, r25
    2626:	14 f7       	brge	.-60     	; 0x25ec <_ZN5myDMP7InitDMPEv+0x358>
    2628:	e1 2c       	mov	r14, r1
    262a:	0a 81       	ldd	r16, Y+2	; 0x02
    262c:	29 81       	ldd	r18, Y+1	; 0x01
    262e:	be 01       	movw	r22, r28
    2630:	6c 5f       	subi	r22, 0xFC	; 252
    2632:	7f 4f       	sbci	r23, 0xFF	; 255
    2634:	c5 01       	movw	r24, r10
    2636:	0e 94 42 07 	call	0xe84	; 0xe84 <_ZN7MPU605016writeMemoryBlockEPKhjhhhh.constprop.24>
    263a:	c5 01       	movw	r24, r10
    263c:	0e 94 8a 0f 	call	0x1f14	; 0x1f14 <_ZN7MPU605012getFIFOCountEv>
    2640:	03 97       	sbiw	r24, 0x03	; 3
    2642:	d8 f3       	brcs	.-10     	; 0x263a <_ZN5myDMP7InitDMPEv+0x3a6>
    2644:	20 e0       	ldi	r18, 0x00	; 0
    2646:	80 e0       	ldi	r24, 0x00	; 0
    2648:	90 e0       	ldi	r25, 0x00	; 0
    264a:	f6 01       	movw	r30, r12
    264c:	e6 54       	subi	r30, 0x46	; 70
    264e:	ff 4f       	sbci	r31, 0xFF	; 255
    2650:	e4 91       	lpm	r30, Z
    2652:	a1 e0       	ldi	r26, 0x01	; 1
    2654:	b0 e0       	ldi	r27, 0x00	; 0
    2656:	ac 0f       	add	r26, r28
    2658:	bd 1f       	adc	r27, r29
    265a:	a8 0f       	add	r26, r24
    265c:	b9 1f       	adc	r27, r25
    265e:	ec 93       	st	X, r30
    2660:	2f 5f       	subi	r18, 0xFF	; 255
    2662:	ef ef       	ldi	r30, 0xFF	; 255
    2664:	ce 1a       	sub	r12, r30
    2666:	de 0a       	sbc	r13, r30
    2668:	24 30       	cpi	r18, 0x04	; 4
    266a:	18 f4       	brcc	.+6      	; 0x2672 <_ZN5myDMP7InitDMPEv+0x3de>
    266c:	82 2f       	mov	r24, r18
    266e:	90 e0       	ldi	r25, 0x00	; 0
    2670:	ec cf       	rjmp	.-40     	; 0x264a <_ZN5myDMP7InitDMPEv+0x3b6>
    2672:	4b 81       	ldd	r20, Y+3	; 0x03
    2674:	50 e0       	ldi	r21, 0x00	; 0
    2676:	ba 01       	movw	r22, r20
    2678:	6e 5f       	subi	r22, 0xFE	; 254
    267a:	7f 4f       	sbci	r23, 0xFF	; 255
    267c:	82 2f       	mov	r24, r18
    267e:	90 e0       	ldi	r25, 0x00	; 0
    2680:	68 17       	cp	r22, r24
    2682:	79 07       	cpc	r23, r25
    2684:	14 f7       	brge	.-60     	; 0x264a <_ZN5myDMP7InitDMPEv+0x3b6>
    2686:	0a 81       	ldd	r16, Y+2	; 0x02
    2688:	29 81       	ldd	r18, Y+1	; 0x01
    268a:	be 01       	movw	r22, r28
    268c:	6c 5f       	subi	r22, 0xFC	; 252
    268e:	7f 4f       	sbci	r23, 0xFF	; 255
    2690:	c5 01       	movw	r24, r10
    2692:	0e 94 ea 0f 	call	0x1fd4	; 0x1fd4 <_ZN7MPU605015readMemoryBlockEPhjhh>
    2696:	c5 01       	movw	r24, r10
    2698:	0e 94 8a 0f 	call	0x1f14	; 0x1f14 <_ZN7MPU605012getFIFOCountEv>
    269c:	03 97       	sbiw	r24, 0x03	; 3
    269e:	d8 f3       	brcs	.-10     	; 0x2696 <_ZN5myDMP7InitDMPEv+0x402>
    26a0:	f6 01       	movw	r30, r12
    26a2:	e6 54       	subi	r30, 0x46	; 70
    26a4:	ff 4f       	sbci	r31, 0xFF	; 255
    26a6:	20 e0       	ldi	r18, 0x00	; 0
    26a8:	80 e0       	ldi	r24, 0x00	; 0
    26aa:	90 e0       	ldi	r25, 0x00	; 0
    26ac:	34 91       	lpm	r19, Z
    26ae:	a1 e0       	ldi	r26, 0x01	; 1
    26b0:	b0 e0       	ldi	r27, 0x00	; 0
    26b2:	ac 0f       	add	r26, r28
    26b4:	bd 1f       	adc	r27, r29
    26b6:	a8 0f       	add	r26, r24
    26b8:	b9 1f       	adc	r27, r25
    26ba:	3c 93       	st	X, r19
    26bc:	2f 5f       	subi	r18, 0xFF	; 255
    26be:	24 30       	cpi	r18, 0x04	; 4
    26c0:	20 f4       	brcc	.+8      	; 0x26ca <_ZN5myDMP7InitDMPEv+0x436>
    26c2:	82 2f       	mov	r24, r18
    26c4:	90 e0       	ldi	r25, 0x00	; 0
    26c6:	31 96       	adiw	r30, 0x01	; 1
    26c8:	f1 cf       	rjmp	.-30     	; 0x26ac <_ZN5myDMP7InitDMPEv+0x418>
    26ca:	4b 81       	ldd	r20, Y+3	; 0x03
    26cc:	50 e0       	ldi	r21, 0x00	; 0
    26ce:	ba 01       	movw	r22, r20
    26d0:	6e 5f       	subi	r22, 0xFE	; 254
    26d2:	7f 4f       	sbci	r23, 0xFF	; 255
    26d4:	82 2f       	mov	r24, r18
    26d6:	90 e0       	ldi	r25, 0x00	; 0
    26d8:	68 17       	cp	r22, r24
    26da:	79 07       	cpc	r23, r25
    26dc:	a4 f7       	brge	.-24     	; 0x26c6 <_ZN5myDMP7InitDMPEv+0x432>
    26de:	e1 2c       	mov	r14, r1
    26e0:	0a 81       	ldd	r16, Y+2	; 0x02
    26e2:	29 81       	ldd	r18, Y+1	; 0x01
    26e4:	be 01       	movw	r22, r28
    26e6:	6c 5f       	subi	r22, 0xFC	; 252
    26e8:	7f 4f       	sbci	r23, 0xFF	; 255
    26ea:	c5 01       	movw	r24, r10
    26ec:	0e 94 42 07 	call	0xe84	; 0xe84 <_ZN7MPU605016writeMemoryBlockEPKhjhhhh.constprop.24>
    26f0:	20 e0       	ldi	r18, 0x00	; 0
    26f2:	47 e0       	ldi	r20, 0x07	; 7
    26f4:	6a e6       	ldi	r22, 0x6A	; 106
    26f6:	f5 01       	movw	r30, r10
    26f8:	80 81       	ld	r24, Z
    26fa:	0e 94 a5 06 	call	0xd4a	; 0xd4a <_ZN5myI2C8WriteBitEhhhh.constprop.26>
    26fe:	21 e0       	ldi	r18, 0x01	; 1
    2700:	42 e0       	ldi	r20, 0x02	; 2
    2702:	6a e6       	ldi	r22, 0x6A	; 106
    2704:	f5 01       	movw	r30, r10
    2706:	80 81       	ld	r24, Z
    2708:	0e 94 a5 06 	call	0xd4a	; 0xd4a <_ZN5myI2C8WriteBitEhhhh.constprop.26>
    270c:	61 e0       	ldi	r22, 0x01	; 1
    270e:	82 ed       	ldi	r24, 0xD2	; 210
    2710:	92 e0       	ldi	r25, 0x02	; 2
    2712:	0e 94 37 0f 	call	0x1e6e	; 0x1e6e <_ZN5myLCD10HapusBarisEh>
    2716:	8a e2       	ldi	r24, 0x2A	; 42
    2718:	91 e0       	ldi	r25, 0x01	; 1
    271a:	0e 94 94 0a 	call	0x1528	; 0x1528 <_ZN5myLCD9TulisKiriEhPKc.constprop.33>
    271e:	81 e0       	ldi	r24, 0x01	; 1
    2720:	24 ce       	rjmp	.-952    	; 0x236a <_ZN5myDMP7InitDMPEv+0xd6>

00002722 <__vector_7>:
    2722:	1f 92       	push	r1
    2724:	0f 92       	push	r0
    2726:	0f b6       	in	r0, 0x3f	; 63
    2728:	0f 92       	push	r0
    272a:	11 24       	eor	r1, r1
    272c:	8f 93       	push	r24
    272e:	9f 93       	push	r25
    2730:	0e 9b       	sbis	0x01, 6	; 1
    2732:	18 c0       	rjmp	.+48     	; 0x2764 <__vector_7+0x42>
    2734:	b0 9b       	sbis	0x16, 0	; 22
    2736:	18 c0       	rjmp	.+48     	; 0x2768 <__vector_7+0x46>
    2738:	f8 94       	cli
    273a:	80 91 d8 02 	lds	r24, 0x02D8	; 0x8002d8 <roda+0x4>
    273e:	90 91 d9 02 	lds	r25, 0x02D9	; 0x8002d9 <roda+0x5>
    2742:	01 97       	sbiw	r24, 0x01	; 1
    2744:	90 93 d9 02 	sts	0x02D9, r25	; 0x8002d9 <roda+0x5>
    2748:	80 93 d8 02 	sts	0x02D8, r24	; 0x8002d8 <roda+0x4>
    274c:	80 91 d6 02 	lds	r24, 0x02D6	; 0x8002d6 <roda+0x2>
    2750:	8f 5f       	subi	r24, 0xFF	; 255
    2752:	80 93 d6 02 	sts	0x02D6, r24	; 0x8002d6 <roda+0x2>
    2756:	9f 91       	pop	r25
    2758:	8f 91       	pop	r24
    275a:	0f 90       	pop	r0
    275c:	0f be       	out	0x3f, r0	; 63
    275e:	0f 90       	pop	r0
    2760:	1f 90       	pop	r1
    2762:	18 95       	reti
    2764:	b0 9b       	sbis	0x16, 0	; 22
    2766:	e8 cf       	rjmp	.-48     	; 0x2738 <__vector_7+0x16>
    2768:	f8 94       	cli
    276a:	80 91 d8 02 	lds	r24, 0x02D8	; 0x8002d8 <roda+0x4>
    276e:	90 91 d9 02 	lds	r25, 0x02D9	; 0x8002d9 <roda+0x5>
    2772:	01 96       	adiw	r24, 0x01	; 1
    2774:	90 93 d9 02 	sts	0x02D9, r25	; 0x8002d9 <roda+0x5>
    2778:	80 93 d8 02 	sts	0x02D8, r24	; 0x8002d8 <roda+0x4>
    277c:	e7 cf       	rjmp	.-50     	; 0x274c <__vector_7+0x2a>

0000277e <__vector_8>:
    277e:	1f 92       	push	r1
    2780:	0f 92       	push	r0
    2782:	0f b6       	in	r0, 0x3f	; 63
    2784:	0f 92       	push	r0
    2786:	11 24       	eor	r1, r1
    2788:	8f 93       	push	r24
    278a:	9f 93       	push	r25
    278c:	0f 99       	sbic	0x01, 7	; 1
    278e:	18 c0       	rjmp	.+48     	; 0x27c0 <__vector_8+0x42>
    2790:	b2 99       	sbic	0x16, 2	; 22
    2792:	18 c0       	rjmp	.+48     	; 0x27c4 <__vector_8+0x46>
    2794:	f8 94       	cli
    2796:	80 91 da 02 	lds	r24, 0x02DA	; 0x8002da <roda+0x6>
    279a:	90 91 db 02 	lds	r25, 0x02DB	; 0x8002db <roda+0x7>
    279e:	01 96       	adiw	r24, 0x01	; 1
    27a0:	90 93 db 02 	sts	0x02DB, r25	; 0x8002db <roda+0x7>
    27a4:	80 93 da 02 	sts	0x02DA, r24	; 0x8002da <roda+0x6>
    27a8:	80 91 d7 02 	lds	r24, 0x02D7	; 0x8002d7 <roda+0x3>
    27ac:	8f 5f       	subi	r24, 0xFF	; 255
    27ae:	80 93 d7 02 	sts	0x02D7, r24	; 0x8002d7 <roda+0x3>
    27b2:	9f 91       	pop	r25
    27b4:	8f 91       	pop	r24
    27b6:	0f 90       	pop	r0
    27b8:	0f be       	out	0x3f, r0	; 63
    27ba:	0f 90       	pop	r0
    27bc:	1f 90       	pop	r1
    27be:	18 95       	reti
    27c0:	b2 99       	sbic	0x16, 2	; 22
    27c2:	e8 cf       	rjmp	.-48     	; 0x2794 <__vector_8+0x16>
    27c4:	f8 94       	cli
    27c6:	80 91 da 02 	lds	r24, 0x02DA	; 0x8002da <roda+0x6>
    27ca:	90 91 db 02 	lds	r25, 0x02DB	; 0x8002db <roda+0x7>
    27ce:	01 97       	sbiw	r24, 0x01	; 1
    27d0:	90 93 db 02 	sts	0x02DB, r25	; 0x8002db <roda+0x7>
    27d4:	80 93 da 02 	sts	0x02DA, r24	; 0x8002da <roda+0x6>
    27d8:	e7 cf       	rjmp	.-50     	; 0x27a8 <__vector_8+0x2a>

000027da <__vector_28>:
    27da:	1f 92       	push	r1
    27dc:	0f 92       	push	r0
    27de:	0f b6       	in	r0, 0x3f	; 63
    27e0:	0f 92       	push	r0
    27e2:	11 24       	eor	r1, r1
    27e4:	2f 93       	push	r18
    27e6:	8f 93       	push	r24
    27e8:	9f 93       	push	r25
    27ea:	80 91 f3 02 	lds	r24, 0x02F3	; 0x8002f3 <_ZZ11__vector_28E12ServoCounter>
    27ee:	90 91 f4 02 	lds	r25, 0x02F4	; 0x8002f4 <_ZZ11__vector_28E12ServoCounter+0x1>
    27f2:	01 96       	adiw	r24, 0x01	; 1
    27f4:	89 3e       	cpi	r24, 0xE9	; 233
    27f6:	23 e0       	ldi	r18, 0x03	; 3
    27f8:	92 07       	cpc	r25, r18
    27fa:	60 f0       	brcs	.+24     	; 0x2814 <__vector_28+0x3a>
    27fc:	10 92 f4 02 	sts	0x02F4, r1	; 0x8002f4 <_ZZ11__vector_28E12ServoCounter+0x1>
    2800:	10 92 f3 02 	sts	0x02F3, r1	; 0x8002f3 <_ZZ11__vector_28E12ServoCounter>
    2804:	9f 91       	pop	r25
    2806:	8f 91       	pop	r24
    2808:	2f 91       	pop	r18
    280a:	0f 90       	pop	r0
    280c:	0f be       	out	0x3f, r0	; 63
    280e:	0f 90       	pop	r0
    2810:	1f 90       	pop	r1
    2812:	18 95       	reti
    2814:	90 93 f4 02 	sts	0x02F4, r25	; 0x8002f4 <_ZZ11__vector_28E12ServoCounter+0x1>
    2818:	80 93 f3 02 	sts	0x02F3, r24	; 0x8002f3 <_ZZ11__vector_28E12ServoCounter>
    281c:	9f 91       	pop	r25
    281e:	8f 91       	pop	r24
    2820:	2f 91       	pop	r18
    2822:	0f 90       	pop	r0
    2824:	0f be       	out	0x3f, r0	; 63
    2826:	0f 90       	pop	r0
    2828:	1f 90       	pop	r1
    282a:	18 95       	reti

0000282c <__vector_11>:
    282c:	1f 92       	push	r1
    282e:	0f 92       	push	r0
    2830:	0f b6       	in	r0, 0x3f	; 63
    2832:	0f 92       	push	r0
    2834:	11 24       	eor	r1, r1
    2836:	8f 93       	push	r24
    2838:	80 91 01 01 	lds	r24, 0x0101	; 0x800101 <_ZZ11__vector_11E12ServoCounter>
    283c:	81 50       	subi	r24, 0x01	; 1
    283e:	80 93 01 01 	sts	0x0101, r24	; 0x800101 <_ZZ11__vector_11E12ServoCounter>
    2842:	88 23       	and	r24, r24
    2844:	49 f0       	breq	.+18     	; 0x2858 <__vector_11+0x2c>
    2846:	82 e0       	ldi	r24, 0x02	; 2
    2848:	8f bd       	out	0x2f, r24	; 47
    284a:	78 94       	sei
    284c:	8f 91       	pop	r24
    284e:	0f 90       	pop	r0
    2850:	0f be       	out	0x3f, r0	; 63
    2852:	0f 90       	pop	r0
    2854:	1f 90       	pop	r1
    2856:	18 95       	reti
    2858:	82 e0       	ldi	r24, 0x02	; 2
    285a:	80 93 01 01 	sts	0x0101, r24	; 0x800101 <_ZZ11__vector_11E12ServoCounter>
    285e:	8a ea       	ldi	r24, 0xAA	; 170
    2860:	8f bd       	out	0x2f, r24	; 47
    2862:	78 94       	sei
    2864:	8f 91       	pop	r24
    2866:	0f 90       	pop	r0
    2868:	0f be       	out	0x3f, r0	; 63
    286a:	0f 90       	pop	r0
    286c:	1f 90       	pop	r1
    286e:	18 95       	reti

00002870 <__vector_14>:
    2870:	1f 92       	push	r1
    2872:	0f 92       	push	r0
    2874:	0f b6       	in	r0, 0x3f	; 63
    2876:	0f 92       	push	r0
    2878:	11 24       	eor	r1, r1
    287a:	0b b6       	in	r0, 0x3b	; 59
    287c:	0f 92       	push	r0
    287e:	0f 93       	push	r16
    2880:	1f 93       	push	r17
    2882:	2f 93       	push	r18
    2884:	3f 93       	push	r19
    2886:	4f 93       	push	r20
    2888:	5f 93       	push	r21
    288a:	6f 93       	push	r22
    288c:	7f 93       	push	r23
    288e:	8f 93       	push	r24
    2890:	9f 93       	push	r25
    2892:	af 93       	push	r26
    2894:	bf 93       	push	r27
    2896:	cf 93       	push	r28
    2898:	ef 93       	push	r30
    289a:	ff 93       	push	r31
    289c:	78 94       	sei
    289e:	23 fe       	sbrs	r2, 3
    28a0:	15 c0       	rjmp	.+42     	; 0x28cc <__vector_14+0x5c>
    28a2:	89 e8       	ldi	r24, 0x89	; 137
    28a4:	92 e0       	ldi	r25, 0x02	; 2
    28a6:	0e 94 8a 0f 	call	0x1f14	; 0x1f14 <_ZN7MPU605012getFIFOCountEv>
    28aa:	8c 01       	movw	r16, r24
    28ac:	c3 e1       	ldi	r28, 0x13	; 19
    28ae:	8c 31       	cpi	r24, 0x1C	; 28
    28b0:	18 f1       	brcs	.+70     	; 0x28f8 <__vector_14+0x88>
    28b2:	8c 31       	cpi	r24, 0x1C	; 28
    28b4:	51 f1       	breq	.+84     	; 0x290a <__vector_14+0x9a>
    28b6:	8d 31       	cpi	r24, 0x1D	; 29
    28b8:	08 f0       	brcs	.+2      	; 0x28bc <__vector_14+0x4c>
    28ba:	52 c0       	rjmp	.+164    	; 0x2960 <__vector_14+0xf0>
    28bc:	11 27       	eor	r17, r17
    28be:	10 93 81 02 	sts	0x0281, r17	; 0x800281 <__data_end+0x1>
    28c2:	00 93 80 02 	sts	0x0280, r16	; 0x800280 <__data_end>
    28c6:	ac 9a       	sbi	0x15, 4	; 21
    28c8:	33 fc       	sbrc	r3, 3
    28ca:	45 c0       	rjmp	.+138    	; 0x2956 <__vector_14+0xe6>
    28cc:	ff 91       	pop	r31
    28ce:	ef 91       	pop	r30
    28d0:	cf 91       	pop	r28
    28d2:	bf 91       	pop	r27
    28d4:	af 91       	pop	r26
    28d6:	9f 91       	pop	r25
    28d8:	8f 91       	pop	r24
    28da:	7f 91       	pop	r23
    28dc:	6f 91       	pop	r22
    28de:	5f 91       	pop	r21
    28e0:	4f 91       	pop	r20
    28e2:	3f 91       	pop	r19
    28e4:	2f 91       	pop	r18
    28e6:	1f 91       	pop	r17
    28e8:	0f 91       	pop	r16
    28ea:	0f 90       	pop	r0
    28ec:	0b be       	out	0x3b, r0	; 59
    28ee:	0f 90       	pop	r0
    28f0:	0f be       	out	0x3f, r0	; 63
    28f2:	0f 90       	pop	r0
    28f4:	1f 90       	pop	r1
    28f6:	18 95       	reti
    28f8:	89 e8       	ldi	r24, 0x89	; 137
    28fa:	92 e0       	ldi	r25, 0x02	; 2
    28fc:	0e 94 8a 0f 	call	0x1f14	; 0x1f14 <_ZN7MPU605012getFIFOCountEv>
    2900:	8c 01       	movw	r16, r24
    2902:	c1 50       	subi	r28, 0x01	; 1
    2904:	a1 f6       	brne	.-88     	; 0x28ae <__vector_14+0x3e>
    2906:	8c 31       	cpi	r24, 0x1C	; 28
    2908:	b1 f6       	brne	.-84     	; 0x28b6 <__vector_14+0x46>
    290a:	28 e9       	ldi	r18, 0x98	; 152
    290c:	32 e0       	ldi	r19, 0x02	; 2
    290e:	4c e1       	ldi	r20, 0x1C	; 28
    2910:	64 e7       	ldi	r22, 0x74	; 116
    2912:	80 91 89 02 	lds	r24, 0x0289	; 0x800289 <imu>
    2916:	0e 94 d2 06 	call	0xda4	; 0xda4 <_ZN5myI2C9ReadBytesEhhhPh.part.10.constprop.29>
    291a:	89 e8       	ldi	r24, 0x89	; 137
    291c:	92 e0       	ldi	r25, 0x02	; 2
    291e:	0e 94 71 10 	call	0x20e2	; 0x20e2 <_ZN5myDMP21dmpGetQuaternion16BitEv>
    2922:	80 91 a8 02 	lds	r24, 0x02A8	; 0x8002a8 <imu+0x1f>
    2926:	90 91 a9 02 	lds	r25, 0x02A9	; 0x8002a9 <imu+0x20>
    292a:	90 93 b6 02 	sts	0x02B6, r25	; 0x8002b6 <imu+0x2d>
    292e:	80 93 b7 02 	sts	0x02B7, r24	; 0x8002b7 <imu+0x2e>
    2932:	80 91 ac 02 	lds	r24, 0x02AC	; 0x8002ac <imu+0x23>
    2936:	90 91 ad 02 	lds	r25, 0x02AD	; 0x8002ad <imu+0x24>
    293a:	90 93 b8 02 	sts	0x02B8, r25	; 0x8002b8 <imu+0x2f>
    293e:	80 93 b9 02 	sts	0x02B9, r24	; 0x8002b9 <imu+0x30>
    2942:	80 91 b0 02 	lds	r24, 0x02B0	; 0x8002b0 <imu+0x27>
    2946:	90 91 b1 02 	lds	r25, 0x02B1	; 0x8002b1 <imu+0x28>
    294a:	90 93 ba 02 	sts	0x02BA, r25	; 0x8002ba <imu+0x31>
    294e:	80 93 bb 02 	sts	0x02BB, r24	; 0x8002bb <imu+0x32>
    2952:	ac 98       	cbi	0x15, 4	; 21
    2954:	b9 cf       	rjmp	.-142    	; 0x28c8 <__vector_14+0x58>
    2956:	86 e8       	ldi	r24, 0x86	; 134
    2958:	92 e0       	ldi	r25, 0x02	; 2
    295a:	0e 94 48 0b 	call	0x1690	; 0x1690 <_ZN11myBalancing7ControlEv.part.20>
    295e:	b6 cf       	rjmp	.-148    	; 0x28cc <__vector_14+0x5c>
    2960:	21 e0       	ldi	r18, 0x01	; 1
    2962:	42 e0       	ldi	r20, 0x02	; 2
    2964:	6a e6       	ldi	r22, 0x6A	; 106
    2966:	80 91 89 02 	lds	r24, 0x0289	; 0x800289 <imu>
    296a:	0e 94 a5 06 	call	0xd4a	; 0xd4a <_ZN5myI2C8WriteBitEhhhh.constprop.26>
    296e:	a6 cf       	rjmp	.-180    	; 0x28bc <__vector_14+0x4c>

00002970 <__vector_9>:
    2970:	1f 92       	push	r1
    2972:	0f 92       	push	r0
    2974:	0f b6       	in	r0, 0x3f	; 63
    2976:	0f 92       	push	r0
    2978:	11 24       	eor	r1, r1
    297a:	2f 93       	push	r18
    297c:	8f 93       	push	r24
    297e:	9f 93       	push	r25
    2980:	78 94       	sei
    2982:	80 91 00 01 	lds	r24, 0x0100	; 0x800100 <__data_start>
    2986:	81 50       	subi	r24, 0x01	; 1
    2988:	80 93 00 01 	sts	0x0100, r24	; 0x800100 <__data_start>
    298c:	81 11       	cpse	r24, r1
    298e:	0b c0       	rjmp	.+22     	; 0x29a6 <__vector_9+0x36>
    2990:	8a e0       	ldi	r24, 0x0A	; 10
    2992:	80 93 00 01 	sts	0x0100, r24	; 0x800100 <__data_start>
    2996:	9f 91       	pop	r25
    2998:	8f 91       	pop	r24
    299a:	2f 91       	pop	r18
    299c:	0f 90       	pop	r0
    299e:	0f be       	out	0x3f, r0	; 63
    29a0:	0f 90       	pop	r0
    29a2:	1f 90       	pop	r1
    29a4:	18 95       	reti
    29a6:	84 30       	cpi	r24, 0x04	; 4
    29a8:	a1 f0       	breq	.+40     	; 0x29d2 <__vector_9+0x62>
    29aa:	89 30       	cpi	r24, 0x09	; 9
    29ac:	a1 f7       	brne	.-24     	; 0x2996 <__vector_9+0x26>
    29ae:	80 91 d6 02 	lds	r24, 0x02D6	; 0x8002d6 <roda+0x2>
    29b2:	90 91 f2 02 	lds	r25, 0x02F2	; 0x8002f2 <_ZZ10__vector_9E11_dCounterKi>
    29b6:	28 2f       	mov	r18, r24
    29b8:	29 1b       	sub	r18, r25
    29ba:	20 93 d4 02 	sts	0x02D4, r18	; 0x8002d4 <roda>
    29be:	80 93 f2 02 	sts	0x02F2, r24	; 0x8002f2 <_ZZ10__vector_9E11_dCounterKi>
    29c2:	9f 91       	pop	r25
    29c4:	8f 91       	pop	r24
    29c6:	2f 91       	pop	r18
    29c8:	0f 90       	pop	r0
    29ca:	0f be       	out	0x3f, r0	; 63
    29cc:	0f 90       	pop	r0
    29ce:	1f 90       	pop	r1
    29d0:	18 95       	reti
    29d2:	80 91 d7 02 	lds	r24, 0x02D7	; 0x8002d7 <roda+0x3>
    29d6:	90 91 f1 02 	lds	r25, 0x02F1	; 0x8002f1 <_ZZ10__vector_9E11_dCounterKa>
    29da:	28 2f       	mov	r18, r24
    29dc:	29 1b       	sub	r18, r25
    29de:	20 93 d5 02 	sts	0x02D5, r18	; 0x8002d5 <roda+0x1>
    29e2:	80 93 f1 02 	sts	0x02F1, r24	; 0x8002f1 <_ZZ10__vector_9E11_dCounterKa>
    29e6:	9f 91       	pop	r25
    29e8:	8f 91       	pop	r24
    29ea:	2f 91       	pop	r18
    29ec:	0f 90       	pop	r0
    29ee:	0f be       	out	0x3f, r0	; 63
    29f0:	0f 90       	pop	r0
    29f2:	1f 90       	pop	r1
    29f4:	18 95       	reti

000029f6 <_Z10SystemInitv>:
    29f6:	ef 92       	push	r14
    29f8:	ff 92       	push	r15
    29fa:	0f 93       	push	r16
    29fc:	1f 93       	push	r17
    29fe:	cf 93       	push	r28
    2a00:	df 93       	push	r29
    2a02:	1f 92       	push	r1
    2a04:	cd b7       	in	r28, 0x3d	; 61
    2a06:	de b7       	in	r29, 0x3e	; 62
    2a08:	e8 94       	clt
    2a0a:	20 f8       	bld	r2, 0
    2a0c:	e8 94       	clt
    2a0e:	21 f8       	bld	r2, 1
    2a10:	e8 94       	clt
    2a12:	22 f8       	bld	r2, 2
    2a14:	e8 94       	clt
    2a16:	23 f8       	bld	r2, 3
    2a18:	e8 94       	clt
    2a1a:	24 f8       	bld	r2, 4
    2a1c:	1b ba       	out	0x1b, r1	; 27
    2a1e:	9f ef       	ldi	r25, 0xFF	; 255
    2a20:	9a bb       	out	0x1a, r25	; 26
    2a22:	85 e0       	ldi	r24, 0x05	; 5
    2a24:	88 bb       	out	0x18, r24	; 24
    2a26:	88 ef       	ldi	r24, 0xF8	; 248
    2a28:	87 bb       	out	0x17, r24	; 23
    2a2a:	95 bb       	out	0x15, r25	; 21
    2a2c:	80 ef       	ldi	r24, 0xF0	; 240
    2a2e:	84 bb       	out	0x14, r24	; 20
    2a30:	12 ba       	out	0x12, r1	; 18
    2a32:	81 bb       	out	0x11, r24	; 17
    2a34:	80 ec       	ldi	r24, 0xC0	; 192
    2a36:	83 b9       	out	0x03, r24	; 3
    2a38:	2c e3       	ldi	r18, 0x3C	; 60
    2a3a:	22 b9       	out	0x02, r18	; 2
    2a3c:	10 92 62 00 	sts	0x0062, r1	; 0x800062 <__TEXT_REGION_LENGTH__+0x7e0062>
    2a40:	10 92 61 00 	sts	0x0061, r1	; 0x800061 <__TEXT_REGION_LENGTH__+0x7e0061>
    2a44:	90 93 65 00 	sts	0x0065, r25	; 0x800065 <__TEXT_REGION_LENGTH__+0x7e0065>
    2a48:	10 92 64 00 	sts	0x0064, r1	; 0x800064 <__TEXT_REGION_LENGTH__+0x7e0064>
    2a4c:	10 be       	out	0x30, r1	; 48
    2a4e:	13 be       	out	0x33, r1	; 51
    2a50:	12 be       	out	0x32, r1	; 50
    2a52:	11 be       	out	0x31, r1	; 49
    2a54:	9a ea       	ldi	r25, 0xAA	; 170
    2a56:	9f bd       	out	0x2f, r25	; 47
    2a58:	92 e1       	ldi	r25, 0x12	; 18
    2a5a:	9e bd       	out	0x2e, r25	; 46
    2a5c:	1d bc       	out	0x2d, r1	; 45
    2a5e:	1c bc       	out	0x2c, r1	; 44
    2a60:	27 e8       	ldi	r18, 0x87	; 135
    2a62:	33 e1       	ldi	r19, 0x13	; 19
    2a64:	37 bd       	out	0x27, r19	; 39
    2a66:	26 bd       	out	0x26, r18	; 38
    2a68:	9b e0       	ldi	r25, 0x0B	; 11
    2a6a:	95 bd       	out	0x25, r25	; 37
    2a6c:	14 bc       	out	0x24, r1	; 36
    2a6e:	99 ef       	ldi	r25, 0xF9	; 249
    2a70:	93 bd       	out	0x23, r25	; 35
    2a72:	92 ef       	ldi	r25, 0xF2	; 242
    2a74:	90 93 8b 00 	sts	0x008B, r25	; 0x80008b <__TEXT_REGION_LENGTH__+0x7e008b>
    2a78:	91 e1       	ldi	r25, 0x11	; 17
    2a7a:	90 93 8a 00 	sts	0x008A, r25	; 0x80008a <__TEXT_REGION_LENGTH__+0x7e008a>
    2a7e:	10 92 89 00 	sts	0x0089, r1	; 0x800089 <__TEXT_REGION_LENGTH__+0x7e0089>
    2a82:	10 92 88 00 	sts	0x0088, r1	; 0x800088 <__TEXT_REGION_LENGTH__+0x7e0088>
    2a86:	91 e0       	ldi	r25, 0x01	; 1
    2a88:	90 93 81 00 	sts	0x0081, r25	; 0x800081 <__TEXT_REGION_LENGTH__+0x7e0081>
    2a8c:	90 e9       	ldi	r25, 0x90	; 144
    2a8e:	90 93 80 00 	sts	0x0080, r25	; 0x800080 <__TEXT_REGION_LENGTH__+0x7e0080>
    2a92:	10 92 87 00 	sts	0x0087, r1	; 0x800087 <__TEXT_REGION_LENGTH__+0x7e0087>
    2a96:	10 92 86 00 	sts	0x0086, r1	; 0x800086 <__TEXT_REGION_LENGTH__+0x7e0086>
    2a9a:	10 92 85 00 	sts	0x0085, r1	; 0x800085 <__TEXT_REGION_LENGTH__+0x7e0085>
    2a9e:	10 92 84 00 	sts	0x0084, r1	; 0x800084 <__TEXT_REGION_LENGTH__+0x7e0084>
    2aa2:	10 92 83 00 	sts	0x0083, r1	; 0x800083 <__TEXT_REGION_LENGTH__+0x7e0083>
    2aa6:	98 ec       	ldi	r25, 0xC8	; 200
    2aa8:	90 93 82 00 	sts	0x0082, r25	; 0x800082 <__TEXT_REGION_LENGTH__+0x7e0082>
    2aac:	10 92 6a 00 	sts	0x006A, r1	; 0x80006a <__TEXT_REGION_LENGTH__+0x7e006a>
    2ab0:	90 e5       	ldi	r25, 0x50	; 80
    2ab2:	9a bf       	out	0x3a, r25	; 58
    2ab4:	89 bf       	out	0x39, r24	; 57
    2ab6:	88 bf       	out	0x38, r24	; 56
    2ab8:	84 ea       	ldi	r24, 0xA4	; 164
    2aba:	87 bf       	out	0x37, r24	; 55
    2abc:	82 e0       	ldi	r24, 0x02	; 2
    2abe:	80 93 7d 00 	sts	0x007D, r24	; 0x80007d <__TEXT_REGION_LENGTH__+0x7e007d>
    2ac2:	10 92 9b 00 	sts	0x009B, r1	; 0x80009b <__TEXT_REGION_LENGTH__+0x7e009b>
    2ac6:	88 e9       	ldi	r24, 0x98	; 152
    2ac8:	80 93 9a 00 	sts	0x009A, r24	; 0x80009a <__TEXT_REGION_LENGTH__+0x7e009a>
    2acc:	86 e0       	ldi	r24, 0x06	; 6
    2ace:	80 93 9d 00 	sts	0x009D, r24	; 0x80009d <__TEXT_REGION_LENGTH__+0x7e009d>
    2ad2:	10 92 98 00 	sts	0x0098, r1	; 0x800098 <__TEXT_REGION_LENGTH__+0x7e0098>
    2ad6:	87 e6       	ldi	r24, 0x67	; 103
    2ad8:	80 93 99 00 	sts	0x0099, r24	; 0x800099 <__TEXT_REGION_LENGTH__+0x7e0099>
    2adc:	80 e8       	ldi	r24, 0x80	; 128
    2ade:	88 b9       	out	0x08, r24	; 8
    2ae0:	10 bc       	out	0x20, r1	; 32
    2ae2:	f8 94       	cli
    2ae4:	82 ed       	ldi	r24, 0xD2	; 210
    2ae6:	92 e0       	ldi	r25, 0x02	; 2
    2ae8:	0e 94 e2 0e 	call	0x1dc4	; 0x1dc4 <_ZN5myLCD4InitEv>
    2aec:	68 94       	set
    2aee:	20 f8       	bld	r2, 0
    2af0:	db 9a       	sbi	0x1b, 3	; 27
    2af2:	80 e8       	ldi	r24, 0x80	; 128
    2af4:	0e 94 ca 04 	call	0x994	; 0x994 <_ZN5myLCD8PerintahEh.constprop.56>
    2af8:	0b e2       	ldi	r16, 0x2B	; 43
    2afa:	12 e0       	ldi	r17, 0x02	; 2
    2afc:	84 e5       	ldi	r24, 0x54	; 84
    2afe:	0e 94 a1 04 	call	0x942	; 0x942 <_ZN5myLCD4DataEh.constprop.52>
    2b02:	f8 01       	movw	r30, r16
    2b04:	81 91       	ld	r24, Z+
    2b06:	8f 01       	movw	r16, r30
    2b08:	81 11       	cpse	r24, r1
    2b0a:	f9 cf       	rjmp	.-14     	; 0x2afe <_Z10SystemInitv+0x108>
    2b0c:	80 ec       	ldi	r24, 0xC0	; 192
    2b0e:	0e 94 ca 04 	call	0x994	; 0x994 <_ZN5myLCD8PerintahEh.constprop.56>
    2b12:	22 fc       	sbrc	r2, 2
    2b14:	ff cf       	rjmp	.-2      	; 0x2b14 <_Z10SystemInitv+0x11e>
    2b16:	68 94       	set
    2b18:	22 f8       	bld	r2, 2
    2b1a:	80 e2       	ldi	r24, 0x20	; 32
    2b1c:	87 b9       	out	0x07, r24	; 7
    2b1e:	f5 e3       	ldi	r31, 0x35	; 53
    2b20:	fa 95       	dec	r31
    2b22:	f1 f7       	brne	.-4      	; 0x2b20 <_Z10SystemInitv+0x12a>
    2b24:	00 00       	nop
    2b26:	36 9a       	sbi	0x06, 6	; 6
    2b28:	34 9b       	sbis	0x06, 4	; 6
    2b2a:	fe cf       	rjmp	.-4      	; 0x2b28 <_Z10SystemInitv+0x132>
    2b2c:	34 9a       	sbi	0x06, 4	; 6
    2b2e:	e8 94       	clt
    2b30:	22 f8       	bld	r2, 2
    2b32:	25 b1       	in	r18, 0x05	; 5
    2b34:	8e e5       	ldi	r24, 0x5E	; 94
    2b36:	28 9f       	mul	r18, r24
    2b38:	90 01       	movw	r18, r0
    2b3a:	11 24       	eor	r1, r1
    2b3c:	c9 01       	movw	r24, r18
    2b3e:	63 e1       	ldi	r22, 0x13	; 19
    2b40:	70 e0       	ldi	r23, 0x00	; 0
    2b42:	0e 94 b7 19 	call	0x336e	; 0x336e <__divmodhi4>
    2b46:	7b 01       	movw	r14, r22
    2b48:	c9 01       	movw	r24, r18
    2b4a:	6c e6       	ldi	r22, 0x6C	; 108
    2b4c:	77 e0       	ldi	r23, 0x07	; 7
    2b4e:	0e 94 b7 19 	call	0x336e	; 0x336e <__divmodhi4>
    2b52:	80 e3       	ldi	r24, 0x30	; 48
    2b54:	86 0f       	add	r24, r22
    2b56:	0e 94 a1 04 	call	0x942	; 0x942 <_ZN5myLCD4DataEh.constprop.52>
    2b5a:	8e e2       	ldi	r24, 0x2E	; 46
    2b5c:	0e 94 a1 04 	call	0x942	; 0x942 <_ZN5myLCD4DataEh.constprop.52>
    2b60:	c7 01       	movw	r24, r14
    2b62:	64 e6       	ldi	r22, 0x64	; 100
    2b64:	70 e0       	ldi	r23, 0x00	; 0
    2b66:	0e 94 b7 19 	call	0x336e	; 0x336e <__divmodhi4>
    2b6a:	0a e0       	ldi	r16, 0x0A	; 10
    2b6c:	10 e0       	ldi	r17, 0x00	; 0
    2b6e:	b8 01       	movw	r22, r16
    2b70:	0e 94 b7 19 	call	0x336e	; 0x336e <__divmodhi4>
    2b74:	80 e3       	ldi	r24, 0x30	; 48
    2b76:	86 0f       	add	r24, r22
    2b78:	0e 94 a1 04 	call	0x942	; 0x942 <_ZN5myLCD4DataEh.constprop.52>
    2b7c:	c7 01       	movw	r24, r14
    2b7e:	b8 01       	movw	r22, r16
    2b80:	0e 94 b7 19 	call	0x336e	; 0x336e <__divmodhi4>
    2b84:	80 5d       	subi	r24, 0xD0	; 208
    2b86:	0e 94 a1 04 	call	0x942	; 0x942 <_ZN5myLCD4DataEh.constprop.52>
    2b8a:	0c e3       	ldi	r16, 0x3C	; 60
    2b8c:	12 e0       	ldi	r17, 0x02	; 2
    2b8e:	80 e2       	ldi	r24, 0x20	; 32
    2b90:	0e 94 a1 04 	call	0x942	; 0x942 <_ZN5myLCD4DataEh.constprop.52>
    2b94:	f8 01       	movw	r30, r16
    2b96:	81 91       	ld	r24, Z+
    2b98:	8f 01       	movw	r16, r30
    2b9a:	81 11       	cpse	r24, r1
    2b9c:	f9 cf       	rjmp	.-14     	; 0x2b90 <_Z10SystemInitv+0x19a>
    2b9e:	83 ed       	ldi	r24, 0xD3	; 211
    2ba0:	92 e0       	ldi	r25, 0x02	; 2
    2ba2:	0e 94 43 0d 	call	0x1a86	; 0x1a86 <_ZN8myBuzzer5Nada1Ev>
    2ba6:	9f ef       	ldi	r25, 0xFF	; 255
    2ba8:	e3 ec       	ldi	r30, 0xC3	; 195
    2baa:	f9 e0       	ldi	r31, 0x09	; 9
    2bac:	91 50       	subi	r25, 0x01	; 1
    2bae:	e0 40       	sbci	r30, 0x00	; 0
    2bb0:	f0 40       	sbci	r31, 0x00	; 0
    2bb2:	e1 f7       	brne	.-8      	; 0x2bac <_Z10SystemInitv+0x1b6>
    2bb4:	00 c0       	rjmp	.+0      	; 0x2bb6 <_Z10SystemInitv+0x1c0>
    2bb6:	00 00       	nop
    2bb8:	0e 94 63 05 	call	0xac6	; 0xac6 <_ZN5myADC9CekBatereEv.constprop.30>
    2bbc:	e8 94       	clt
    2bbe:	23 f8       	bld	r2, 3
    2bc0:	10 92 71 00 	sts	0x0071, r1	; 0x800071 <__TEXT_REGION_LENGTH__+0x7e0071>
    2bc4:	8c e0       	ldi	r24, 0x0C	; 12
    2bc6:	80 93 70 00 	sts	0x0070, r24	; 0x800070 <__TEXT_REGION_LENGTH__+0x7e0070>
    2bca:	80 e8       	ldi	r24, 0x80	; 128
    2bcc:	0e 94 ca 04 	call	0x994	; 0x994 <_ZN5myLCD8PerintahEh.constprop.56>
    2bd0:	03 e5       	ldi	r16, 0x53	; 83
    2bd2:	12 e0       	ldi	r17, 0x02	; 2
    2bd4:	8d e4       	ldi	r24, 0x4D	; 77
    2bd6:	0e 94 a1 04 	call	0x942	; 0x942 <_ZN5myLCD4DataEh.constprop.52>
    2bda:	f8 01       	movw	r30, r16
    2bdc:	81 91       	ld	r24, Z+
    2bde:	8f 01       	movw	r16, r30
    2be0:	81 11       	cpse	r24, r1
    2be2:	f9 cf       	rjmp	.-14     	; 0x2bd6 <_Z10SystemInitv+0x1e0>
    2be4:	ae 01       	movw	r20, r28
    2be6:	4f 5f       	subi	r20, 0xFF	; 255
    2be8:	5f 4f       	sbci	r21, 0xFF	; 255
    2bea:	65 e7       	ldi	r22, 0x75	; 117
    2bec:	80 91 89 02 	lds	r24, 0x0289	; 0x800289 <imu>
    2bf0:	0e 94 06 06 	call	0xc0c	; 0xc0c <_ZN5myI2C8ReadByteEhhPh.constprop.36>
    2bf4:	81 11       	cpse	r24, r1
    2bf6:	45 c0       	rjmp	.+138    	; 0x2c82 <_Z10SystemInitv+0x28c>
    2bf8:	90 91 8a 02 	lds	r25, 0x028A	; 0x80028a <imu+0x1>
    2bfc:	94 33       	cpi	r25, 0x34	; 52
    2bfe:	09 f4       	brne	.+2      	; 0x2c02 <_Z10SystemInitv+0x20c>
    2c00:	4b c0       	rjmp	.+150    	; 0x2c98 <_Z10SystemInitv+0x2a2>
    2c02:	80 e8       	ldi	r24, 0x80	; 128
    2c04:	0e 94 ca 04 	call	0x994	; 0x994 <_ZN5myLCD8PerintahEh.constprop.56>
    2c08:	09 e1       	ldi	r16, 0x19	; 25
    2c0a:	12 e0       	ldi	r17, 0x02	; 2
    2c0c:	f8 01       	movw	r30, r16
    2c0e:	81 91       	ld	r24, Z+
    2c10:	8f 01       	movw	r16, r30
    2c12:	0e 94 a1 04 	call	0x942	; 0x942 <_ZN5myLCD4DataEh.constprop.52>
    2c16:	ff e7       	ldi	r31, 0x7F	; 127
    2c18:	28 e3       	ldi	r18, 0x38	; 56
    2c1a:	81 e0       	ldi	r24, 0x01	; 1
    2c1c:	f1 50       	subi	r31, 0x01	; 1
    2c1e:	20 40       	sbci	r18, 0x00	; 0
    2c20:	80 40       	sbci	r24, 0x00	; 0
    2c22:	e1 f7       	brne	.-8      	; 0x2c1c <_Z10SystemInitv+0x226>
    2c24:	00 c0       	rjmp	.+0      	; 0x2c26 <_Z10SystemInitv+0x230>
    2c26:	00 00       	nop
    2c28:	92 e0       	ldi	r25, 0x02	; 2
    2c2a:	09 32       	cpi	r16, 0x29	; 41
    2c2c:	19 07       	cpc	r17, r25
    2c2e:	71 f7       	brne	.-36     	; 0x2c0c <_Z10SystemInitv+0x216>
    2c30:	80 ec       	ldi	r24, 0xC0	; 192
    2c32:	0e 94 ca 04 	call	0x994	; 0x994 <_ZN5myLCD8PerintahEh.constprop.56>
    2c36:	08 e0       	ldi	r16, 0x08	; 8
    2c38:	12 e0       	ldi	r17, 0x02	; 2
    2c3a:	88 e1       	ldi	r24, 0x18	; 24
    2c3c:	e8 2e       	mov	r14, r24
    2c3e:	82 e0       	ldi	r24, 0x02	; 2
    2c40:	f8 2e       	mov	r15, r24
    2c42:	f8 01       	movw	r30, r16
    2c44:	81 91       	ld	r24, Z+
    2c46:	8f 01       	movw	r16, r30
    2c48:	0e 94 a1 04 	call	0x942	; 0x942 <_ZN5myLCD4DataEh.constprop.52>
    2c4c:	ff e7       	ldi	r31, 0x7F	; 127
    2c4e:	28 e3       	ldi	r18, 0x38	; 56
    2c50:	81 e0       	ldi	r24, 0x01	; 1
    2c52:	f1 50       	subi	r31, 0x01	; 1
    2c54:	20 40       	sbci	r18, 0x00	; 0
    2c56:	80 40       	sbci	r24, 0x00	; 0
    2c58:	e1 f7       	brne	.-8      	; 0x2c52 <_Z10SystemInitv+0x25c>
    2c5a:	00 c0       	rjmp	.+0      	; 0x2c5c <_Z10SystemInitv+0x266>
    2c5c:	00 00       	nop
    2c5e:	e0 16       	cp	r14, r16
    2c60:	f1 06       	cpc	r15, r17
    2c62:	79 f7       	brne	.-34     	; 0x2c42 <_Z10SystemInitv+0x24c>
    2c64:	83 ed       	ldi	r24, 0xD3	; 211
    2c66:	92 e0       	ldi	r25, 0x02	; 2
    2c68:	0e 94 41 0e 	call	0x1c82	; 0x1c82 <_ZN8myBuzzer9NadaErrorEv>
    2c6c:	98 99       	sbic	0x13, 0	; 19
    2c6e:	fe cf       	rjmp	.-4      	; 0x2c6c <_Z10SystemInitv+0x276>
    2c70:	78 94       	sei
    2c72:	0f 90       	pop	r0
    2c74:	df 91       	pop	r29
    2c76:	cf 91       	pop	r28
    2c78:	1f 91       	pop	r17
    2c7a:	0f 91       	pop	r16
    2c7c:	ff 90       	pop	r15
    2c7e:	ef 90       	pop	r14
    2c80:	08 95       	ret
    2c82:	89 81       	ldd	r24, Y+1	; 0x01
    2c84:	8e 77       	andi	r24, 0x7E	; 126
    2c86:	90 e0       	ldi	r25, 0x00	; 0
    2c88:	95 95       	asr	r25
    2c8a:	87 95       	ror	r24
    2c8c:	98 2f       	mov	r25, r24
    2c8e:	80 93 8a 02 	sts	0x028A, r24	; 0x80028a <imu+0x1>
    2c92:	94 33       	cpi	r25, 0x34	; 52
    2c94:	09 f0       	breq	.+2      	; 0x2c98 <_Z10SystemInitv+0x2a2>
    2c96:	b5 cf       	rjmp	.-150    	; 0x2c02 <_Z10SystemInitv+0x20c>
    2c98:	89 e8       	ldi	r24, 0x89	; 137
    2c9a:	92 e0       	ldi	r25, 0x02	; 2
    2c9c:	0e 94 69 0f 	call	0x1ed2	; 0x1ed2 <_ZN7MPU605010initializeEv>
    2ca0:	89 e8       	ldi	r24, 0x89	; 137
    2ca2:	92 e0       	ldi	r25, 0x02	; 2
    2ca4:	0e 94 4a 11 	call	0x2294	; 0x2294 <_ZN5myDMP7InitDMPEv>
    2ca8:	88 23       	and	r24, r24
    2caa:	09 f4       	brne	.+2      	; 0x2cae <_Z10SystemInitv+0x2b8>
    2cac:	aa cf       	rjmp	.-172    	; 0x2c02 <_Z10SystemInitv+0x20c>
    2cae:	81 e4       	ldi	r24, 0x41	; 65
    2cb0:	92 e0       	ldi	r25, 0x02	; 2
    2cb2:	0e 94 94 0a 	call	0x1528	; 0x1528 <_ZN5myLCD9TulisKiriEhPKc.constprop.33>
    2cb6:	83 ed       	ldi	r24, 0xD3	; 211
    2cb8:	92 e0       	ldi	r25, 0x02	; 2
    2cba:	0e 94 c2 0d 	call	0x1b84	; 0x1b84 <_ZN8myBuzzer5Nada2Ev>
    2cbe:	d8 cf       	rjmp	.-80     	; 0x2c70 <_Z10SystemInitv+0x27a>

00002cc0 <main>:
    2cc0:	cf 93       	push	r28
    2cc2:	df 93       	push	r29
    2cc4:	00 d0       	rcall	.+0      	; 0x2cc6 <main+0x6>
    2cc6:	00 d0       	rcall	.+0      	; 0x2cc8 <main+0x8>
    2cc8:	1f 92       	push	r1
    2cca:	cd b7       	in	r28, 0x3d	; 61
    2ccc:	de b7       	in	r29, 0x3e	; 62
    2cce:	0e 94 fb 14 	call	0x29f6	; 0x29f6 <_Z10SystemInitv>
    2cd2:	81 e0       	ldi	r24, 0x01	; 1
    2cd4:	0e 94 ca 04 	call	0x994	; 0x994 <_ZN5myLCD8PerintahEh.constprop.56>
    2cd8:	8f e3       	ldi	r24, 0x3F	; 63
    2cda:	9f e1       	ldi	r25, 0x1F	; 31
    2cdc:	01 97       	sbiw	r24, 0x01	; 1
    2cde:	f1 f7       	brne	.-4      	; 0x2cdc <main+0x1c>
    2ce0:	00 c0       	rjmp	.+0      	; 0x2ce2 <main+0x22>
    2ce2:	00 00       	nop
    2ce4:	21 e0       	ldi	r18, 0x01	; 1
    2ce6:	47 e0       	ldi	r20, 0x07	; 7
    2ce8:	6a e6       	ldi	r22, 0x6A	; 106
    2cea:	80 91 89 02 	lds	r24, 0x0289	; 0x800289 <imu>
    2cee:	0e 94 a5 06 	call	0xd4a	; 0xd4a <_ZN5myI2C8WriteBitEhhhh.constprop.26>
    2cf2:	21 e0       	ldi	r18, 0x01	; 1
    2cf4:	42 e0       	ldi	r20, 0x02	; 2
    2cf6:	6a e6       	ldi	r22, 0x6A	; 106
    2cf8:	80 91 89 02 	lds	r24, 0x0289	; 0x800289 <imu>
    2cfc:	0e 94 a5 06 	call	0xd4a	; 0xd4a <_ZN5myI2C8WriteBitEhhhh.constprop.26>
    2d00:	e8 94       	clt
    2d02:	33 f8       	bld	r3, 3
    2d04:	10 92 85 00 	sts	0x0085, r1	; 0x800085 <__TEXT_REGION_LENGTH__+0x7e0085>
    2d08:	10 92 84 00 	sts	0x0084, r1	; 0x800084 <__TEXT_REGION_LENGTH__+0x7e0084>
    2d0c:	10 92 87 00 	sts	0x0087, r1	; 0x800087 <__TEXT_REGION_LENGTH__+0x7e0087>
    2d10:	10 92 86 00 	sts	0x0086, r1	; 0x800086 <__TEXT_REGION_LENGTH__+0x7e0086>
    2d14:	68 94       	set
    2d16:	23 f8       	bld	r2, 3
    2d18:	10 92 86 02 	sts	0x0286, r1	; 0x800286 <Balancing>
    2d1c:	80 ec       	ldi	r24, 0xC0	; 192
    2d1e:	0e 94 ca 04 	call	0x994	; 0x994 <_ZN5myLCD8PerintahEh.constprop.56>
    2d22:	e4 e6       	ldi	r30, 0x64	; 100
    2d24:	f2 e0       	ldi	r31, 0x02	; 2
    2d26:	fa 83       	std	Y+2, r31	; 0x02
    2d28:	e9 83       	std	Y+1, r30	; 0x01
    2d2a:	83 e4       	ldi	r24, 0x43	; 67
    2d2c:	0e 94 a1 04 	call	0x942	; 0x942 <_ZN5myLCD4DataEh.constprop.52>
    2d30:	e9 81       	ldd	r30, Y+1	; 0x01
    2d32:	fa 81       	ldd	r31, Y+2	; 0x02
    2d34:	81 91       	ld	r24, Z+
    2d36:	fa 83       	std	Y+2, r31	; 0x02
    2d38:	e9 83       	std	Y+1, r30	; 0x01
    2d3a:	81 11       	cpse	r24, r1
    2d3c:	f7 cf       	rjmp	.-18     	; 0x2d2c <main+0x6c>
    2d3e:	f9 e3       	ldi	r31, 0x39	; 57
    2d40:	f9 83       	std	Y+1, r31	; 0x01
    2d42:	8b ec       	ldi	r24, 0xCB	; 203
    2d44:	0e 94 ca 04 	call	0x994	; 0x994 <_ZN5myLCD8PerintahEh.constprop.56>
    2d48:	89 81       	ldd	r24, Y+1	; 0x01
    2d4a:	0e 94 a1 04 	call	0x942	; 0x942 <_ZN5myLCD4DataEh.constprop.52>
    2d4e:	2f ef       	ldi	r18, 0xFF	; 255
    2d50:	39 e6       	ldi	r19, 0x69	; 105
    2d52:	48 e1       	ldi	r20, 0x18	; 24
    2d54:	21 50       	subi	r18, 0x01	; 1
    2d56:	30 40       	sbci	r19, 0x00	; 0
    2d58:	40 40       	sbci	r20, 0x00	; 0
    2d5a:	e1 f7       	brne	.-8      	; 0x2d54 <main+0x94>
    2d5c:	00 c0       	rjmp	.+0      	; 0x2d5e <main+0x9e>
    2d5e:	00 00       	nop
    2d60:	59 81       	ldd	r21, Y+1	; 0x01
    2d62:	51 50       	subi	r21, 0x01	; 1
    2d64:	59 83       	std	Y+1, r21	; 0x01
    2d66:	5f 32       	cpi	r21, 0x2F	; 47
    2d68:	61 f7       	brne	.-40     	; 0x2d42 <main+0x82>
    2d6a:	80 ec       	ldi	r24, 0xC0	; 192
    2d6c:	0e 94 ca 04 	call	0x994	; 0x994 <_ZN5myLCD8PerintahEh.constprop.56>
    2d70:	80 e7       	ldi	r24, 0x70	; 112
    2d72:	92 e0       	ldi	r25, 0x02	; 2
    2d74:	9a 83       	std	Y+2, r25	; 0x02
    2d76:	89 83       	std	Y+1, r24	; 0x01
    2d78:	82 e4       	ldi	r24, 0x42	; 66
    2d7a:	0e 94 a1 04 	call	0x942	; 0x942 <_ZN5myLCD4DataEh.constprop.52>
    2d7e:	e9 81       	ldd	r30, Y+1	; 0x01
    2d80:	fa 81       	ldd	r31, Y+2	; 0x02
    2d82:	81 91       	ld	r24, Z+
    2d84:	fa 83       	std	Y+2, r31	; 0x02
    2d86:	e9 83       	std	Y+1, r30	; 0x01
    2d88:	81 11       	cpse	r24, r1
    2d8a:	f7 cf       	rjmp	.-18     	; 0x2d7a <main+0xba>
    2d8c:	68 ec       	ldi	r22, 0xC8	; 200
    2d8e:	70 e0       	ldi	r23, 0x00	; 0
    2d90:	80 ed       	ldi	r24, 0xD0	; 208
    2d92:	97 e0       	ldi	r25, 0x07	; 7
    2d94:	0e 94 78 05 	call	0xaf0	; 0xaf0 <_ZN8myBuzzer4BeepEjj.constprop.38>
    2d98:	68 94       	set
    2d9a:	23 f8       	bld	r2, 3
    2d9c:	68 94       	set
    2d9e:	33 f8       	bld	r3, 3
    2da0:	64 e8       	ldi	r22, 0x84	; 132
    2da2:	76 2e       	mov	r7, r22
    2da4:	7c e8       	ldi	r23, 0x8C	; 140
    2da6:	67 2e       	mov	r6, r23
    2da8:	e4 e6       	ldi	r30, 0x64	; 100
    2daa:	ae 2e       	mov	r10, r30
    2dac:	f8 ee       	ldi	r31, 0xE8	; 232
    2dae:	4f 2e       	mov	r4, r31
    2db0:	f3 e0       	ldi	r31, 0x03	; 3
    2db2:	5f 2e       	mov	r5, r31
    2db4:	d8 98       	cbi	0x1b, 0	; 27
    2db6:	20 fe       	sbrs	r2, 0
    2db8:	e4 c0       	rjmp	.+456    	; 0x2f82 <main+0x2c2>
    2dba:	6b ba       	out	0x1b, r6	; 27
    2dbc:	f5 e0       	ldi	r31, 0x05	; 5
    2dbe:	fa 95       	dec	r31
    2dc0:	f1 f7       	brne	.-4      	; 0x2dbe <main+0xfe>
    2dc2:	00 00       	nop
    2dc4:	da 98       	cbi	0x1b, 2	; 27
    2dc6:	2a e1       	ldi	r18, 0x1A	; 26
    2dc8:	2a 95       	dec	r18
    2dca:	f1 f7       	brne	.-4      	; 0x2dc8 <main+0x108>
    2dcc:	00 c0       	rjmp	.+0      	; 0x2dce <main+0x10e>
    2dce:	20 fc       	sbrc	r2, 0
    2dd0:	f7 c0       	rjmp	.+494    	; 0x2fc0 <main+0x300>
    2dd2:	44 e0       	ldi	r20, 0x04	; 4
    2dd4:	4b bb       	out	0x1b, r20	; 27
    2dd6:	55 e0       	ldi	r21, 0x05	; 5
    2dd8:	5a 95       	dec	r21
    2dda:	f1 f7       	brne	.-4      	; 0x2dd8 <main+0x118>
    2ddc:	00 00       	nop
    2dde:	da 98       	cbi	0x1b, 2	; 27
    2de0:	8f ee       	ldi	r24, 0xEF	; 239
    2de2:	9a e0       	ldi	r25, 0x0A	; 10
    2de4:	01 97       	sbiw	r24, 0x01	; 1
    2de6:	f1 f7       	brne	.-4      	; 0x2de4 <main+0x124>
    2de8:	00 c0       	rjmp	.+0      	; 0x2dea <main+0x12a>
    2dea:	00 00       	nop
    2dec:	da 9a       	sbi	0x1b, 2	; 27
    2dee:	c0 90 82 02 	lds	r12, 0x0282	; 0x800282 <Error>
    2df2:	d0 90 83 02 	lds	r13, 0x0283	; 0x800283 <Error+0x1>
    2df6:	e0 90 84 02 	lds	r14, 0x0284	; 0x800284 <Error+0x2>
    2dfa:	f0 90 85 02 	lds	r15, 0x0285	; 0x800285 <Error+0x3>
    2dfe:	c7 01       	movw	r24, r14
    2e00:	b6 01       	movw	r22, r12
    2e02:	0e 94 5b 1b 	call	0x36b6	; 0x36b6 <__fixsfsi>
    2e06:	69 83       	std	Y+1, r22	; 0x01
    2e08:	7a 83       	std	Y+2, r23	; 0x02
    2e0a:	8b 83       	std	Y+3, r24	; 0x03
    2e0c:	9c 83       	std	Y+4, r25	; 0x04
    2e0e:	89 80       	ldd	r8, Y+1	; 0x01
    2e10:	9a 80       	ldd	r9, Y+2	; 0x02
    2e12:	20 e0       	ldi	r18, 0x00	; 0
    2e14:	30 e0       	ldi	r19, 0x00	; 0
    2e16:	a9 01       	movw	r20, r18
    2e18:	c7 01       	movw	r24, r14
    2e1a:	b6 01       	movw	r22, r12
    2e1c:	0e 94 e4 1a 	call	0x35c8	; 0x35c8 <__cmpsf2>
    2e20:	87 fd       	sbrc	r24, 7
    2e22:	54 c2       	rjmp	.+1192   	; 0x32cc <main+0x60c>
    2e24:	bb 24       	eor	r11, r11
    2e26:	b3 94       	inc	r11
    2e28:	90 e1       	ldi	r25, 0x10	; 16
    2e2a:	89 16       	cp	r8, r25
    2e2c:	97 e2       	ldi	r25, 0x27	; 39
    2e2e:	99 06       	cpc	r9, r25
    2e30:	0c f0       	brlt	.+2      	; 0x2e34 <main+0x174>
    2e32:	dc c0       	rjmp	.+440    	; 0x2fec <main+0x32c>
    2e34:	38 ee       	ldi	r19, 0xE8	; 232
    2e36:	83 16       	cp	r8, r19
    2e38:	33 e0       	ldi	r19, 0x03	; 3
    2e3a:	93 06       	cpc	r9, r19
    2e3c:	0c f0       	brlt	.+2      	; 0x2e40 <main+0x180>
    2e3e:	78 c1       	rjmp	.+752    	; 0x3130 <main+0x470>
    2e40:	f4 e6       	ldi	r31, 0x64	; 100
    2e42:	8f 16       	cp	r8, r31
    2e44:	91 04       	cpc	r9, r1
    2e46:	0c f0       	brlt	.+2      	; 0x2e4a <main+0x18a>
    2e48:	ea c1       	rjmp	.+980    	; 0x321e <main+0x55e>
    2e4a:	59 e0       	ldi	r21, 0x09	; 9
    2e4c:	58 15       	cp	r21, r8
    2e4e:	08 f4       	brcc	.+2      	; 0x2e52 <main+0x192>
    2e50:	4c c2       	rjmp	.+1176   	; 0x32ea <main+0x62a>
    2e52:	c4 01       	movw	r24, r8
    2e54:	6a e0       	ldi	r22, 0x0A	; 10
    2e56:	70 e0       	ldi	r23, 0x00	; 0
    2e58:	0e 94 b7 19 	call	0x336e	; 0x336e <__divmodhi4>
    2e5c:	80 5d       	subi	r24, 0xD0	; 208
    2e5e:	d8 9a       	sbi	0x1b, 0	; 27
    2e60:	98 2f       	mov	r25, r24
    2e62:	90 7f       	andi	r25, 0xF0	; 240
    2e64:	20 fe       	sbrs	r2, 0
    2e66:	d8 c1       	rjmp	.+944    	; 0x3218 <main+0x558>
    2e68:	9d 60       	ori	r25, 0x0D	; 13
    2e6a:	9b bb       	out	0x1b, r25	; 27
    2e6c:	95 e0       	ldi	r25, 0x05	; 5
    2e6e:	9a 95       	dec	r25
    2e70:	f1 f7       	brne	.-4      	; 0x2e6e <main+0x1ae>
    2e72:	00 00       	nop
    2e74:	da 98       	cbi	0x1b, 2	; 27
    2e76:	ea e1       	ldi	r30, 0x1A	; 26
    2e78:	ea 95       	dec	r30
    2e7a:	f1 f7       	brne	.-4      	; 0x2e78 <main+0x1b8>
    2e7c:	00 c0       	rjmp	.+0      	; 0x2e7e <main+0x1be>
    2e7e:	20 fc       	sbrc	r2, 0
    2e80:	1e c2       	rjmp	.+1084   	; 0x32be <main+0x5fe>
    2e82:	20 e1       	ldi	r18, 0x10	; 16
    2e84:	82 9f       	mul	r24, r18
    2e86:	c0 01       	movw	r24, r0
    2e88:	11 24       	eor	r1, r1
    2e8a:	85 60       	ori	r24, 0x05	; 5
    2e8c:	8b bb       	out	0x1b, r24	; 27
    2e8e:	35 e0       	ldi	r19, 0x05	; 5
    2e90:	3a 95       	dec	r19
    2e92:	f1 f7       	brne	.-4      	; 0x2e90 <main+0x1d0>
    2e94:	00 00       	nop
    2e96:	da 98       	cbi	0x1b, 2	; 27
    2e98:	45 ed       	ldi	r20, 0xD5	; 213
    2e9a:	4a 95       	dec	r20
    2e9c:	f1 f7       	brne	.-4      	; 0x2e9a <main+0x1da>
    2e9e:	00 00       	nop
    2ea0:	da 9a       	sbi	0x1b, 2	; 27
    2ea2:	d8 9a       	sbi	0x1b, 0	; 27
    2ea4:	20 fe       	sbrs	r2, 0
    2ea6:	41 c1       	rjmp	.+642    	; 0x312a <main+0x46a>
    2ea8:	8d e2       	ldi	r24, 0x2D	; 45
    2eaa:	8b bb       	out	0x1b, r24	; 27
    2eac:	85 e0       	ldi	r24, 0x05	; 5
    2eae:	8a 95       	dec	r24
    2eb0:	f1 f7       	brne	.-4      	; 0x2eae <main+0x1ee>
    2eb2:	00 00       	nop
    2eb4:	da 98       	cbi	0x1b, 2	; 27
    2eb6:	9a e1       	ldi	r25, 0x1A	; 26
    2eb8:	9a 95       	dec	r25
    2eba:	f1 f7       	brne	.-4      	; 0x2eb8 <main+0x1f8>
    2ebc:	00 c0       	rjmp	.+0      	; 0x2ebe <main+0x1fe>
    2ebe:	20 fc       	sbrc	r2, 0
    2ec0:	11 c2       	rjmp	.+1058   	; 0x32e4 <main+0x624>
    2ec2:	85 ee       	ldi	r24, 0xE5	; 229
    2ec4:	8b bb       	out	0x1b, r24	; 27
    2ec6:	e5 e0       	ldi	r30, 0x05	; 5
    2ec8:	ea 95       	dec	r30
    2eca:	f1 f7       	brne	.-4      	; 0x2ec8 <main+0x208>
    2ecc:	00 00       	nop
    2ece:	da 98       	cbi	0x1b, 2	; 27
    2ed0:	f5 ed       	ldi	r31, 0xD5	; 213
    2ed2:	fa 95       	dec	r31
    2ed4:	f1 f7       	brne	.-4      	; 0x2ed2 <main+0x212>
    2ed6:	00 00       	nop
    2ed8:	da 9a       	sbi	0x1b, 2	; 27
    2eda:	b4 01       	movw	r22, r8
    2edc:	99 0c       	add	r9, r9
    2ede:	88 0b       	sbc	r24, r24
    2ee0:	99 0b       	sbc	r25, r25
    2ee2:	0e 94 93 1b 	call	0x3726	; 0x3726 <__floatsisf>
    2ee6:	9b 01       	movw	r18, r22
    2ee8:	ac 01       	movw	r20, r24
    2eea:	c7 01       	movw	r24, r14
    2eec:	b6 01       	movw	r22, r12
    2eee:	0e 94 05 1a 	call	0x340a	; 0x340a <__subsf3>
    2ef2:	20 e0       	ldi	r18, 0x00	; 0
    2ef4:	30 e0       	ldi	r19, 0x00	; 0
    2ef6:	48 ec       	ldi	r20, 0xC8	; 200
    2ef8:	52 e4       	ldi	r21, 0x42	; 66
    2efa:	0e 94 77 1c 	call	0x38ee	; 0x38ee <__mulsf3>
    2efe:	0e 94 62 1b 	call	0x36c4	; 0x36c4 <__fixunssfsi>
    2f02:	6d 83       	std	Y+5, r22	; 0x05
    2f04:	2d ec       	ldi	r18, 0xCD	; 205
    2f06:	62 9f       	mul	r22, r18
    2f08:	21 2d       	mov	r18, r1
    2f0a:	11 24       	eor	r1, r1
    2f0c:	26 95       	lsr	r18
    2f0e:	26 95       	lsr	r18
    2f10:	26 95       	lsr	r18
    2f12:	29 83       	std	Y+1, r18	; 0x01
    2f14:	82 2f       	mov	r24, r18
    2f16:	80 5d       	subi	r24, 0xD0	; 208
    2f18:	0e 94 a1 04 	call	0x942	; 0x942 <_ZN5myLCD4DataEh.constprop.52>
    2f1c:	8d 81       	ldd	r24, Y+5	; 0x05
    2f1e:	49 81       	ldd	r20, Y+1	; 0x01
    2f20:	3a e0       	ldi	r19, 0x0A	; 10
    2f22:	43 9f       	mul	r20, r19
    2f24:	80 19       	sub	r24, r0
    2f26:	11 24       	eor	r1, r1
    2f28:	80 5d       	subi	r24, 0xD0	; 208
    2f2a:	0e 94 a1 04 	call	0x942	; 0x942 <_ZN5myLCD4DataEh.constprop.52>
    2f2e:	b1 10       	cpse	r11, r1
    2f30:	2a c0       	rjmp	.+84     	; 0x2f86 <main+0x2c6>
    2f32:	82 e3       	ldi	r24, 0x32	; 50
    2f34:	80 93 87 02 	sts	0x0287, r24	; 0x800287 <Balancing+0x1>
    2f38:	80 ed       	ldi	r24, 0xD0	; 208
    2f3a:	97 e0       	ldi	r25, 0x07	; 7
    2f3c:	ef e9       	ldi	r30, 0x9F	; 159
    2f3e:	ff e0       	ldi	r31, 0x0F	; 15
    2f40:	31 97       	sbiw	r30, 0x01	; 1
    2f42:	f1 f7       	brne	.-4      	; 0x2f40 <main+0x280>
    2f44:	00 c0       	rjmp	.+0      	; 0x2f46 <main+0x286>
    2f46:	00 00       	nop
    2f48:	01 97       	sbiw	r24, 0x01	; 1
    2f4a:	c1 f7       	brne	.-16     	; 0x2f3c <main+0x27c>
    2f4c:	8e ec       	ldi	r24, 0xCE	; 206
    2f4e:	80 93 87 02 	sts	0x0287, r24	; 0x800287 <Balancing+0x1>
    2f52:	80 ed       	ldi	r24, 0xD0	; 208
    2f54:	97 e0       	ldi	r25, 0x07	; 7
    2f56:	ef e9       	ldi	r30, 0x9F	; 159
    2f58:	ff e0       	ldi	r31, 0x0F	; 15
    2f5a:	31 97       	sbiw	r30, 0x01	; 1
    2f5c:	f1 f7       	brne	.-4      	; 0x2f5a <main+0x29a>
    2f5e:	00 c0       	rjmp	.+0      	; 0x2f60 <main+0x2a0>
    2f60:	00 00       	nop
    2f62:	01 97       	sbiw	r24, 0x01	; 1
    2f64:	c1 f7       	brne	.-16     	; 0x2f56 <main+0x296>
    2f66:	22 fe       	sbrs	r2, 2
    2f68:	2e c0       	rjmp	.+92     	; 0x2fc6 <main+0x306>
    2f6a:	2f ef       	ldi	r18, 0xFF	; 255
    2f6c:	30 e7       	ldi	r19, 0x70	; 112
    2f6e:	42 e0       	ldi	r20, 0x02	; 2
    2f70:	21 50       	subi	r18, 0x01	; 1
    2f72:	30 40       	sbci	r19, 0x00	; 0
    2f74:	40 40       	sbci	r20, 0x00	; 0
    2f76:	e1 f7       	brne	.-8      	; 0x2f70 <main+0x2b0>
    2f78:	00 c0       	rjmp	.+0      	; 0x2f7a <main+0x2ba>
    2f7a:	00 00       	nop
    2f7c:	d8 98       	cbi	0x1b, 0	; 27
    2f7e:	20 fc       	sbrc	r2, 0
    2f80:	1c cf       	rjmp	.-456    	; 0x2dba <main+0xfa>
    2f82:	7b ba       	out	0x1b, r7	; 27
    2f84:	1b cf       	rjmp	.-458    	; 0x2dbc <main+0xfc>
    2f86:	d8 9a       	sbi	0x1b, 0	; 27
    2f88:	20 fe       	sbrs	r2, 0
    2f8a:	43 c1       	rjmp	.+646    	; 0x3212 <main+0x552>
    2f8c:	8d e2       	ldi	r24, 0x2D	; 45
    2f8e:	8b bb       	out	0x1b, r24	; 27
    2f90:	85 e0       	ldi	r24, 0x05	; 5
    2f92:	8a 95       	dec	r24
    2f94:	f1 f7       	brne	.-4      	; 0x2f92 <main+0x2d2>
    2f96:	00 00       	nop
    2f98:	da 98       	cbi	0x1b, 2	; 27
    2f9a:	9a e1       	ldi	r25, 0x1A	; 26
    2f9c:	9a 95       	dec	r25
    2f9e:	f1 f7       	brne	.-4      	; 0x2f9c <main+0x2dc>
    2fa0:	00 c0       	rjmp	.+0      	; 0x2fa2 <main+0x2e2>
    2fa2:	20 fc       	sbrc	r2, 0
    2fa4:	89 c1       	rjmp	.+786    	; 0x32b8 <main+0x5f8>
    2fa6:	85 e0       	ldi	r24, 0x05	; 5
    2fa8:	8b bb       	out	0x1b, r24	; 27
    2faa:	e5 e0       	ldi	r30, 0x05	; 5
    2fac:	ea 95       	dec	r30
    2fae:	f1 f7       	brne	.-4      	; 0x2fac <main+0x2ec>
    2fb0:	00 00       	nop
    2fb2:	da 98       	cbi	0x1b, 2	; 27
    2fb4:	f5 ed       	ldi	r31, 0xD5	; 213
    2fb6:	fa 95       	dec	r31
    2fb8:	f1 f7       	brne	.-4      	; 0x2fb6 <main+0x2f6>
    2fba:	00 00       	nop
    2fbc:	da 9a       	sbi	0x1b, 2	; 27
    2fbe:	b9 cf       	rjmp	.-142    	; 0x2f32 <main+0x272>
    2fc0:	3c e0       	ldi	r19, 0x0C	; 12
    2fc2:	3b bb       	out	0x1b, r19	; 27
    2fc4:	08 cf       	rjmp	.-496    	; 0x2dd6 <main+0x116>
    2fc6:	68 94       	set
    2fc8:	22 f8       	bld	r2, 2
    2fca:	80 e2       	ldi	r24, 0x20	; 32
    2fcc:	87 b9       	out	0x07, r24	; 7
    2fce:	f5 e3       	ldi	r31, 0x35	; 53
    2fd0:	fa 95       	dec	r31
    2fd2:	f1 f7       	brne	.-4      	; 0x2fd0 <main+0x310>
    2fd4:	00 00       	nop
    2fd6:	36 9a       	sbi	0x06, 6	; 6
    2fd8:	34 9b       	sbis	0x06, 4	; 6
    2fda:	fe cf       	rjmp	.-4      	; 0x2fd8 <main+0x318>
    2fdc:	34 9a       	sbi	0x06, 4	; 6
    2fde:	e8 94       	clt
    2fe0:	22 f8       	bld	r2, 2
    2fe2:	85 b1       	in	r24, 0x05	; 5
    2fe4:	84 36       	cpi	r24, 0x64	; 100
    2fe6:	08 f6       	brcc	.-126    	; 0x2f6a <main+0x2aa>
    2fe8:	0e 94 f5 04 	call	0x9ea	; 0x9ea <_ZN5myADC9CekBatereEv.part.8>
    2fec:	94 01       	movw	r18, r8
    2fee:	32 95       	swap	r19
    2ff0:	22 95       	swap	r18
    2ff2:	2f 70       	andi	r18, 0x0F	; 15
    2ff4:	23 27       	eor	r18, r19
    2ff6:	3f 70       	andi	r19, 0x0F	; 15
    2ff8:	23 27       	eor	r18, r19
    2ffa:	a7 e4       	ldi	r26, 0x47	; 71
    2ffc:	b3 e0       	ldi	r27, 0x03	; 3
    2ffe:	0e 94 ed 19 	call	0x33da	; 0x33da <__umulhisi3>
    3002:	96 95       	lsr	r25
    3004:	87 95       	ror	r24
    3006:	96 95       	lsr	r25
    3008:	87 95       	ror	r24
    300a:	96 95       	lsr	r25
    300c:	87 95       	ror	r24
    300e:	9a 83       	std	Y+2, r25	; 0x02
    3010:	89 83       	std	Y+1, r24	; 0x01
    3012:	68 2f       	mov	r22, r24
    3014:	60 5d       	subi	r22, 0xD0	; 208
    3016:	82 ed       	ldi	r24, 0xD2	; 210
    3018:	92 e0       	ldi	r25, 0x02	; 2
    301a:	0e 94 b9 0e 	call	0x1d72	; 0x1d72 <_ZN5myLCD4DataEh>
    301e:	e9 81       	ldd	r30, Y+1	; 0x01
    3020:	fa 81       	ldd	r31, Y+2	; 0x02
    3022:	20 e1       	ldi	r18, 0x10	; 16
    3024:	37 e2       	ldi	r19, 0x27	; 39
    3026:	e2 9f       	mul	r30, r18
    3028:	c0 01       	movw	r24, r0
    302a:	e3 9f       	mul	r30, r19
    302c:	90 0d       	add	r25, r0
    302e:	f2 9f       	mul	r31, r18
    3030:	90 0d       	add	r25, r0
    3032:	11 24       	eor	r1, r1
    3034:	84 01       	movw	r16, r8
    3036:	08 1b       	sub	r16, r24
    3038:	19 0b       	sbc	r17, r25
    303a:	98 01       	movw	r18, r16
    303c:	36 95       	lsr	r19
    303e:	27 95       	ror	r18
    3040:	36 95       	lsr	r19
    3042:	27 95       	ror	r18
    3044:	36 95       	lsr	r19
    3046:	27 95       	ror	r18
    3048:	a5 ec       	ldi	r26, 0xC5	; 197
    304a:	b0 e2       	ldi	r27, 0x20	; 32
    304c:	0e 94 ed 19 	call	0x33da	; 0x33da <__umulhisi3>
    3050:	92 95       	swap	r25
    3052:	82 95       	swap	r24
    3054:	8f 70       	andi	r24, 0x0F	; 15
    3056:	89 27       	eor	r24, r25
    3058:	9f 70       	andi	r25, 0x0F	; 15
    305a:	89 27       	eor	r24, r25
    305c:	9a 83       	std	Y+2, r25	; 0x02
    305e:	89 83       	std	Y+1, r24	; 0x01
    3060:	68 2f       	mov	r22, r24
    3062:	60 5d       	subi	r22, 0xD0	; 208
    3064:	82 ed       	ldi	r24, 0xD2	; 210
    3066:	92 e0       	ldi	r25, 0x02	; 2
    3068:	0e 94 b9 0e 	call	0x1d72	; 0x1d72 <_ZN5myLCD4DataEh>
    306c:	49 81       	ldd	r20, Y+1	; 0x01
    306e:	5a 81       	ldd	r21, Y+2	; 0x02
    3070:	44 9d       	mul	r20, r4
    3072:	c0 01       	movw	r24, r0
    3074:	45 9d       	mul	r20, r5
    3076:	90 0d       	add	r25, r0
    3078:	54 9d       	mul	r21, r4
    307a:	90 0d       	add	r25, r0
    307c:	11 24       	eor	r1, r1
    307e:	f8 01       	movw	r30, r16
    3080:	e8 1b       	sub	r30, r24
    3082:	f9 0b       	sbc	r31, r25
    3084:	fa 83       	std	Y+2, r31	; 0x02
    3086:	e9 83       	std	Y+1, r30	; 0x01
    3088:	9f 01       	movw	r18, r30
    308a:	36 95       	lsr	r19
    308c:	27 95       	ror	r18
    308e:	36 95       	lsr	r19
    3090:	27 95       	ror	r18
    3092:	ab e7       	ldi	r26, 0x7B	; 123
    3094:	b4 e1       	ldi	r27, 0x14	; 20
    3096:	0e 94 ed 19 	call	0x33da	; 0x33da <__umulhisi3>
    309a:	8c 01       	movw	r16, r24
    309c:	16 95       	lsr	r17
    309e:	07 95       	ror	r16
    30a0:	60 e3       	ldi	r22, 0x30	; 48
    30a2:	60 0f       	add	r22, r16
    30a4:	82 ed       	ldi	r24, 0xD2	; 210
    30a6:	92 e0       	ldi	r25, 0x02	; 2
    30a8:	0e 94 b9 0e 	call	0x1d72	; 0x1d72 <_ZN5myLCD4DataEh>
    30ac:	a0 9e       	mul	r10, r16
    30ae:	c0 01       	movw	r24, r0
    30b0:	a1 9e       	mul	r10, r17
    30b2:	90 0d       	add	r25, r0
    30b4:	11 24       	eor	r1, r1
    30b6:	29 81       	ldd	r18, Y+1	; 0x01
    30b8:	3a 81       	ldd	r19, Y+2	; 0x02
    30ba:	28 1b       	sub	r18, r24
    30bc:	39 0b       	sbc	r19, r25
    30be:	ad ec       	ldi	r26, 0xCD	; 205
    30c0:	bc ec       	ldi	r27, 0xCC	; 204
    30c2:	0e 94 ed 19 	call	0x33da	; 0x33da <__umulhisi3>
    30c6:	96 95       	lsr	r25
    30c8:	87 95       	ror	r24
    30ca:	96 95       	lsr	r25
    30cc:	87 95       	ror	r24
    30ce:	96 95       	lsr	r25
    30d0:	87 95       	ror	r24
    30d2:	60 e3       	ldi	r22, 0x30	; 48
    30d4:	68 0f       	add	r22, r24
    30d6:	82 ed       	ldi	r24, 0xD2	; 210
    30d8:	92 e0       	ldi	r25, 0x02	; 2
    30da:	0e 94 b9 0e 	call	0x1d72	; 0x1d72 <_ZN5myLCD4DataEh>
    30de:	29 81       	ldd	r18, Y+1	; 0x01
    30e0:	3a 81       	ldd	r19, Y+2	; 0x02
    30e2:	ad ec       	ldi	r26, 0xCD	; 205
    30e4:	bc ec       	ldi	r27, 0xCC	; 204
    30e6:	0e 94 ed 19 	call	0x33da	; 0x33da <__umulhisi3>
    30ea:	96 95       	lsr	r25
    30ec:	87 95       	ror	r24
    30ee:	96 95       	lsr	r25
    30f0:	87 95       	ror	r24
    30f2:	96 95       	lsr	r25
    30f4:	87 95       	ror	r24
    30f6:	9c 01       	movw	r18, r24
    30f8:	22 0f       	add	r18, r18
    30fa:	33 1f       	adc	r19, r19
    30fc:	88 0f       	add	r24, r24
    30fe:	99 1f       	adc	r25, r25
    3100:	88 0f       	add	r24, r24
    3102:	99 1f       	adc	r25, r25
    3104:	88 0f       	add	r24, r24
    3106:	99 1f       	adc	r25, r25
    3108:	82 0f       	add	r24, r18
    310a:	93 1f       	adc	r25, r19
    310c:	29 81       	ldd	r18, Y+1	; 0x01
    310e:	3a 81       	ldd	r19, Y+2	; 0x02
    3110:	28 1b       	sub	r18, r24
    3112:	39 0b       	sbc	r19, r25
    3114:	3a 83       	std	Y+2, r19	; 0x02
    3116:	29 83       	std	Y+1, r18	; 0x01
    3118:	62 2f       	mov	r22, r18
    311a:	60 5d       	subi	r22, 0xD0	; 208
    311c:	82 ed       	ldi	r24, 0xD2	; 210
    311e:	92 e0       	ldi	r25, 0x02	; 2
    3120:	0e 94 b9 0e 	call	0x1d72	; 0x1d72 <_ZN5myLCD4DataEh>
    3124:	d8 9a       	sbi	0x1b, 0	; 27
    3126:	20 fc       	sbrc	r2, 0
    3128:	bf ce       	rjmp	.-642    	; 0x2ea8 <main+0x1e8>
    312a:	55 e2       	ldi	r21, 0x25	; 37
    312c:	5b bb       	out	0x1b, r21	; 27
    312e:	be ce       	rjmp	.-644    	; 0x2eac <main+0x1ec>
    3130:	94 01       	movw	r18, r8
    3132:	36 95       	lsr	r19
    3134:	27 95       	ror	r18
    3136:	36 95       	lsr	r19
    3138:	27 95       	ror	r18
    313a:	36 95       	lsr	r19
    313c:	27 95       	ror	r18
    313e:	a5 ec       	ldi	r26, 0xC5	; 197
    3140:	b0 e2       	ldi	r27, 0x20	; 32
    3142:	0e 94 ed 19 	call	0x33da	; 0x33da <__umulhisi3>
    3146:	92 95       	swap	r25
    3148:	82 95       	swap	r24
    314a:	8f 70       	andi	r24, 0x0F	; 15
    314c:	89 27       	eor	r24, r25
    314e:	9f 70       	andi	r25, 0x0F	; 15
    3150:	89 27       	eor	r24, r25
    3152:	9a 83       	std	Y+2, r25	; 0x02
    3154:	89 83       	std	Y+1, r24	; 0x01
    3156:	68 2f       	mov	r22, r24
    3158:	60 5d       	subi	r22, 0xD0	; 208
    315a:	82 ed       	ldi	r24, 0xD2	; 210
    315c:	92 e0       	ldi	r25, 0x02	; 2
    315e:	0e 94 b9 0e 	call	0x1d72	; 0x1d72 <_ZN5myLCD4DataEh>
    3162:	49 81       	ldd	r20, Y+1	; 0x01
    3164:	5a 81       	ldd	r21, Y+2	; 0x02
    3166:	44 9d       	mul	r20, r4
    3168:	c0 01       	movw	r24, r0
    316a:	45 9d       	mul	r20, r5
    316c:	90 0d       	add	r25, r0
    316e:	54 9d       	mul	r21, r4
    3170:	90 0d       	add	r25, r0
    3172:	11 24       	eor	r1, r1
    3174:	84 01       	movw	r16, r8
    3176:	08 1b       	sub	r16, r24
    3178:	19 0b       	sbc	r17, r25
    317a:	98 01       	movw	r18, r16
    317c:	36 95       	lsr	r19
    317e:	27 95       	ror	r18
    3180:	36 95       	lsr	r19
    3182:	27 95       	ror	r18
    3184:	ab e7       	ldi	r26, 0x7B	; 123
    3186:	b4 e1       	ldi	r27, 0x14	; 20
    3188:	0e 94 ed 19 	call	0x33da	; 0x33da <__umulhisi3>
    318c:	96 95       	lsr	r25
    318e:	87 95       	ror	r24
    3190:	9a 83       	std	Y+2, r25	; 0x02
    3192:	89 83       	std	Y+1, r24	; 0x01
    3194:	68 2f       	mov	r22, r24
    3196:	60 5d       	subi	r22, 0xD0	; 208
    3198:	82 ed       	ldi	r24, 0xD2	; 210
    319a:	92 e0       	ldi	r25, 0x02	; 2
    319c:	0e 94 b9 0e 	call	0x1d72	; 0x1d72 <_ZN5myLCD4DataEh>
    31a0:	e9 81       	ldd	r30, Y+1	; 0x01
    31a2:	fa 81       	ldd	r31, Y+2	; 0x02
    31a4:	ae 9e       	mul	r10, r30
    31a6:	c0 01       	movw	r24, r0
    31a8:	af 9e       	mul	r10, r31
    31aa:	90 0d       	add	r25, r0
    31ac:	11 24       	eor	r1, r1
    31ae:	98 01       	movw	r18, r16
    31b0:	28 1b       	sub	r18, r24
    31b2:	39 0b       	sbc	r19, r25
    31b4:	ad ec       	ldi	r26, 0xCD	; 205
    31b6:	bc ec       	ldi	r27, 0xCC	; 204
    31b8:	0e 94 ed 19 	call	0x33da	; 0x33da <__umulhisi3>
    31bc:	96 95       	lsr	r25
    31be:	87 95       	ror	r24
    31c0:	96 95       	lsr	r25
    31c2:	87 95       	ror	r24
    31c4:	96 95       	lsr	r25
    31c6:	87 95       	ror	r24
    31c8:	60 e3       	ldi	r22, 0x30	; 48
    31ca:	68 0f       	add	r22, r24
    31cc:	82 ed       	ldi	r24, 0xD2	; 210
    31ce:	92 e0       	ldi	r25, 0x02	; 2
    31d0:	0e 94 b9 0e 	call	0x1d72	; 0x1d72 <_ZN5myLCD4DataEh>
    31d4:	98 01       	movw	r18, r16
    31d6:	ad ec       	ldi	r26, 0xCD	; 205
    31d8:	bc ec       	ldi	r27, 0xCC	; 204
    31da:	0e 94 ed 19 	call	0x33da	; 0x33da <__umulhisi3>
    31de:	96 95       	lsr	r25
    31e0:	87 95       	ror	r24
    31e2:	96 95       	lsr	r25
    31e4:	87 95       	ror	r24
    31e6:	96 95       	lsr	r25
    31e8:	87 95       	ror	r24
    31ea:	9c 01       	movw	r18, r24
    31ec:	22 0f       	add	r18, r18
    31ee:	33 1f       	adc	r19, r19
    31f0:	88 0f       	add	r24, r24
    31f2:	99 1f       	adc	r25, r25
    31f4:	88 0f       	add	r24, r24
    31f6:	99 1f       	adc	r25, r25
    31f8:	88 0f       	add	r24, r24
    31fa:	99 1f       	adc	r25, r25
    31fc:	82 0f       	add	r24, r18
    31fe:	93 1f       	adc	r25, r19
    3200:	08 1b       	sub	r16, r24
    3202:	19 0b       	sbc	r17, r25
    3204:	60 e3       	ldi	r22, 0x30	; 48
    3206:	60 0f       	add	r22, r16
    3208:	82 ed       	ldi	r24, 0xD2	; 210
    320a:	92 e0       	ldi	r25, 0x02	; 2
    320c:	0e 94 b9 0e 	call	0x1d72	; 0x1d72 <_ZN5myLCD4DataEh>
    3210:	48 ce       	rjmp	.-880    	; 0x2ea2 <main+0x1e2>
    3212:	55 e2       	ldi	r21, 0x25	; 37
    3214:	5b bb       	out	0x1b, r21	; 27
    3216:	bc ce       	rjmp	.-648    	; 0x2f90 <main+0x2d0>
    3218:	95 60       	ori	r25, 0x05	; 5
    321a:	9b bb       	out	0x1b, r25	; 27
    321c:	27 ce       	rjmp	.-946    	; 0x2e6c <main+0x1ac>
    321e:	94 01       	movw	r18, r8
    3220:	36 95       	lsr	r19
    3222:	27 95       	ror	r18
    3224:	36 95       	lsr	r19
    3226:	27 95       	ror	r18
    3228:	ab e7       	ldi	r26, 0x7B	; 123
    322a:	b4 e1       	ldi	r27, 0x14	; 20
    322c:	0e 94 ed 19 	call	0x33da	; 0x33da <__umulhisi3>
    3230:	96 95       	lsr	r25
    3232:	87 95       	ror	r24
    3234:	9a 83       	std	Y+2, r25	; 0x02
    3236:	89 83       	std	Y+1, r24	; 0x01
    3238:	68 2f       	mov	r22, r24
    323a:	60 5d       	subi	r22, 0xD0	; 208
    323c:	82 ed       	ldi	r24, 0xD2	; 210
    323e:	92 e0       	ldi	r25, 0x02	; 2
    3240:	0e 94 b9 0e 	call	0x1d72	; 0x1d72 <_ZN5myLCD4DataEh>
    3244:	29 81       	ldd	r18, Y+1	; 0x01
    3246:	3a 81       	ldd	r19, Y+2	; 0x02
    3248:	a2 9e       	mul	r10, r18
    324a:	c0 01       	movw	r24, r0
    324c:	a3 9e       	mul	r10, r19
    324e:	90 0d       	add	r25, r0
    3250:	11 24       	eor	r1, r1
    3252:	94 01       	movw	r18, r8
    3254:	28 1b       	sub	r18, r24
    3256:	39 0b       	sbc	r19, r25
    3258:	ad ec       	ldi	r26, 0xCD	; 205
    325a:	bc ec       	ldi	r27, 0xCC	; 204
    325c:	0e 94 ed 19 	call	0x33da	; 0x33da <__umulhisi3>
    3260:	96 95       	lsr	r25
    3262:	87 95       	ror	r24
    3264:	96 95       	lsr	r25
    3266:	87 95       	ror	r24
    3268:	96 95       	lsr	r25
    326a:	87 95       	ror	r24
    326c:	60 e3       	ldi	r22, 0x30	; 48
    326e:	68 0f       	add	r22, r24
    3270:	82 ed       	ldi	r24, 0xD2	; 210
    3272:	92 e0       	ldi	r25, 0x02	; 2
    3274:	0e 94 b9 0e 	call	0x1d72	; 0x1d72 <_ZN5myLCD4DataEh>
    3278:	94 01       	movw	r18, r8
    327a:	ad ec       	ldi	r26, 0xCD	; 205
    327c:	bc ec       	ldi	r27, 0xCC	; 204
    327e:	0e 94 ed 19 	call	0x33da	; 0x33da <__umulhisi3>
    3282:	96 95       	lsr	r25
    3284:	87 95       	ror	r24
    3286:	96 95       	lsr	r25
    3288:	87 95       	ror	r24
    328a:	96 95       	lsr	r25
    328c:	87 95       	ror	r24
    328e:	9c 01       	movw	r18, r24
    3290:	22 0f       	add	r18, r18
    3292:	33 1f       	adc	r19, r19
    3294:	88 0f       	add	r24, r24
    3296:	99 1f       	adc	r25, r25
    3298:	88 0f       	add	r24, r24
    329a:	99 1f       	adc	r25, r25
    329c:	88 0f       	add	r24, r24
    329e:	99 1f       	adc	r25, r25
    32a0:	82 0f       	add	r24, r18
    32a2:	93 1f       	adc	r25, r19
    32a4:	a4 01       	movw	r20, r8
    32a6:	48 1b       	sub	r20, r24
    32a8:	59 0b       	sbc	r21, r25
    32aa:	60 e3       	ldi	r22, 0x30	; 48
    32ac:	64 0f       	add	r22, r20
    32ae:	82 ed       	ldi	r24, 0xD2	; 210
    32b0:	92 e0       	ldi	r25, 0x02	; 2
    32b2:	0e 94 b9 0e 	call	0x1d72	; 0x1d72 <_ZN5myLCD4DataEh>
    32b6:	f5 cd       	rjmp	.-1046   	; 0x2ea2 <main+0x1e2>
    32b8:	8d e0       	ldi	r24, 0x0D	; 13
    32ba:	8b bb       	out	0x1b, r24	; 27
    32bc:	76 ce       	rjmp	.-788    	; 0x2faa <main+0x2ea>
    32be:	f0 e1       	ldi	r31, 0x10	; 16
    32c0:	8f 9f       	mul	r24, r31
    32c2:	c0 01       	movw	r24, r0
    32c4:	11 24       	eor	r1, r1
    32c6:	8d 60       	ori	r24, 0x0D	; 13
    32c8:	8b bb       	out	0x1b, r24	; 27
    32ca:	e1 cd       	rjmp	.-1086   	; 0x2e8e <main+0x1ce>
    32cc:	91 94       	neg	r9
    32ce:	81 94       	neg	r8
    32d0:	91 08       	sbc	r9, r1
    32d2:	f7 fa       	bst	r15, 7
    32d4:	f0 94       	com	r15
    32d6:	f7 f8       	bld	r15, 7
    32d8:	f0 94       	com	r15
    32da:	8d e2       	ldi	r24, 0x2D	; 45
    32dc:	0e 94 a1 04 	call	0x942	; 0x942 <_ZN5myLCD4DataEh.constprop.52>
    32e0:	b1 2c       	mov	r11, r1
    32e2:	a2 cd       	rjmp	.-1212   	; 0x2e28 <main+0x168>
    32e4:	8d ee       	ldi	r24, 0xED	; 237
    32e6:	8b bb       	out	0x1b, r24	; 27
    32e8:	ee cd       	rjmp	.-1060   	; 0x2ec6 <main+0x206>
    32ea:	c4 01       	movw	r24, r8
    32ec:	6a e0       	ldi	r22, 0x0A	; 10
    32ee:	70 e0       	ldi	r23, 0x00	; 0
    32f0:	0e 94 b7 19 	call	0x336e	; 0x336e <__divmodhi4>
    32f4:	80 e3       	ldi	r24, 0x30	; 48
    32f6:	86 0f       	add	r24, r22
    32f8:	0e 94 a1 04 	call	0x942	; 0x942 <_ZN5myLCD4DataEh.constprop.52>
    32fc:	aa cd       	rjmp	.-1196   	; 0x2e52 <main+0x192>

000032fe <_GLOBAL__sub_I__Z8delay_msj>:
    32fe:	8c ed       	ldi	r24, 0xDC	; 220
    3300:	95 e0       	ldi	r25, 0x05	; 5
    3302:	9b bd       	out	0x2b, r25	; 43
    3304:	8a bd       	out	0x2a, r24	; 42
    3306:	99 bd       	out	0x29, r25	; 41
    3308:	88 bd       	out	0x28, r24	; 40
    330a:	90 93 79 00 	sts	0x0079, r25	; 0x800079 <__TEXT_REGION_LENGTH__+0x7e0079>
    330e:	80 93 78 00 	sts	0x0078, r24	; 0x800078 <__TEXT_REGION_LENGTH__+0x7e0078>
    3312:	10 92 85 00 	sts	0x0085, r1	; 0x800085 <__TEXT_REGION_LENGTH__+0x7e0085>
    3316:	10 92 84 00 	sts	0x0084, r1	; 0x800084 <__TEXT_REGION_LENGTH__+0x7e0084>
    331a:	10 92 87 00 	sts	0x0087, r1	; 0x800087 <__TEXT_REGION_LENGTH__+0x7e0087>
    331e:	10 92 86 00 	sts	0x0086, r1	; 0x800086 <__TEXT_REGION_LENGTH__+0x7e0086>
    3322:	e4 ed       	ldi	r30, 0xD4	; 212
    3324:	f2 e0       	ldi	r31, 0x02	; 2
    3326:	10 82       	st	Z, r1
    3328:	11 82       	std	Z+1, r1	; 0x01
    332a:	12 82       	std	Z+2, r1	; 0x02
    332c:	13 82       	std	Z+3, r1	; 0x03
    332e:	80 e2       	ldi	r24, 0x20	; 32
    3330:	87 b9       	out	0x07, r24	; 7
    3332:	84 e8       	ldi	r24, 0x84	; 132
    3334:	86 b9       	out	0x06, r24	; 6
    3336:	80 ed       	ldi	r24, 0xD0	; 208
    3338:	80 93 89 02 	sts	0x0289, r24	; 0x800289 <imu>
    333c:	e6 e8       	ldi	r30, 0x86	; 134
    333e:	f2 e0       	ldi	r31, 0x02	; 2
    3340:	11 82       	std	Z+1, r1	; 0x01
    3342:	10 82       	st	Z, r1
    3344:	08 95       	ret

00003346 <__udivmodhi4>:
    3346:	aa 1b       	sub	r26, r26
    3348:	bb 1b       	sub	r27, r27
    334a:	51 e1       	ldi	r21, 0x11	; 17
    334c:	07 c0       	rjmp	.+14     	; 0x335c <__udivmodhi4_ep>

0000334e <__udivmodhi4_loop>:
    334e:	aa 1f       	adc	r26, r26
    3350:	bb 1f       	adc	r27, r27
    3352:	a6 17       	cp	r26, r22
    3354:	b7 07       	cpc	r27, r23
    3356:	10 f0       	brcs	.+4      	; 0x335c <__udivmodhi4_ep>
    3358:	a6 1b       	sub	r26, r22
    335a:	b7 0b       	sbc	r27, r23

0000335c <__udivmodhi4_ep>:
    335c:	88 1f       	adc	r24, r24
    335e:	99 1f       	adc	r25, r25
    3360:	5a 95       	dec	r21
    3362:	a9 f7       	brne	.-22     	; 0x334e <__udivmodhi4_loop>
    3364:	80 95       	com	r24
    3366:	90 95       	com	r25
    3368:	bc 01       	movw	r22, r24
    336a:	cd 01       	movw	r24, r26
    336c:	08 95       	ret

0000336e <__divmodhi4>:
    336e:	97 fb       	bst	r25, 7
    3370:	07 2e       	mov	r0, r23
    3372:	16 f4       	brtc	.+4      	; 0x3378 <__divmodhi4+0xa>
    3374:	00 94       	com	r0
    3376:	07 d0       	rcall	.+14     	; 0x3386 <__divmodhi4_neg1>
    3378:	77 fd       	sbrc	r23, 7
    337a:	09 d0       	rcall	.+18     	; 0x338e <__divmodhi4_neg2>
    337c:	0e 94 a3 19 	call	0x3346	; 0x3346 <__udivmodhi4>
    3380:	07 fc       	sbrc	r0, 7
    3382:	05 d0       	rcall	.+10     	; 0x338e <__divmodhi4_neg2>
    3384:	3e f4       	brtc	.+14     	; 0x3394 <__divmodhi4_exit>

00003386 <__divmodhi4_neg1>:
    3386:	90 95       	com	r25
    3388:	81 95       	neg	r24
    338a:	9f 4f       	sbci	r25, 0xFF	; 255
    338c:	08 95       	ret

0000338e <__divmodhi4_neg2>:
    338e:	70 95       	com	r23
    3390:	61 95       	neg	r22
    3392:	7f 4f       	sbci	r23, 0xFF	; 255

00003394 <__divmodhi4_exit>:
    3394:	08 95       	ret

00003396 <__udivmodsi4>:
    3396:	a1 e2       	ldi	r26, 0x21	; 33
    3398:	1a 2e       	mov	r1, r26
    339a:	aa 1b       	sub	r26, r26
    339c:	bb 1b       	sub	r27, r27
    339e:	fd 01       	movw	r30, r26
    33a0:	0d c0       	rjmp	.+26     	; 0x33bc <__udivmodsi4_ep>

000033a2 <__udivmodsi4_loop>:
    33a2:	aa 1f       	adc	r26, r26
    33a4:	bb 1f       	adc	r27, r27
    33a6:	ee 1f       	adc	r30, r30
    33a8:	ff 1f       	adc	r31, r31
    33aa:	a2 17       	cp	r26, r18
    33ac:	b3 07       	cpc	r27, r19
    33ae:	e4 07       	cpc	r30, r20
    33b0:	f5 07       	cpc	r31, r21
    33b2:	20 f0       	brcs	.+8      	; 0x33bc <__udivmodsi4_ep>
    33b4:	a2 1b       	sub	r26, r18
    33b6:	b3 0b       	sbc	r27, r19
    33b8:	e4 0b       	sbc	r30, r20
    33ba:	f5 0b       	sbc	r31, r21

000033bc <__udivmodsi4_ep>:
    33bc:	66 1f       	adc	r22, r22
    33be:	77 1f       	adc	r23, r23
    33c0:	88 1f       	adc	r24, r24
    33c2:	99 1f       	adc	r25, r25
    33c4:	1a 94       	dec	r1
    33c6:	69 f7       	brne	.-38     	; 0x33a2 <__udivmodsi4_loop>
    33c8:	60 95       	com	r22
    33ca:	70 95       	com	r23
    33cc:	80 95       	com	r24
    33ce:	90 95       	com	r25
    33d0:	9b 01       	movw	r18, r22
    33d2:	ac 01       	movw	r20, r24
    33d4:	bd 01       	movw	r22, r26
    33d6:	cf 01       	movw	r24, r30
    33d8:	08 95       	ret

000033da <__umulhisi3>:
    33da:	a2 9f       	mul	r26, r18
    33dc:	b0 01       	movw	r22, r0
    33de:	b3 9f       	mul	r27, r19
    33e0:	c0 01       	movw	r24, r0
    33e2:	a3 9f       	mul	r26, r19
    33e4:	70 0d       	add	r23, r0
    33e6:	81 1d       	adc	r24, r1
    33e8:	11 24       	eor	r1, r1
    33ea:	91 1d       	adc	r25, r1
    33ec:	b2 9f       	mul	r27, r18
    33ee:	70 0d       	add	r23, r0
    33f0:	81 1d       	adc	r24, r1
    33f2:	11 24       	eor	r1, r1
    33f4:	91 1d       	adc	r25, r1
    33f6:	08 95       	ret

000033f8 <__tablejump2__>:
    33f8:	ee 0f       	add	r30, r30
    33fa:	ff 1f       	adc	r31, r31
    33fc:	00 24       	eor	r0, r0
    33fe:	00 1c       	adc	r0, r0
    3400:	0b be       	out	0x3b, r0	; 59
    3402:	07 90       	elpm	r0, Z+
    3404:	f6 91       	elpm	r31, Z
    3406:	e0 2d       	mov	r30, r0
    3408:	09 94       	ijmp

0000340a <__subsf3>:
    340a:	50 58       	subi	r21, 0x80	; 128

0000340c <__addsf3>:
    340c:	bb 27       	eor	r27, r27
    340e:	aa 27       	eor	r26, r26
    3410:	0e 94 1d 1a 	call	0x343a	; 0x343a <__addsf3x>
    3414:	0c 94 30 1c 	jmp	0x3860	; 0x3860 <__fp_round>
    3418:	0e 94 22 1c 	call	0x3844	; 0x3844 <__fp_pscA>
    341c:	38 f0       	brcs	.+14     	; 0x342c <__addsf3+0x20>
    341e:	0e 94 29 1c 	call	0x3852	; 0x3852 <__fp_pscB>
    3422:	20 f0       	brcs	.+8      	; 0x342c <__addsf3+0x20>
    3424:	39 f4       	brne	.+14     	; 0x3434 <__addsf3+0x28>
    3426:	9f 3f       	cpi	r25, 0xFF	; 255
    3428:	19 f4       	brne	.+6      	; 0x3430 <__addsf3+0x24>
    342a:	26 f4       	brtc	.+8      	; 0x3434 <__addsf3+0x28>
    342c:	0c 94 f8 1b 	jmp	0x37f0	; 0x37f0 <__fp_nan>
    3430:	0e f4       	brtc	.+2      	; 0x3434 <__addsf3+0x28>
    3432:	e0 95       	com	r30
    3434:	e7 fb       	bst	r30, 7
    3436:	0c 94 f2 1b 	jmp	0x37e4	; 0x37e4 <__fp_inf>

0000343a <__addsf3x>:
    343a:	e9 2f       	mov	r30, r25
    343c:	0e 94 41 1c 	call	0x3882	; 0x3882 <__fp_split3>
    3440:	58 f3       	brcs	.-42     	; 0x3418 <__addsf3+0xc>
    3442:	ba 17       	cp	r27, r26
    3444:	62 07       	cpc	r22, r18
    3446:	73 07       	cpc	r23, r19
    3448:	84 07       	cpc	r24, r20
    344a:	95 07       	cpc	r25, r21
    344c:	20 f0       	brcs	.+8      	; 0x3456 <__addsf3x+0x1c>
    344e:	79 f4       	brne	.+30     	; 0x346e <__addsf3x+0x34>
    3450:	a6 f5       	brtc	.+104    	; 0x34ba <__addsf3x+0x80>
    3452:	0c 94 63 1c 	jmp	0x38c6	; 0x38c6 <__fp_zero>
    3456:	0e f4       	brtc	.+2      	; 0x345a <__addsf3x+0x20>
    3458:	e0 95       	com	r30
    345a:	0b 2e       	mov	r0, r27
    345c:	ba 2f       	mov	r27, r26
    345e:	a0 2d       	mov	r26, r0
    3460:	0b 01       	movw	r0, r22
    3462:	b9 01       	movw	r22, r18
    3464:	90 01       	movw	r18, r0
    3466:	0c 01       	movw	r0, r24
    3468:	ca 01       	movw	r24, r20
    346a:	a0 01       	movw	r20, r0
    346c:	11 24       	eor	r1, r1
    346e:	ff 27       	eor	r31, r31
    3470:	59 1b       	sub	r21, r25
    3472:	99 f0       	breq	.+38     	; 0x349a <__addsf3x+0x60>
    3474:	59 3f       	cpi	r21, 0xF9	; 249
    3476:	50 f4       	brcc	.+20     	; 0x348c <__addsf3x+0x52>
    3478:	50 3e       	cpi	r21, 0xE0	; 224
    347a:	68 f1       	brcs	.+90     	; 0x34d6 <__addsf3x+0x9c>
    347c:	1a 16       	cp	r1, r26
    347e:	f0 40       	sbci	r31, 0x00	; 0
    3480:	a2 2f       	mov	r26, r18
    3482:	23 2f       	mov	r18, r19
    3484:	34 2f       	mov	r19, r20
    3486:	44 27       	eor	r20, r20
    3488:	58 5f       	subi	r21, 0xF8	; 248
    348a:	f3 cf       	rjmp	.-26     	; 0x3472 <__addsf3x+0x38>
    348c:	46 95       	lsr	r20
    348e:	37 95       	ror	r19
    3490:	27 95       	ror	r18
    3492:	a7 95       	ror	r26
    3494:	f0 40       	sbci	r31, 0x00	; 0
    3496:	53 95       	inc	r21
    3498:	c9 f7       	brne	.-14     	; 0x348c <__addsf3x+0x52>
    349a:	7e f4       	brtc	.+30     	; 0x34ba <__addsf3x+0x80>
    349c:	1f 16       	cp	r1, r31
    349e:	ba 0b       	sbc	r27, r26
    34a0:	62 0b       	sbc	r22, r18
    34a2:	73 0b       	sbc	r23, r19
    34a4:	84 0b       	sbc	r24, r20
    34a6:	ba f0       	brmi	.+46     	; 0x34d6 <__addsf3x+0x9c>
    34a8:	91 50       	subi	r25, 0x01	; 1
    34aa:	a1 f0       	breq	.+40     	; 0x34d4 <__addsf3x+0x9a>
    34ac:	ff 0f       	add	r31, r31
    34ae:	bb 1f       	adc	r27, r27
    34b0:	66 1f       	adc	r22, r22
    34b2:	77 1f       	adc	r23, r23
    34b4:	88 1f       	adc	r24, r24
    34b6:	c2 f7       	brpl	.-16     	; 0x34a8 <__addsf3x+0x6e>
    34b8:	0e c0       	rjmp	.+28     	; 0x34d6 <__addsf3x+0x9c>
    34ba:	ba 0f       	add	r27, r26
    34bc:	62 1f       	adc	r22, r18
    34be:	73 1f       	adc	r23, r19
    34c0:	84 1f       	adc	r24, r20
    34c2:	48 f4       	brcc	.+18     	; 0x34d6 <__addsf3x+0x9c>
    34c4:	87 95       	ror	r24
    34c6:	77 95       	ror	r23
    34c8:	67 95       	ror	r22
    34ca:	b7 95       	ror	r27
    34cc:	f7 95       	ror	r31
    34ce:	9e 3f       	cpi	r25, 0xFE	; 254
    34d0:	08 f0       	brcs	.+2      	; 0x34d4 <__addsf3x+0x9a>
    34d2:	b0 cf       	rjmp	.-160    	; 0x3434 <__addsf3+0x28>
    34d4:	93 95       	inc	r25
    34d6:	88 0f       	add	r24, r24
    34d8:	08 f0       	brcs	.+2      	; 0x34dc <__addsf3x+0xa2>
    34da:	99 27       	eor	r25, r25
    34dc:	ee 0f       	add	r30, r30
    34de:	97 95       	ror	r25
    34e0:	87 95       	ror	r24
    34e2:	08 95       	ret
    34e4:	0e 94 22 1c 	call	0x3844	; 0x3844 <__fp_pscA>
    34e8:	60 f0       	brcs	.+24     	; 0x3502 <__addsf3x+0xc8>
    34ea:	80 e8       	ldi	r24, 0x80	; 128
    34ec:	91 e0       	ldi	r25, 0x01	; 1
    34ee:	09 f4       	brne	.+2      	; 0x34f2 <__addsf3x+0xb8>
    34f0:	9e ef       	ldi	r25, 0xFE	; 254
    34f2:	0e 94 29 1c 	call	0x3852	; 0x3852 <__fp_pscB>
    34f6:	28 f0       	brcs	.+10     	; 0x3502 <__addsf3x+0xc8>
    34f8:	40 e8       	ldi	r20, 0x80	; 128
    34fa:	51 e0       	ldi	r21, 0x01	; 1
    34fc:	71 f4       	brne	.+28     	; 0x351a <atan2+0x10>
    34fe:	5e ef       	ldi	r21, 0xFE	; 254
    3500:	0c c0       	rjmp	.+24     	; 0x351a <atan2+0x10>
    3502:	0c 94 f8 1b 	jmp	0x37f0	; 0x37f0 <__fp_nan>
    3506:	0c 94 63 1c 	jmp	0x38c6	; 0x38c6 <__fp_zero>

0000350a <atan2>:
    350a:	e9 2f       	mov	r30, r25
    350c:	e0 78       	andi	r30, 0x80	; 128
    350e:	0e 94 41 1c 	call	0x3882	; 0x3882 <__fp_split3>
    3512:	40 f3       	brcs	.-48     	; 0x34e4 <__addsf3x+0xaa>
    3514:	09 2e       	mov	r0, r25
    3516:	05 2a       	or	r0, r21
    3518:	b1 f3       	breq	.-20     	; 0x3506 <__addsf3x+0xcc>
    351a:	26 17       	cp	r18, r22
    351c:	37 07       	cpc	r19, r23
    351e:	48 07       	cpc	r20, r24
    3520:	59 07       	cpc	r21, r25
    3522:	38 f0       	brcs	.+14     	; 0x3532 <atan2+0x28>
    3524:	0e 2e       	mov	r0, r30
    3526:	07 f8       	bld	r0, 7
    3528:	e0 25       	eor	r30, r0
    352a:	69 f0       	breq	.+26     	; 0x3546 <atan2+0x3c>
    352c:	e0 25       	eor	r30, r0
    352e:	e0 64       	ori	r30, 0x40	; 64
    3530:	0a c0       	rjmp	.+20     	; 0x3546 <atan2+0x3c>
    3532:	ef 63       	ori	r30, 0x3F	; 63
    3534:	07 f8       	bld	r0, 7
    3536:	00 94       	com	r0
    3538:	07 fa       	bst	r0, 7
    353a:	db 01       	movw	r26, r22
    353c:	b9 01       	movw	r22, r18
    353e:	9d 01       	movw	r18, r26
    3540:	dc 01       	movw	r26, r24
    3542:	ca 01       	movw	r24, r20
    3544:	ad 01       	movw	r20, r26
    3546:	ef 93       	push	r30
    3548:	0e 94 00 1b 	call	0x3600	; 0x3600 <__divsf3_pse>
    354c:	0e 94 30 1c 	call	0x3860	; 0x3860 <__fp_round>
    3550:	0e 94 b5 1a 	call	0x356a	; 0x356a <atan>
    3554:	5f 91       	pop	r21
    3556:	55 23       	and	r21, r21
    3558:	39 f0       	breq	.+14     	; 0x3568 <atan2+0x5e>
    355a:	2b ed       	ldi	r18, 0xDB	; 219
    355c:	3f e0       	ldi	r19, 0x0F	; 15
    355e:	49 e4       	ldi	r20, 0x49	; 73
    3560:	50 fd       	sbrc	r21, 0
    3562:	49 ec       	ldi	r20, 0xC9	; 201
    3564:	0c 94 06 1a 	jmp	0x340c	; 0x340c <__addsf3>
    3568:	08 95       	ret

0000356a <atan>:
    356a:	df 93       	push	r29
    356c:	dd 27       	eor	r29, r29
    356e:	b9 2f       	mov	r27, r25
    3570:	bf 77       	andi	r27, 0x7F	; 127
    3572:	40 e8       	ldi	r20, 0x80	; 128
    3574:	5f e3       	ldi	r21, 0x3F	; 63
    3576:	16 16       	cp	r1, r22
    3578:	17 06       	cpc	r1, r23
    357a:	48 07       	cpc	r20, r24
    357c:	5b 07       	cpc	r21, r27
    357e:	18 f4       	brcc	.+6      	; 0x3586 <atan+0x1c>
    3580:	d9 2f       	mov	r29, r25
    3582:	0e 94 6f 1c 	call	0x38de	; 0x38de <inverse>
    3586:	9f 93       	push	r25
    3588:	8f 93       	push	r24
    358a:	7f 93       	push	r23
    358c:	6f 93       	push	r22
    358e:	0e 94 e4 1c 	call	0x39c8	; 0x39c8 <square>
    3592:	ec e8       	ldi	r30, 0x8C	; 140
    3594:	f0 e0       	ldi	r31, 0x00	; 0
    3596:	0e 94 fb 1b 	call	0x37f6	; 0x37f6 <__fp_powser>
    359a:	0e 94 30 1c 	call	0x3860	; 0x3860 <__fp_round>
    359e:	2f 91       	pop	r18
    35a0:	3f 91       	pop	r19
    35a2:	4f 91       	pop	r20
    35a4:	5f 91       	pop	r21
    35a6:	0e 94 8a 1c 	call	0x3914	; 0x3914 <__mulsf3x>
    35aa:	dd 23       	and	r29, r29
    35ac:	51 f0       	breq	.+20     	; 0x35c2 <atan+0x58>
    35ae:	90 58       	subi	r25, 0x80	; 128
    35b0:	a2 ea       	ldi	r26, 0xA2	; 162
    35b2:	2a ed       	ldi	r18, 0xDA	; 218
    35b4:	3f e0       	ldi	r19, 0x0F	; 15
    35b6:	49 ec       	ldi	r20, 0xC9	; 201
    35b8:	5f e3       	ldi	r21, 0x3F	; 63
    35ba:	d0 78       	andi	r29, 0x80	; 128
    35bc:	5d 27       	eor	r21, r29
    35be:	0e 94 1d 1a 	call	0x343a	; 0x343a <__addsf3x>
    35c2:	df 91       	pop	r29
    35c4:	0c 94 30 1c 	jmp	0x3860	; 0x3860 <__fp_round>

000035c8 <__cmpsf2>:
    35c8:	0e 94 ce 1b 	call	0x379c	; 0x379c <__fp_cmp>
    35cc:	08 f4       	brcc	.+2      	; 0x35d0 <__cmpsf2+0x8>
    35ce:	81 e0       	ldi	r24, 0x01	; 1
    35d0:	08 95       	ret

000035d2 <__divsf3>:
    35d2:	0e 94 fd 1a 	call	0x35fa	; 0x35fa <__divsf3x>
    35d6:	0c 94 30 1c 	jmp	0x3860	; 0x3860 <__fp_round>
    35da:	0e 94 29 1c 	call	0x3852	; 0x3852 <__fp_pscB>
    35de:	58 f0       	brcs	.+22     	; 0x35f6 <__divsf3+0x24>
    35e0:	0e 94 22 1c 	call	0x3844	; 0x3844 <__fp_pscA>
    35e4:	40 f0       	brcs	.+16     	; 0x35f6 <__divsf3+0x24>
    35e6:	29 f4       	brne	.+10     	; 0x35f2 <__divsf3+0x20>
    35e8:	5f 3f       	cpi	r21, 0xFF	; 255
    35ea:	29 f0       	breq	.+10     	; 0x35f6 <__divsf3+0x24>
    35ec:	0c 94 f2 1b 	jmp	0x37e4	; 0x37e4 <__fp_inf>
    35f0:	51 11       	cpse	r21, r1
    35f2:	0c 94 64 1c 	jmp	0x38c8	; 0x38c8 <__fp_szero>
    35f6:	0c 94 f8 1b 	jmp	0x37f0	; 0x37f0 <__fp_nan>

000035fa <__divsf3x>:
    35fa:	0e 94 41 1c 	call	0x3882	; 0x3882 <__fp_split3>
    35fe:	68 f3       	brcs	.-38     	; 0x35da <__divsf3+0x8>

00003600 <__divsf3_pse>:
    3600:	99 23       	and	r25, r25
    3602:	b1 f3       	breq	.-20     	; 0x35f0 <__divsf3+0x1e>
    3604:	55 23       	and	r21, r21
    3606:	91 f3       	breq	.-28     	; 0x35ec <__divsf3+0x1a>
    3608:	95 1b       	sub	r25, r21
    360a:	55 0b       	sbc	r21, r21
    360c:	bb 27       	eor	r27, r27
    360e:	aa 27       	eor	r26, r26
    3610:	62 17       	cp	r22, r18
    3612:	73 07       	cpc	r23, r19
    3614:	84 07       	cpc	r24, r20
    3616:	38 f0       	brcs	.+14     	; 0x3626 <__divsf3_pse+0x26>
    3618:	9f 5f       	subi	r25, 0xFF	; 255
    361a:	5f 4f       	sbci	r21, 0xFF	; 255
    361c:	22 0f       	add	r18, r18
    361e:	33 1f       	adc	r19, r19
    3620:	44 1f       	adc	r20, r20
    3622:	aa 1f       	adc	r26, r26
    3624:	a9 f3       	breq	.-22     	; 0x3610 <__divsf3_pse+0x10>
    3626:	35 d0       	rcall	.+106    	; 0x3692 <__divsf3_pse+0x92>
    3628:	0e 2e       	mov	r0, r30
    362a:	3a f0       	brmi	.+14     	; 0x363a <__divsf3_pse+0x3a>
    362c:	e0 e8       	ldi	r30, 0x80	; 128
    362e:	32 d0       	rcall	.+100    	; 0x3694 <__divsf3_pse+0x94>
    3630:	91 50       	subi	r25, 0x01	; 1
    3632:	50 40       	sbci	r21, 0x00	; 0
    3634:	e6 95       	lsr	r30
    3636:	00 1c       	adc	r0, r0
    3638:	ca f7       	brpl	.-14     	; 0x362c <__divsf3_pse+0x2c>
    363a:	2b d0       	rcall	.+86     	; 0x3692 <__divsf3_pse+0x92>
    363c:	fe 2f       	mov	r31, r30
    363e:	29 d0       	rcall	.+82     	; 0x3692 <__divsf3_pse+0x92>
    3640:	66 0f       	add	r22, r22
    3642:	77 1f       	adc	r23, r23
    3644:	88 1f       	adc	r24, r24
    3646:	bb 1f       	adc	r27, r27
    3648:	26 17       	cp	r18, r22
    364a:	37 07       	cpc	r19, r23
    364c:	48 07       	cpc	r20, r24
    364e:	ab 07       	cpc	r26, r27
    3650:	b0 e8       	ldi	r27, 0x80	; 128
    3652:	09 f0       	breq	.+2      	; 0x3656 <__divsf3_pse+0x56>
    3654:	bb 0b       	sbc	r27, r27
    3656:	80 2d       	mov	r24, r0
    3658:	bf 01       	movw	r22, r30
    365a:	ff 27       	eor	r31, r31
    365c:	93 58       	subi	r25, 0x83	; 131
    365e:	5f 4f       	sbci	r21, 0xFF	; 255
    3660:	3a f0       	brmi	.+14     	; 0x3670 <__divsf3_pse+0x70>
    3662:	9e 3f       	cpi	r25, 0xFE	; 254
    3664:	51 05       	cpc	r21, r1
    3666:	78 f0       	brcs	.+30     	; 0x3686 <__divsf3_pse+0x86>
    3668:	0c 94 f2 1b 	jmp	0x37e4	; 0x37e4 <__fp_inf>
    366c:	0c 94 64 1c 	jmp	0x38c8	; 0x38c8 <__fp_szero>
    3670:	5f 3f       	cpi	r21, 0xFF	; 255
    3672:	e4 f3       	brlt	.-8      	; 0x366c <__divsf3_pse+0x6c>
    3674:	98 3e       	cpi	r25, 0xE8	; 232
    3676:	d4 f3       	brlt	.-12     	; 0x366c <__divsf3_pse+0x6c>
    3678:	86 95       	lsr	r24
    367a:	77 95       	ror	r23
    367c:	67 95       	ror	r22
    367e:	b7 95       	ror	r27
    3680:	f7 95       	ror	r31
    3682:	9f 5f       	subi	r25, 0xFF	; 255
    3684:	c9 f7       	brne	.-14     	; 0x3678 <__divsf3_pse+0x78>
    3686:	88 0f       	add	r24, r24
    3688:	91 1d       	adc	r25, r1
    368a:	96 95       	lsr	r25
    368c:	87 95       	ror	r24
    368e:	97 f9       	bld	r25, 7
    3690:	08 95       	ret
    3692:	e1 e0       	ldi	r30, 0x01	; 1
    3694:	66 0f       	add	r22, r22
    3696:	77 1f       	adc	r23, r23
    3698:	88 1f       	adc	r24, r24
    369a:	bb 1f       	adc	r27, r27
    369c:	62 17       	cp	r22, r18
    369e:	73 07       	cpc	r23, r19
    36a0:	84 07       	cpc	r24, r20
    36a2:	ba 07       	cpc	r27, r26
    36a4:	20 f0       	brcs	.+8      	; 0x36ae <__divsf3_pse+0xae>
    36a6:	62 1b       	sub	r22, r18
    36a8:	73 0b       	sbc	r23, r19
    36aa:	84 0b       	sbc	r24, r20
    36ac:	ba 0b       	sbc	r27, r26
    36ae:	ee 1f       	adc	r30, r30
    36b0:	88 f7       	brcc	.-30     	; 0x3694 <__divsf3_pse+0x94>
    36b2:	e0 95       	com	r30
    36b4:	08 95       	ret

000036b6 <__fixsfsi>:
    36b6:	0e 94 62 1b 	call	0x36c4	; 0x36c4 <__fixunssfsi>
    36ba:	68 94       	set
    36bc:	b1 11       	cpse	r27, r1
    36be:	0c 94 64 1c 	jmp	0x38c8	; 0x38c8 <__fp_szero>
    36c2:	08 95       	ret

000036c4 <__fixunssfsi>:
    36c4:	0e 94 49 1c 	call	0x3892	; 0x3892 <__fp_splitA>
    36c8:	88 f0       	brcs	.+34     	; 0x36ec <__fixunssfsi+0x28>
    36ca:	9f 57       	subi	r25, 0x7F	; 127
    36cc:	98 f0       	brcs	.+38     	; 0x36f4 <__fixunssfsi+0x30>
    36ce:	b9 2f       	mov	r27, r25
    36d0:	99 27       	eor	r25, r25
    36d2:	b7 51       	subi	r27, 0x17	; 23
    36d4:	b0 f0       	brcs	.+44     	; 0x3702 <__fixunssfsi+0x3e>
    36d6:	e1 f0       	breq	.+56     	; 0x3710 <__fixunssfsi+0x4c>
    36d8:	66 0f       	add	r22, r22
    36da:	77 1f       	adc	r23, r23
    36dc:	88 1f       	adc	r24, r24
    36de:	99 1f       	adc	r25, r25
    36e0:	1a f0       	brmi	.+6      	; 0x36e8 <__fixunssfsi+0x24>
    36e2:	ba 95       	dec	r27
    36e4:	c9 f7       	brne	.-14     	; 0x36d8 <__fixunssfsi+0x14>
    36e6:	14 c0       	rjmp	.+40     	; 0x3710 <__fixunssfsi+0x4c>
    36e8:	b1 30       	cpi	r27, 0x01	; 1
    36ea:	91 f0       	breq	.+36     	; 0x3710 <__fixunssfsi+0x4c>
    36ec:	0e 94 63 1c 	call	0x38c6	; 0x38c6 <__fp_zero>
    36f0:	b1 e0       	ldi	r27, 0x01	; 1
    36f2:	08 95       	ret
    36f4:	0c 94 63 1c 	jmp	0x38c6	; 0x38c6 <__fp_zero>
    36f8:	67 2f       	mov	r22, r23
    36fa:	78 2f       	mov	r23, r24
    36fc:	88 27       	eor	r24, r24
    36fe:	b8 5f       	subi	r27, 0xF8	; 248
    3700:	39 f0       	breq	.+14     	; 0x3710 <__fixunssfsi+0x4c>
    3702:	b9 3f       	cpi	r27, 0xF9	; 249
    3704:	cc f3       	brlt	.-14     	; 0x36f8 <__fixunssfsi+0x34>
    3706:	86 95       	lsr	r24
    3708:	77 95       	ror	r23
    370a:	67 95       	ror	r22
    370c:	b3 95       	inc	r27
    370e:	d9 f7       	brne	.-10     	; 0x3706 <__fixunssfsi+0x42>
    3710:	3e f4       	brtc	.+14     	; 0x3720 <__fixunssfsi+0x5c>
    3712:	90 95       	com	r25
    3714:	80 95       	com	r24
    3716:	70 95       	com	r23
    3718:	61 95       	neg	r22
    371a:	7f 4f       	sbci	r23, 0xFF	; 255
    371c:	8f 4f       	sbci	r24, 0xFF	; 255
    371e:	9f 4f       	sbci	r25, 0xFF	; 255
    3720:	08 95       	ret

00003722 <__floatunsisf>:
    3722:	e8 94       	clt
    3724:	09 c0       	rjmp	.+18     	; 0x3738 <__floatsisf+0x12>

00003726 <__floatsisf>:
    3726:	97 fb       	bst	r25, 7
    3728:	3e f4       	brtc	.+14     	; 0x3738 <__floatsisf+0x12>
    372a:	90 95       	com	r25
    372c:	80 95       	com	r24
    372e:	70 95       	com	r23
    3730:	61 95       	neg	r22
    3732:	7f 4f       	sbci	r23, 0xFF	; 255
    3734:	8f 4f       	sbci	r24, 0xFF	; 255
    3736:	9f 4f       	sbci	r25, 0xFF	; 255
    3738:	99 23       	and	r25, r25
    373a:	a9 f0       	breq	.+42     	; 0x3766 <__floatsisf+0x40>
    373c:	f9 2f       	mov	r31, r25
    373e:	96 e9       	ldi	r25, 0x96	; 150
    3740:	bb 27       	eor	r27, r27
    3742:	93 95       	inc	r25
    3744:	f6 95       	lsr	r31
    3746:	87 95       	ror	r24
    3748:	77 95       	ror	r23
    374a:	67 95       	ror	r22
    374c:	b7 95       	ror	r27
    374e:	f1 11       	cpse	r31, r1
    3750:	f8 cf       	rjmp	.-16     	; 0x3742 <__floatsisf+0x1c>
    3752:	fa f4       	brpl	.+62     	; 0x3792 <__floatsisf+0x6c>
    3754:	bb 0f       	add	r27, r27
    3756:	11 f4       	brne	.+4      	; 0x375c <__floatsisf+0x36>
    3758:	60 ff       	sbrs	r22, 0
    375a:	1b c0       	rjmp	.+54     	; 0x3792 <__floatsisf+0x6c>
    375c:	6f 5f       	subi	r22, 0xFF	; 255
    375e:	7f 4f       	sbci	r23, 0xFF	; 255
    3760:	8f 4f       	sbci	r24, 0xFF	; 255
    3762:	9f 4f       	sbci	r25, 0xFF	; 255
    3764:	16 c0       	rjmp	.+44     	; 0x3792 <__floatsisf+0x6c>
    3766:	88 23       	and	r24, r24
    3768:	11 f0       	breq	.+4      	; 0x376e <__floatsisf+0x48>
    376a:	96 e9       	ldi	r25, 0x96	; 150
    376c:	11 c0       	rjmp	.+34     	; 0x3790 <__floatsisf+0x6a>
    376e:	77 23       	and	r23, r23
    3770:	21 f0       	breq	.+8      	; 0x377a <__floatsisf+0x54>
    3772:	9e e8       	ldi	r25, 0x8E	; 142
    3774:	87 2f       	mov	r24, r23
    3776:	76 2f       	mov	r23, r22
    3778:	05 c0       	rjmp	.+10     	; 0x3784 <__floatsisf+0x5e>
    377a:	66 23       	and	r22, r22
    377c:	71 f0       	breq	.+28     	; 0x379a <__floatsisf+0x74>
    377e:	96 e8       	ldi	r25, 0x86	; 134
    3780:	86 2f       	mov	r24, r22
    3782:	70 e0       	ldi	r23, 0x00	; 0
    3784:	60 e0       	ldi	r22, 0x00	; 0
    3786:	2a f0       	brmi	.+10     	; 0x3792 <__floatsisf+0x6c>
    3788:	9a 95       	dec	r25
    378a:	66 0f       	add	r22, r22
    378c:	77 1f       	adc	r23, r23
    378e:	88 1f       	adc	r24, r24
    3790:	da f7       	brpl	.-10     	; 0x3788 <__floatsisf+0x62>
    3792:	88 0f       	add	r24, r24
    3794:	96 95       	lsr	r25
    3796:	87 95       	ror	r24
    3798:	97 f9       	bld	r25, 7
    379a:	08 95       	ret

0000379c <__fp_cmp>:
    379c:	99 0f       	add	r25, r25
    379e:	00 08       	sbc	r0, r0
    37a0:	55 0f       	add	r21, r21
    37a2:	aa 0b       	sbc	r26, r26
    37a4:	e0 e8       	ldi	r30, 0x80	; 128
    37a6:	fe ef       	ldi	r31, 0xFE	; 254
    37a8:	16 16       	cp	r1, r22
    37aa:	17 06       	cpc	r1, r23
    37ac:	e8 07       	cpc	r30, r24
    37ae:	f9 07       	cpc	r31, r25
    37b0:	c0 f0       	brcs	.+48     	; 0x37e2 <__fp_cmp+0x46>
    37b2:	12 16       	cp	r1, r18
    37b4:	13 06       	cpc	r1, r19
    37b6:	e4 07       	cpc	r30, r20
    37b8:	f5 07       	cpc	r31, r21
    37ba:	98 f0       	brcs	.+38     	; 0x37e2 <__fp_cmp+0x46>
    37bc:	62 1b       	sub	r22, r18
    37be:	73 0b       	sbc	r23, r19
    37c0:	84 0b       	sbc	r24, r20
    37c2:	95 0b       	sbc	r25, r21
    37c4:	39 f4       	brne	.+14     	; 0x37d4 <__fp_cmp+0x38>
    37c6:	0a 26       	eor	r0, r26
    37c8:	61 f0       	breq	.+24     	; 0x37e2 <__fp_cmp+0x46>
    37ca:	23 2b       	or	r18, r19
    37cc:	24 2b       	or	r18, r20
    37ce:	25 2b       	or	r18, r21
    37d0:	21 f4       	brne	.+8      	; 0x37da <__fp_cmp+0x3e>
    37d2:	08 95       	ret
    37d4:	0a 26       	eor	r0, r26
    37d6:	09 f4       	brne	.+2      	; 0x37da <__fp_cmp+0x3e>
    37d8:	a1 40       	sbci	r26, 0x01	; 1
    37da:	a6 95       	lsr	r26
    37dc:	8f ef       	ldi	r24, 0xFF	; 255
    37de:	81 1d       	adc	r24, r1
    37e0:	81 1d       	adc	r24, r1
    37e2:	08 95       	ret

000037e4 <__fp_inf>:
    37e4:	97 f9       	bld	r25, 7
    37e6:	9f 67       	ori	r25, 0x7F	; 127
    37e8:	80 e8       	ldi	r24, 0x80	; 128
    37ea:	70 e0       	ldi	r23, 0x00	; 0
    37ec:	60 e0       	ldi	r22, 0x00	; 0
    37ee:	08 95       	ret

000037f0 <__fp_nan>:
    37f0:	9f ef       	ldi	r25, 0xFF	; 255
    37f2:	80 ec       	ldi	r24, 0xC0	; 192
    37f4:	08 95       	ret

000037f6 <__fp_powser>:
    37f6:	df 93       	push	r29
    37f8:	cf 93       	push	r28
    37fa:	1f 93       	push	r17
    37fc:	0f 93       	push	r16
    37fe:	ff 92       	push	r15
    3800:	ef 92       	push	r14
    3802:	df 92       	push	r13
    3804:	7b 01       	movw	r14, r22
    3806:	8c 01       	movw	r16, r24
    3808:	68 94       	set
    380a:	06 c0       	rjmp	.+12     	; 0x3818 <__fp_powser+0x22>
    380c:	da 2e       	mov	r13, r26
    380e:	ef 01       	movw	r28, r30
    3810:	0e 94 8a 1c 	call	0x3914	; 0x3914 <__mulsf3x>
    3814:	fe 01       	movw	r30, r28
    3816:	e8 94       	clt
    3818:	a5 91       	lpm	r26, Z+
    381a:	25 91       	lpm	r18, Z+
    381c:	35 91       	lpm	r19, Z+
    381e:	45 91       	lpm	r20, Z+
    3820:	55 91       	lpm	r21, Z+
    3822:	a6 f3       	brts	.-24     	; 0x380c <__fp_powser+0x16>
    3824:	ef 01       	movw	r28, r30
    3826:	0e 94 1d 1a 	call	0x343a	; 0x343a <__addsf3x>
    382a:	fe 01       	movw	r30, r28
    382c:	97 01       	movw	r18, r14
    382e:	a8 01       	movw	r20, r16
    3830:	da 94       	dec	r13
    3832:	69 f7       	brne	.-38     	; 0x380e <__fp_powser+0x18>
    3834:	df 90       	pop	r13
    3836:	ef 90       	pop	r14
    3838:	ff 90       	pop	r15
    383a:	0f 91       	pop	r16
    383c:	1f 91       	pop	r17
    383e:	cf 91       	pop	r28
    3840:	df 91       	pop	r29
    3842:	08 95       	ret

00003844 <__fp_pscA>:
    3844:	00 24       	eor	r0, r0
    3846:	0a 94       	dec	r0
    3848:	16 16       	cp	r1, r22
    384a:	17 06       	cpc	r1, r23
    384c:	18 06       	cpc	r1, r24
    384e:	09 06       	cpc	r0, r25
    3850:	08 95       	ret

00003852 <__fp_pscB>:
    3852:	00 24       	eor	r0, r0
    3854:	0a 94       	dec	r0
    3856:	12 16       	cp	r1, r18
    3858:	13 06       	cpc	r1, r19
    385a:	14 06       	cpc	r1, r20
    385c:	05 06       	cpc	r0, r21
    385e:	08 95       	ret

00003860 <__fp_round>:
    3860:	09 2e       	mov	r0, r25
    3862:	03 94       	inc	r0
    3864:	00 0c       	add	r0, r0
    3866:	11 f4       	brne	.+4      	; 0x386c <__fp_round+0xc>
    3868:	88 23       	and	r24, r24
    386a:	52 f0       	brmi	.+20     	; 0x3880 <__fp_round+0x20>
    386c:	bb 0f       	add	r27, r27
    386e:	40 f4       	brcc	.+16     	; 0x3880 <__fp_round+0x20>
    3870:	bf 2b       	or	r27, r31
    3872:	11 f4       	brne	.+4      	; 0x3878 <__fp_round+0x18>
    3874:	60 ff       	sbrs	r22, 0
    3876:	04 c0       	rjmp	.+8      	; 0x3880 <__fp_round+0x20>
    3878:	6f 5f       	subi	r22, 0xFF	; 255
    387a:	7f 4f       	sbci	r23, 0xFF	; 255
    387c:	8f 4f       	sbci	r24, 0xFF	; 255
    387e:	9f 4f       	sbci	r25, 0xFF	; 255
    3880:	08 95       	ret

00003882 <__fp_split3>:
    3882:	57 fd       	sbrc	r21, 7
    3884:	90 58       	subi	r25, 0x80	; 128
    3886:	44 0f       	add	r20, r20
    3888:	55 1f       	adc	r21, r21
    388a:	59 f0       	breq	.+22     	; 0x38a2 <__fp_splitA+0x10>
    388c:	5f 3f       	cpi	r21, 0xFF	; 255
    388e:	71 f0       	breq	.+28     	; 0x38ac <__fp_splitA+0x1a>
    3890:	47 95       	ror	r20

00003892 <__fp_splitA>:
    3892:	88 0f       	add	r24, r24
    3894:	97 fb       	bst	r25, 7
    3896:	99 1f       	adc	r25, r25
    3898:	61 f0       	breq	.+24     	; 0x38b2 <__fp_splitA+0x20>
    389a:	9f 3f       	cpi	r25, 0xFF	; 255
    389c:	79 f0       	breq	.+30     	; 0x38bc <__fp_splitA+0x2a>
    389e:	87 95       	ror	r24
    38a0:	08 95       	ret
    38a2:	12 16       	cp	r1, r18
    38a4:	13 06       	cpc	r1, r19
    38a6:	14 06       	cpc	r1, r20
    38a8:	55 1f       	adc	r21, r21
    38aa:	f2 cf       	rjmp	.-28     	; 0x3890 <__fp_split3+0xe>
    38ac:	46 95       	lsr	r20
    38ae:	f1 df       	rcall	.-30     	; 0x3892 <__fp_splitA>
    38b0:	08 c0       	rjmp	.+16     	; 0x38c2 <__fp_splitA+0x30>
    38b2:	16 16       	cp	r1, r22
    38b4:	17 06       	cpc	r1, r23
    38b6:	18 06       	cpc	r1, r24
    38b8:	99 1f       	adc	r25, r25
    38ba:	f1 cf       	rjmp	.-30     	; 0x389e <__fp_splitA+0xc>
    38bc:	86 95       	lsr	r24
    38be:	71 05       	cpc	r23, r1
    38c0:	61 05       	cpc	r22, r1
    38c2:	08 94       	sec
    38c4:	08 95       	ret

000038c6 <__fp_zero>:
    38c6:	e8 94       	clt

000038c8 <__fp_szero>:
    38c8:	bb 27       	eor	r27, r27
    38ca:	66 27       	eor	r22, r22
    38cc:	77 27       	eor	r23, r23
    38ce:	cb 01       	movw	r24, r22
    38d0:	97 f9       	bld	r25, 7
    38d2:	08 95       	ret

000038d4 <__gesf2>:
    38d4:	0e 94 ce 1b 	call	0x379c	; 0x379c <__fp_cmp>
    38d8:	08 f4       	brcc	.+2      	; 0x38dc <__gesf2+0x8>
    38da:	8f ef       	ldi	r24, 0xFF	; 255
    38dc:	08 95       	ret

000038de <inverse>:
    38de:	9b 01       	movw	r18, r22
    38e0:	ac 01       	movw	r20, r24
    38e2:	60 e0       	ldi	r22, 0x00	; 0
    38e4:	70 e0       	ldi	r23, 0x00	; 0
    38e6:	80 e8       	ldi	r24, 0x80	; 128
    38e8:	9f e3       	ldi	r25, 0x3F	; 63
    38ea:	0c 94 e9 1a 	jmp	0x35d2	; 0x35d2 <__divsf3>

000038ee <__mulsf3>:
    38ee:	0e 94 8a 1c 	call	0x3914	; 0x3914 <__mulsf3x>
    38f2:	0c 94 30 1c 	jmp	0x3860	; 0x3860 <__fp_round>
    38f6:	0e 94 22 1c 	call	0x3844	; 0x3844 <__fp_pscA>
    38fa:	38 f0       	brcs	.+14     	; 0x390a <__mulsf3+0x1c>
    38fc:	0e 94 29 1c 	call	0x3852	; 0x3852 <__fp_pscB>
    3900:	20 f0       	brcs	.+8      	; 0x390a <__mulsf3+0x1c>
    3902:	95 23       	and	r25, r21
    3904:	11 f0       	breq	.+4      	; 0x390a <__mulsf3+0x1c>
    3906:	0c 94 f2 1b 	jmp	0x37e4	; 0x37e4 <__fp_inf>
    390a:	0c 94 f8 1b 	jmp	0x37f0	; 0x37f0 <__fp_nan>
    390e:	11 24       	eor	r1, r1
    3910:	0c 94 64 1c 	jmp	0x38c8	; 0x38c8 <__fp_szero>

00003914 <__mulsf3x>:
    3914:	0e 94 41 1c 	call	0x3882	; 0x3882 <__fp_split3>
    3918:	70 f3       	brcs	.-36     	; 0x38f6 <__mulsf3+0x8>

0000391a <__mulsf3_pse>:
    391a:	95 9f       	mul	r25, r21
    391c:	c1 f3       	breq	.-16     	; 0x390e <__mulsf3+0x20>
    391e:	95 0f       	add	r25, r21
    3920:	50 e0       	ldi	r21, 0x00	; 0
    3922:	55 1f       	adc	r21, r21
    3924:	62 9f       	mul	r22, r18
    3926:	f0 01       	movw	r30, r0
    3928:	72 9f       	mul	r23, r18
    392a:	bb 27       	eor	r27, r27
    392c:	f0 0d       	add	r31, r0
    392e:	b1 1d       	adc	r27, r1
    3930:	63 9f       	mul	r22, r19
    3932:	aa 27       	eor	r26, r26
    3934:	f0 0d       	add	r31, r0
    3936:	b1 1d       	adc	r27, r1
    3938:	aa 1f       	adc	r26, r26
    393a:	64 9f       	mul	r22, r20
    393c:	66 27       	eor	r22, r22
    393e:	b0 0d       	add	r27, r0
    3940:	a1 1d       	adc	r26, r1
    3942:	66 1f       	adc	r22, r22
    3944:	82 9f       	mul	r24, r18
    3946:	22 27       	eor	r18, r18
    3948:	b0 0d       	add	r27, r0
    394a:	a1 1d       	adc	r26, r1
    394c:	62 1f       	adc	r22, r18
    394e:	73 9f       	mul	r23, r19
    3950:	b0 0d       	add	r27, r0
    3952:	a1 1d       	adc	r26, r1
    3954:	62 1f       	adc	r22, r18
    3956:	83 9f       	mul	r24, r19
    3958:	a0 0d       	add	r26, r0
    395a:	61 1d       	adc	r22, r1
    395c:	22 1f       	adc	r18, r18
    395e:	74 9f       	mul	r23, r20
    3960:	33 27       	eor	r19, r19
    3962:	a0 0d       	add	r26, r0
    3964:	61 1d       	adc	r22, r1
    3966:	23 1f       	adc	r18, r19
    3968:	84 9f       	mul	r24, r20
    396a:	60 0d       	add	r22, r0
    396c:	21 1d       	adc	r18, r1
    396e:	82 2f       	mov	r24, r18
    3970:	76 2f       	mov	r23, r22
    3972:	6a 2f       	mov	r22, r26
    3974:	11 24       	eor	r1, r1
    3976:	9f 57       	subi	r25, 0x7F	; 127
    3978:	50 40       	sbci	r21, 0x00	; 0
    397a:	9a f0       	brmi	.+38     	; 0x39a2 <__mulsf3_pse+0x88>
    397c:	f1 f0       	breq	.+60     	; 0x39ba <__mulsf3_pse+0xa0>
    397e:	88 23       	and	r24, r24
    3980:	4a f0       	brmi	.+18     	; 0x3994 <__mulsf3_pse+0x7a>
    3982:	ee 0f       	add	r30, r30
    3984:	ff 1f       	adc	r31, r31
    3986:	bb 1f       	adc	r27, r27
    3988:	66 1f       	adc	r22, r22
    398a:	77 1f       	adc	r23, r23
    398c:	88 1f       	adc	r24, r24
    398e:	91 50       	subi	r25, 0x01	; 1
    3990:	50 40       	sbci	r21, 0x00	; 0
    3992:	a9 f7       	brne	.-22     	; 0x397e <__mulsf3_pse+0x64>
    3994:	9e 3f       	cpi	r25, 0xFE	; 254
    3996:	51 05       	cpc	r21, r1
    3998:	80 f0       	brcs	.+32     	; 0x39ba <__mulsf3_pse+0xa0>
    399a:	0c 94 f2 1b 	jmp	0x37e4	; 0x37e4 <__fp_inf>
    399e:	0c 94 64 1c 	jmp	0x38c8	; 0x38c8 <__fp_szero>
    39a2:	5f 3f       	cpi	r21, 0xFF	; 255
    39a4:	e4 f3       	brlt	.-8      	; 0x399e <__mulsf3_pse+0x84>
    39a6:	98 3e       	cpi	r25, 0xE8	; 232
    39a8:	d4 f3       	brlt	.-12     	; 0x399e <__mulsf3_pse+0x84>
    39aa:	86 95       	lsr	r24
    39ac:	77 95       	ror	r23
    39ae:	67 95       	ror	r22
    39b0:	b7 95       	ror	r27
    39b2:	f7 95       	ror	r31
    39b4:	e7 95       	ror	r30
    39b6:	9f 5f       	subi	r25, 0xFF	; 255
    39b8:	c1 f7       	brne	.-16     	; 0x39aa <__mulsf3_pse+0x90>
    39ba:	fe 2b       	or	r31, r30
    39bc:	88 0f       	add	r24, r24
    39be:	91 1d       	adc	r25, r1
    39c0:	96 95       	lsr	r25
    39c2:	87 95       	ror	r24
    39c4:	97 f9       	bld	r25, 7
    39c6:	08 95       	ret

000039c8 <square>:
    39c8:	9b 01       	movw	r18, r22
    39ca:	ac 01       	movw	r20, r24
    39cc:	0c 94 77 1c 	jmp	0x38ee	; 0x38ee <__mulsf3>

000039d0 <malloc>:
    39d0:	0f 93       	push	r16
    39d2:	1f 93       	push	r17
    39d4:	cf 93       	push	r28
    39d6:	df 93       	push	r29
    39d8:	82 30       	cpi	r24, 0x02	; 2
    39da:	91 05       	cpc	r25, r1
    39dc:	10 f4       	brcc	.+4      	; 0x39e2 <malloc+0x12>
    39de:	82 e0       	ldi	r24, 0x02	; 2
    39e0:	90 e0       	ldi	r25, 0x00	; 0
    39e2:	e0 91 05 03 	lds	r30, 0x0305	; 0x800305 <__flp>
    39e6:	f0 91 06 03 	lds	r31, 0x0306	; 0x800306 <__flp+0x1>
    39ea:	20 e0       	ldi	r18, 0x00	; 0
    39ec:	30 e0       	ldi	r19, 0x00	; 0
    39ee:	a0 e0       	ldi	r26, 0x00	; 0
    39f0:	b0 e0       	ldi	r27, 0x00	; 0
    39f2:	30 97       	sbiw	r30, 0x00	; 0
    39f4:	19 f1       	breq	.+70     	; 0x3a3c <malloc+0x6c>
    39f6:	40 81       	ld	r20, Z
    39f8:	51 81       	ldd	r21, Z+1	; 0x01
    39fa:	02 81       	ldd	r16, Z+2	; 0x02
    39fc:	13 81       	ldd	r17, Z+3	; 0x03
    39fe:	48 17       	cp	r20, r24
    3a00:	59 07       	cpc	r21, r25
    3a02:	c8 f0       	brcs	.+50     	; 0x3a36 <malloc+0x66>
    3a04:	84 17       	cp	r24, r20
    3a06:	95 07       	cpc	r25, r21
    3a08:	69 f4       	brne	.+26     	; 0x3a24 <malloc+0x54>
    3a0a:	10 97       	sbiw	r26, 0x00	; 0
    3a0c:	31 f0       	breq	.+12     	; 0x3a1a <malloc+0x4a>
    3a0e:	12 96       	adiw	r26, 0x02	; 2
    3a10:	0c 93       	st	X, r16
    3a12:	12 97       	sbiw	r26, 0x02	; 2
    3a14:	13 96       	adiw	r26, 0x03	; 3
    3a16:	1c 93       	st	X, r17
    3a18:	27 c0       	rjmp	.+78     	; 0x3a68 <malloc+0x98>
    3a1a:	00 93 05 03 	sts	0x0305, r16	; 0x800305 <__flp>
    3a1e:	10 93 06 03 	sts	0x0306, r17	; 0x800306 <__flp+0x1>
    3a22:	22 c0       	rjmp	.+68     	; 0x3a68 <malloc+0x98>
    3a24:	21 15       	cp	r18, r1
    3a26:	31 05       	cpc	r19, r1
    3a28:	19 f0       	breq	.+6      	; 0x3a30 <malloc+0x60>
    3a2a:	42 17       	cp	r20, r18
    3a2c:	53 07       	cpc	r21, r19
    3a2e:	18 f4       	brcc	.+6      	; 0x3a36 <malloc+0x66>
    3a30:	9a 01       	movw	r18, r20
    3a32:	bd 01       	movw	r22, r26
    3a34:	ef 01       	movw	r28, r30
    3a36:	df 01       	movw	r26, r30
    3a38:	f8 01       	movw	r30, r16
    3a3a:	db cf       	rjmp	.-74     	; 0x39f2 <malloc+0x22>
    3a3c:	21 15       	cp	r18, r1
    3a3e:	31 05       	cpc	r19, r1
    3a40:	f9 f0       	breq	.+62     	; 0x3a80 <malloc+0xb0>
    3a42:	28 1b       	sub	r18, r24
    3a44:	39 0b       	sbc	r19, r25
    3a46:	24 30       	cpi	r18, 0x04	; 4
    3a48:	31 05       	cpc	r19, r1
    3a4a:	80 f4       	brcc	.+32     	; 0x3a6c <malloc+0x9c>
    3a4c:	8a 81       	ldd	r24, Y+2	; 0x02
    3a4e:	9b 81       	ldd	r25, Y+3	; 0x03
    3a50:	61 15       	cp	r22, r1
    3a52:	71 05       	cpc	r23, r1
    3a54:	21 f0       	breq	.+8      	; 0x3a5e <malloc+0x8e>
    3a56:	fb 01       	movw	r30, r22
    3a58:	93 83       	std	Z+3, r25	; 0x03
    3a5a:	82 83       	std	Z+2, r24	; 0x02
    3a5c:	04 c0       	rjmp	.+8      	; 0x3a66 <malloc+0x96>
    3a5e:	90 93 06 03 	sts	0x0306, r25	; 0x800306 <__flp+0x1>
    3a62:	80 93 05 03 	sts	0x0305, r24	; 0x800305 <__flp>
    3a66:	fe 01       	movw	r30, r28
    3a68:	32 96       	adiw	r30, 0x02	; 2
    3a6a:	44 c0       	rjmp	.+136    	; 0x3af4 <malloc+0x124>
    3a6c:	fe 01       	movw	r30, r28
    3a6e:	e2 0f       	add	r30, r18
    3a70:	f3 1f       	adc	r31, r19
    3a72:	81 93       	st	Z+, r24
    3a74:	91 93       	st	Z+, r25
    3a76:	22 50       	subi	r18, 0x02	; 2
    3a78:	31 09       	sbc	r19, r1
    3a7a:	39 83       	std	Y+1, r19	; 0x01
    3a7c:	28 83       	st	Y, r18
    3a7e:	3a c0       	rjmp	.+116    	; 0x3af4 <malloc+0x124>
    3a80:	20 91 03 03 	lds	r18, 0x0303	; 0x800303 <__brkval>
    3a84:	30 91 04 03 	lds	r19, 0x0304	; 0x800304 <__brkval+0x1>
    3a88:	23 2b       	or	r18, r19
    3a8a:	41 f4       	brne	.+16     	; 0x3a9c <malloc+0xcc>
    3a8c:	20 91 04 01 	lds	r18, 0x0104	; 0x800104 <__malloc_heap_start>
    3a90:	30 91 05 01 	lds	r19, 0x0105	; 0x800105 <__malloc_heap_start+0x1>
    3a94:	30 93 04 03 	sts	0x0304, r19	; 0x800304 <__brkval+0x1>
    3a98:	20 93 03 03 	sts	0x0303, r18	; 0x800303 <__brkval>
    3a9c:	20 91 02 01 	lds	r18, 0x0102	; 0x800102 <__malloc_heap_end>
    3aa0:	30 91 03 01 	lds	r19, 0x0103	; 0x800103 <__malloc_heap_end+0x1>
    3aa4:	21 15       	cp	r18, r1
    3aa6:	31 05       	cpc	r19, r1
    3aa8:	41 f4       	brne	.+16     	; 0x3aba <malloc+0xea>
    3aaa:	2d b7       	in	r18, 0x3d	; 61
    3aac:	3e b7       	in	r19, 0x3e	; 62
    3aae:	40 91 06 01 	lds	r20, 0x0106	; 0x800106 <__malloc_margin>
    3ab2:	50 91 07 01 	lds	r21, 0x0107	; 0x800107 <__malloc_margin+0x1>
    3ab6:	24 1b       	sub	r18, r20
    3ab8:	35 0b       	sbc	r19, r21
    3aba:	e0 91 03 03 	lds	r30, 0x0303	; 0x800303 <__brkval>
    3abe:	f0 91 04 03 	lds	r31, 0x0304	; 0x800304 <__brkval+0x1>
    3ac2:	e2 17       	cp	r30, r18
    3ac4:	f3 07       	cpc	r31, r19
    3ac6:	a0 f4       	brcc	.+40     	; 0x3af0 <malloc+0x120>
    3ac8:	2e 1b       	sub	r18, r30
    3aca:	3f 0b       	sbc	r19, r31
    3acc:	28 17       	cp	r18, r24
    3ace:	39 07       	cpc	r19, r25
    3ad0:	78 f0       	brcs	.+30     	; 0x3af0 <malloc+0x120>
    3ad2:	ac 01       	movw	r20, r24
    3ad4:	4e 5f       	subi	r20, 0xFE	; 254
    3ad6:	5f 4f       	sbci	r21, 0xFF	; 255
    3ad8:	24 17       	cp	r18, r20
    3ada:	35 07       	cpc	r19, r21
    3adc:	48 f0       	brcs	.+18     	; 0x3af0 <malloc+0x120>
    3ade:	4e 0f       	add	r20, r30
    3ae0:	5f 1f       	adc	r21, r31
    3ae2:	50 93 04 03 	sts	0x0304, r21	; 0x800304 <__brkval+0x1>
    3ae6:	40 93 03 03 	sts	0x0303, r20	; 0x800303 <__brkval>
    3aea:	81 93       	st	Z+, r24
    3aec:	91 93       	st	Z+, r25
    3aee:	02 c0       	rjmp	.+4      	; 0x3af4 <malloc+0x124>
    3af0:	e0 e0       	ldi	r30, 0x00	; 0
    3af2:	f0 e0       	ldi	r31, 0x00	; 0
    3af4:	cf 01       	movw	r24, r30
    3af6:	df 91       	pop	r29
    3af8:	cf 91       	pop	r28
    3afa:	1f 91       	pop	r17
    3afc:	0f 91       	pop	r16
    3afe:	08 95       	ret

00003b00 <free>:
    3b00:	cf 93       	push	r28
    3b02:	df 93       	push	r29
    3b04:	00 97       	sbiw	r24, 0x00	; 0
    3b06:	09 f4       	brne	.+2      	; 0x3b0a <free+0xa>
    3b08:	81 c0       	rjmp	.+258    	; 0x3c0c <free+0x10c>
    3b0a:	fc 01       	movw	r30, r24
    3b0c:	32 97       	sbiw	r30, 0x02	; 2
    3b0e:	13 82       	std	Z+3, r1	; 0x03
    3b10:	12 82       	std	Z+2, r1	; 0x02
    3b12:	a0 91 05 03 	lds	r26, 0x0305	; 0x800305 <__flp>
    3b16:	b0 91 06 03 	lds	r27, 0x0306	; 0x800306 <__flp+0x1>
    3b1a:	10 97       	sbiw	r26, 0x00	; 0
    3b1c:	81 f4       	brne	.+32     	; 0x3b3e <free+0x3e>
    3b1e:	20 81       	ld	r18, Z
    3b20:	31 81       	ldd	r19, Z+1	; 0x01
    3b22:	82 0f       	add	r24, r18
    3b24:	93 1f       	adc	r25, r19
    3b26:	20 91 03 03 	lds	r18, 0x0303	; 0x800303 <__brkval>
    3b2a:	30 91 04 03 	lds	r19, 0x0304	; 0x800304 <__brkval+0x1>
    3b2e:	28 17       	cp	r18, r24
    3b30:	39 07       	cpc	r19, r25
    3b32:	51 f5       	brne	.+84     	; 0x3b88 <free+0x88>
    3b34:	f0 93 04 03 	sts	0x0304, r31	; 0x800304 <__brkval+0x1>
    3b38:	e0 93 03 03 	sts	0x0303, r30	; 0x800303 <__brkval>
    3b3c:	67 c0       	rjmp	.+206    	; 0x3c0c <free+0x10c>
    3b3e:	ed 01       	movw	r28, r26
    3b40:	20 e0       	ldi	r18, 0x00	; 0
    3b42:	30 e0       	ldi	r19, 0x00	; 0
    3b44:	ce 17       	cp	r28, r30
    3b46:	df 07       	cpc	r29, r31
    3b48:	40 f4       	brcc	.+16     	; 0x3b5a <free+0x5a>
    3b4a:	4a 81       	ldd	r20, Y+2	; 0x02
    3b4c:	5b 81       	ldd	r21, Y+3	; 0x03
    3b4e:	9e 01       	movw	r18, r28
    3b50:	41 15       	cp	r20, r1
    3b52:	51 05       	cpc	r21, r1
    3b54:	f1 f0       	breq	.+60     	; 0x3b92 <free+0x92>
    3b56:	ea 01       	movw	r28, r20
    3b58:	f5 cf       	rjmp	.-22     	; 0x3b44 <free+0x44>
    3b5a:	d3 83       	std	Z+3, r29	; 0x03
    3b5c:	c2 83       	std	Z+2, r28	; 0x02
    3b5e:	40 81       	ld	r20, Z
    3b60:	51 81       	ldd	r21, Z+1	; 0x01
    3b62:	84 0f       	add	r24, r20
    3b64:	95 1f       	adc	r25, r21
    3b66:	c8 17       	cp	r28, r24
    3b68:	d9 07       	cpc	r29, r25
    3b6a:	59 f4       	brne	.+22     	; 0x3b82 <free+0x82>
    3b6c:	88 81       	ld	r24, Y
    3b6e:	99 81       	ldd	r25, Y+1	; 0x01
    3b70:	84 0f       	add	r24, r20
    3b72:	95 1f       	adc	r25, r21
    3b74:	02 96       	adiw	r24, 0x02	; 2
    3b76:	91 83       	std	Z+1, r25	; 0x01
    3b78:	80 83       	st	Z, r24
    3b7a:	8a 81       	ldd	r24, Y+2	; 0x02
    3b7c:	9b 81       	ldd	r25, Y+3	; 0x03
    3b7e:	93 83       	std	Z+3, r25	; 0x03
    3b80:	82 83       	std	Z+2, r24	; 0x02
    3b82:	21 15       	cp	r18, r1
    3b84:	31 05       	cpc	r19, r1
    3b86:	29 f4       	brne	.+10     	; 0x3b92 <free+0x92>
    3b88:	f0 93 06 03 	sts	0x0306, r31	; 0x800306 <__flp+0x1>
    3b8c:	e0 93 05 03 	sts	0x0305, r30	; 0x800305 <__flp>
    3b90:	3d c0       	rjmp	.+122    	; 0x3c0c <free+0x10c>
    3b92:	e9 01       	movw	r28, r18
    3b94:	fb 83       	std	Y+3, r31	; 0x03
    3b96:	ea 83       	std	Y+2, r30	; 0x02
    3b98:	49 91       	ld	r20, Y+
    3b9a:	59 91       	ld	r21, Y+
    3b9c:	c4 0f       	add	r28, r20
    3b9e:	d5 1f       	adc	r29, r21
    3ba0:	ec 17       	cp	r30, r28
    3ba2:	fd 07       	cpc	r31, r29
    3ba4:	61 f4       	brne	.+24     	; 0x3bbe <free+0xbe>
    3ba6:	80 81       	ld	r24, Z
    3ba8:	91 81       	ldd	r25, Z+1	; 0x01
    3baa:	84 0f       	add	r24, r20
    3bac:	95 1f       	adc	r25, r21
    3bae:	02 96       	adiw	r24, 0x02	; 2
    3bb0:	e9 01       	movw	r28, r18
    3bb2:	99 83       	std	Y+1, r25	; 0x01
    3bb4:	88 83       	st	Y, r24
    3bb6:	82 81       	ldd	r24, Z+2	; 0x02
    3bb8:	93 81       	ldd	r25, Z+3	; 0x03
    3bba:	9b 83       	std	Y+3, r25	; 0x03
    3bbc:	8a 83       	std	Y+2, r24	; 0x02
    3bbe:	e0 e0       	ldi	r30, 0x00	; 0
    3bc0:	f0 e0       	ldi	r31, 0x00	; 0
    3bc2:	12 96       	adiw	r26, 0x02	; 2
    3bc4:	8d 91       	ld	r24, X+
    3bc6:	9c 91       	ld	r25, X
    3bc8:	13 97       	sbiw	r26, 0x03	; 3
    3bca:	00 97       	sbiw	r24, 0x00	; 0
    3bcc:	19 f0       	breq	.+6      	; 0x3bd4 <free+0xd4>
    3bce:	fd 01       	movw	r30, r26
    3bd0:	dc 01       	movw	r26, r24
    3bd2:	f7 cf       	rjmp	.-18     	; 0x3bc2 <free+0xc2>
    3bd4:	8d 91       	ld	r24, X+
    3bd6:	9c 91       	ld	r25, X
    3bd8:	11 97       	sbiw	r26, 0x01	; 1
    3bda:	9d 01       	movw	r18, r26
    3bdc:	2e 5f       	subi	r18, 0xFE	; 254
    3bde:	3f 4f       	sbci	r19, 0xFF	; 255
    3be0:	82 0f       	add	r24, r18
    3be2:	93 1f       	adc	r25, r19
    3be4:	20 91 03 03 	lds	r18, 0x0303	; 0x800303 <__brkval>
    3be8:	30 91 04 03 	lds	r19, 0x0304	; 0x800304 <__brkval+0x1>
    3bec:	28 17       	cp	r18, r24
    3bee:	39 07       	cpc	r19, r25
    3bf0:	69 f4       	brne	.+26     	; 0x3c0c <free+0x10c>
    3bf2:	30 97       	sbiw	r30, 0x00	; 0
    3bf4:	29 f4       	brne	.+10     	; 0x3c00 <free+0x100>
    3bf6:	10 92 06 03 	sts	0x0306, r1	; 0x800306 <__flp+0x1>
    3bfa:	10 92 05 03 	sts	0x0305, r1	; 0x800305 <__flp>
    3bfe:	02 c0       	rjmp	.+4      	; 0x3c04 <free+0x104>
    3c00:	13 82       	std	Z+3, r1	; 0x03
    3c02:	12 82       	std	Z+2, r1	; 0x02
    3c04:	b0 93 04 03 	sts	0x0304, r27	; 0x800304 <__brkval+0x1>
    3c08:	a0 93 03 03 	sts	0x0303, r26	; 0x800303 <__brkval>
    3c0c:	df 91       	pop	r29
    3c0e:	cf 91       	pop	r28
    3c10:	08 95       	ret

00003c12 <realloc>:
    3c12:	6f 92       	push	r6
    3c14:	7f 92       	push	r7
    3c16:	8f 92       	push	r8
    3c18:	9f 92       	push	r9
    3c1a:	af 92       	push	r10
    3c1c:	bf 92       	push	r11
    3c1e:	cf 92       	push	r12
    3c20:	df 92       	push	r13
    3c22:	ef 92       	push	r14
    3c24:	ff 92       	push	r15
    3c26:	0f 93       	push	r16
    3c28:	1f 93       	push	r17
    3c2a:	cf 93       	push	r28
    3c2c:	df 93       	push	r29
    3c2e:	00 97       	sbiw	r24, 0x00	; 0
    3c30:	89 f4       	brne	.+34     	; 0x3c54 <realloc+0x42>
    3c32:	cb 01       	movw	r24, r22
    3c34:	df 91       	pop	r29
    3c36:	cf 91       	pop	r28
    3c38:	1f 91       	pop	r17
    3c3a:	0f 91       	pop	r16
    3c3c:	ff 90       	pop	r15
    3c3e:	ef 90       	pop	r14
    3c40:	df 90       	pop	r13
    3c42:	cf 90       	pop	r12
    3c44:	bf 90       	pop	r11
    3c46:	af 90       	pop	r10
    3c48:	9f 90       	pop	r9
    3c4a:	8f 90       	pop	r8
    3c4c:	7f 90       	pop	r7
    3c4e:	6f 90       	pop	r6
    3c50:	0c 94 e8 1c 	jmp	0x39d0	; 0x39d0 <malloc>
    3c54:	fc 01       	movw	r30, r24
    3c56:	e6 0f       	add	r30, r22
    3c58:	f7 1f       	adc	r31, r23
    3c5a:	9c 01       	movw	r18, r24
    3c5c:	22 50       	subi	r18, 0x02	; 2
    3c5e:	31 09       	sbc	r19, r1
    3c60:	e2 17       	cp	r30, r18
    3c62:	f3 07       	cpc	r31, r19
    3c64:	08 f4       	brcc	.+2      	; 0x3c68 <realloc+0x56>
    3c66:	a9 c0       	rjmp	.+338    	; 0x3dba <realloc+0x1a8>
    3c68:	ec 01       	movw	r28, r24
    3c6a:	d9 01       	movw	r26, r18
    3c6c:	0d 91       	ld	r16, X+
    3c6e:	1c 91       	ld	r17, X
    3c70:	11 97       	sbiw	r26, 0x01	; 1
    3c72:	06 17       	cp	r16, r22
    3c74:	17 07       	cpc	r17, r23
    3c76:	b0 f0       	brcs	.+44     	; 0x3ca4 <realloc+0x92>
    3c78:	05 30       	cpi	r16, 0x05	; 5
    3c7a:	11 05       	cpc	r17, r1
    3c7c:	08 f4       	brcc	.+2      	; 0x3c80 <realloc+0x6e>
    3c7e:	9b c0       	rjmp	.+310    	; 0x3db6 <realloc+0x1a4>
    3c80:	c8 01       	movw	r24, r16
    3c82:	04 97       	sbiw	r24, 0x04	; 4
    3c84:	86 17       	cp	r24, r22
    3c86:	97 07       	cpc	r25, r23
    3c88:	08 f4       	brcc	.+2      	; 0x3c8c <realloc+0x7a>
    3c8a:	95 c0       	rjmp	.+298    	; 0x3db6 <realloc+0x1a4>
    3c8c:	02 50       	subi	r16, 0x02	; 2
    3c8e:	11 09       	sbc	r17, r1
    3c90:	06 1b       	sub	r16, r22
    3c92:	17 0b       	sbc	r17, r23
    3c94:	01 93       	st	Z+, r16
    3c96:	11 93       	st	Z+, r17
    3c98:	6d 93       	st	X+, r22
    3c9a:	7c 93       	st	X, r23
    3c9c:	cf 01       	movw	r24, r30
    3c9e:	0e 94 80 1d 	call	0x3b00	; 0x3b00 <free>
    3ca2:	89 c0       	rjmp	.+274    	; 0x3db6 <realloc+0x1a4>
    3ca4:	5b 01       	movw	r10, r22
    3ca6:	a0 1a       	sub	r10, r16
    3ca8:	b1 0a       	sbc	r11, r17
    3caa:	4c 01       	movw	r8, r24
    3cac:	80 0e       	add	r8, r16
    3cae:	91 1e       	adc	r9, r17
    3cb0:	a0 91 05 03 	lds	r26, 0x0305	; 0x800305 <__flp>
    3cb4:	b0 91 06 03 	lds	r27, 0x0306	; 0x800306 <__flp+0x1>
    3cb8:	61 2c       	mov	r6, r1
    3cba:	71 2c       	mov	r7, r1
    3cbc:	e1 2c       	mov	r14, r1
    3cbe:	f1 2c       	mov	r15, r1
    3cc0:	10 97       	sbiw	r26, 0x00	; 0
    3cc2:	09 f4       	brne	.+2      	; 0x3cc6 <realloc+0xb4>
    3cc4:	46 c0       	rjmp	.+140    	; 0x3d52 <realloc+0x140>
    3cc6:	8d 91       	ld	r24, X+
    3cc8:	9c 91       	ld	r25, X
    3cca:	11 97       	sbiw	r26, 0x01	; 1
    3ccc:	a8 15       	cp	r26, r8
    3cce:	b9 05       	cpc	r27, r9
    3cd0:	b1 f5       	brne	.+108    	; 0x3d3e <realloc+0x12c>
    3cd2:	6c 01       	movw	r12, r24
    3cd4:	42 e0       	ldi	r20, 0x02	; 2
    3cd6:	c4 0e       	add	r12, r20
    3cd8:	d1 1c       	adc	r13, r1
    3cda:	ca 14       	cp	r12, r10
    3cdc:	db 04       	cpc	r13, r11
    3cde:	78 f1       	brcs	.+94     	; 0x3d3e <realloc+0x12c>
    3ce0:	4c 01       	movw	r8, r24
    3ce2:	8a 18       	sub	r8, r10
    3ce4:	9b 08       	sbc	r9, r11
    3ce6:	64 01       	movw	r12, r8
    3ce8:	42 e0       	ldi	r20, 0x02	; 2
    3cea:	c4 0e       	add	r12, r20
    3cec:	d1 1c       	adc	r13, r1
    3cee:	12 96       	adiw	r26, 0x02	; 2
    3cf0:	bc 90       	ld	r11, X
    3cf2:	12 97       	sbiw	r26, 0x02	; 2
    3cf4:	13 96       	adiw	r26, 0x03	; 3
    3cf6:	ac 91       	ld	r26, X
    3cf8:	b5 e0       	ldi	r27, 0x05	; 5
    3cfa:	cb 16       	cp	r12, r27
    3cfc:	d1 04       	cpc	r13, r1
    3cfe:	40 f0       	brcs	.+16     	; 0x3d10 <realloc+0xfe>
    3d00:	b2 82       	std	Z+2, r11	; 0x02
    3d02:	a3 83       	std	Z+3, r26	; 0x03
    3d04:	91 82       	std	Z+1, r9	; 0x01
    3d06:	80 82       	st	Z, r8
    3d08:	d9 01       	movw	r26, r18
    3d0a:	6d 93       	st	X+, r22
    3d0c:	7c 93       	st	X, r23
    3d0e:	09 c0       	rjmp	.+18     	; 0x3d22 <realloc+0x110>
    3d10:	0e 5f       	subi	r16, 0xFE	; 254
    3d12:	1f 4f       	sbci	r17, 0xFF	; 255
    3d14:	80 0f       	add	r24, r16
    3d16:	91 1f       	adc	r25, r17
    3d18:	f9 01       	movw	r30, r18
    3d1a:	91 83       	std	Z+1, r25	; 0x01
    3d1c:	80 83       	st	Z, r24
    3d1e:	eb 2d       	mov	r30, r11
    3d20:	fa 2f       	mov	r31, r26
    3d22:	e1 14       	cp	r14, r1
    3d24:	f1 04       	cpc	r15, r1
    3d26:	31 f0       	breq	.+12     	; 0x3d34 <realloc+0x122>
    3d28:	d7 01       	movw	r26, r14
    3d2a:	13 96       	adiw	r26, 0x03	; 3
    3d2c:	fc 93       	st	X, r31
    3d2e:	ee 93       	st	-X, r30
    3d30:	12 97       	sbiw	r26, 0x02	; 2
    3d32:	41 c0       	rjmp	.+130    	; 0x3db6 <realloc+0x1a4>
    3d34:	f0 93 06 03 	sts	0x0306, r31	; 0x800306 <__flp+0x1>
    3d38:	e0 93 05 03 	sts	0x0305, r30	; 0x800305 <__flp>
    3d3c:	3c c0       	rjmp	.+120    	; 0x3db6 <realloc+0x1a4>
    3d3e:	68 16       	cp	r6, r24
    3d40:	79 06       	cpc	r7, r25
    3d42:	08 f4       	brcc	.+2      	; 0x3d46 <realloc+0x134>
    3d44:	3c 01       	movw	r6, r24
    3d46:	7d 01       	movw	r14, r26
    3d48:	12 96       	adiw	r26, 0x02	; 2
    3d4a:	0d 90       	ld	r0, X+
    3d4c:	bc 91       	ld	r27, X
    3d4e:	a0 2d       	mov	r26, r0
    3d50:	b7 cf       	rjmp	.-146    	; 0x3cc0 <realloc+0xae>
    3d52:	80 91 03 03 	lds	r24, 0x0303	; 0x800303 <__brkval>
    3d56:	90 91 04 03 	lds	r25, 0x0304	; 0x800304 <__brkval+0x1>
    3d5a:	88 16       	cp	r8, r24
    3d5c:	99 06       	cpc	r9, r25
    3d5e:	e1 f4       	brne	.+56     	; 0x3d98 <realloc+0x186>
    3d60:	66 16       	cp	r6, r22
    3d62:	77 06       	cpc	r7, r23
    3d64:	c8 f4       	brcc	.+50     	; 0x3d98 <realloc+0x186>
    3d66:	80 91 02 01 	lds	r24, 0x0102	; 0x800102 <__malloc_heap_end>
    3d6a:	90 91 03 01 	lds	r25, 0x0103	; 0x800103 <__malloc_heap_end+0x1>
    3d6e:	00 97       	sbiw	r24, 0x00	; 0
    3d70:	41 f4       	brne	.+16     	; 0x3d82 <realloc+0x170>
    3d72:	8d b7       	in	r24, 0x3d	; 61
    3d74:	9e b7       	in	r25, 0x3e	; 62
    3d76:	40 91 06 01 	lds	r20, 0x0106	; 0x800106 <__malloc_margin>
    3d7a:	50 91 07 01 	lds	r21, 0x0107	; 0x800107 <__malloc_margin+0x1>
    3d7e:	84 1b       	sub	r24, r20
    3d80:	95 0b       	sbc	r25, r21
    3d82:	e8 17       	cp	r30, r24
    3d84:	f9 07       	cpc	r31, r25
    3d86:	c8 f4       	brcc	.+50     	; 0x3dba <realloc+0x1a8>
    3d88:	f0 93 04 03 	sts	0x0304, r31	; 0x800304 <__brkval+0x1>
    3d8c:	e0 93 03 03 	sts	0x0303, r30	; 0x800303 <__brkval>
    3d90:	f9 01       	movw	r30, r18
    3d92:	71 83       	std	Z+1, r23	; 0x01
    3d94:	60 83       	st	Z, r22
    3d96:	0f c0       	rjmp	.+30     	; 0x3db6 <realloc+0x1a4>
    3d98:	cb 01       	movw	r24, r22
    3d9a:	0e 94 e8 1c 	call	0x39d0	; 0x39d0 <malloc>
    3d9e:	7c 01       	movw	r14, r24
    3da0:	00 97       	sbiw	r24, 0x00	; 0
    3da2:	59 f0       	breq	.+22     	; 0x3dba <realloc+0x1a8>
    3da4:	a8 01       	movw	r20, r16
    3da6:	be 01       	movw	r22, r28
    3da8:	0e 94 fb 1e 	call	0x3df6	; 0x3df6 <memcpy>
    3dac:	ce 01       	movw	r24, r28
    3dae:	0e 94 80 1d 	call	0x3b00	; 0x3b00 <free>
    3db2:	c7 01       	movw	r24, r14
    3db4:	04 c0       	rjmp	.+8      	; 0x3dbe <realloc+0x1ac>
    3db6:	ce 01       	movw	r24, r28
    3db8:	02 c0       	rjmp	.+4      	; 0x3dbe <realloc+0x1ac>
    3dba:	80 e0       	ldi	r24, 0x00	; 0
    3dbc:	90 e0       	ldi	r25, 0x00	; 0
    3dbe:	df 91       	pop	r29
    3dc0:	cf 91       	pop	r28
    3dc2:	1f 91       	pop	r17
    3dc4:	0f 91       	pop	r16
    3dc6:	ff 90       	pop	r15
    3dc8:	ef 90       	pop	r14
    3dca:	df 90       	pop	r13
    3dcc:	cf 90       	pop	r12
    3dce:	bf 90       	pop	r11
    3dd0:	af 90       	pop	r10
    3dd2:	9f 90       	pop	r9
    3dd4:	8f 90       	pop	r8
    3dd6:	7f 90       	pop	r7
    3dd8:	6f 90       	pop	r6
    3dda:	08 95       	ret

00003ddc <memcmp>:
    3ddc:	fb 01       	movw	r30, r22
    3dde:	dc 01       	movw	r26, r24
    3de0:	04 c0       	rjmp	.+8      	; 0x3dea <memcmp+0xe>
    3de2:	8d 91       	ld	r24, X+
    3de4:	01 90       	ld	r0, Z+
    3de6:	80 19       	sub	r24, r0
    3de8:	21 f4       	brne	.+8      	; 0x3df2 <memcmp+0x16>
    3dea:	41 50       	subi	r20, 0x01	; 1
    3dec:	50 40       	sbci	r21, 0x00	; 0
    3dee:	c8 f7       	brcc	.-14     	; 0x3de2 <memcmp+0x6>
    3df0:	88 1b       	sub	r24, r24
    3df2:	99 0b       	sbc	r25, r25
    3df4:	08 95       	ret

00003df6 <memcpy>:
    3df6:	fb 01       	movw	r30, r22
    3df8:	dc 01       	movw	r26, r24
    3dfa:	02 c0       	rjmp	.+4      	; 0x3e00 <memcpy+0xa>
    3dfc:	01 90       	ld	r0, Z+
    3dfe:	0d 92       	st	X+, r0
    3e00:	41 50       	subi	r20, 0x01	; 1
    3e02:	50 40       	sbci	r21, 0x00	; 0
    3e04:	d8 f7       	brcc	.-10     	; 0x3dfc <memcpy+0x6>
    3e06:	08 95       	ret

00003e08 <_exit>:
    3e08:	f8 94       	cli

00003e0a <__stop_program>:
    3e0a:	ff cf       	rjmp	.-2      	; 0x3e0a <__stop_program>
