
bin\Release\Line_Tracer.elf:     file format elf32-avr

Sections:
Idx Name          Size      VMA       LMA       File off  Algn
  0 .data         0000013c  00800100  000037cc  00003860  2**0
                  CONTENTS, ALLOC, LOAD, DATA
  1 .text         000037cc  00000000  00000000  00000094  2**1
                  CONTENTS, ALLOC, LOAD, READONLY, CODE
  2 .bss          00000032  0080023c  0080023c  0000399c  2**0
                  ALLOC
  3 .comment      00000030  00000000  00000000  0000399c  2**0
                  CONTENTS, READONLY

Disassembly of section .text:

00000000 <__vectors>:
       0:	0c 94 47 00 	jmp	0x8e	; 0x8e <__ctors_end>
       4:	0c 94 76 00 	jmp	0xec	; 0xec <__bad_interrupt>
       8:	0c 94 76 00 	jmp	0xec	; 0xec <__bad_interrupt>
       c:	0c 94 76 00 	jmp	0xec	; 0xec <__bad_interrupt>
      10:	0c 94 76 00 	jmp	0xec	; 0xec <__bad_interrupt>
      14:	0c 94 76 00 	jmp	0xec	; 0xec <__bad_interrupt>
      18:	0c 94 76 00 	jmp	0xec	; 0xec <__bad_interrupt>
      1c:	0c 94 e7 13 	jmp	0x27ce	; 0x27ce <__vector_7>
      20:	0c 94 15 14 	jmp	0x282a	; 0x282a <__vector_8>
      24:	0c 94 99 14 	jmp	0x2932	; 0x2932 <__vector_9>
      28:	0c 94 76 00 	jmp	0xec	; 0xec <__bad_interrupt>
      2c:	0c 94 6c 14 	jmp	0x28d8	; 0x28d8 <__vector_11>
      30:	0c 94 76 00 	jmp	0xec	; 0xec <__bad_interrupt>
      34:	0c 94 76 00 	jmp	0xec	; 0xec <__bad_interrupt>
      38:	0c 94 8e 14 	jmp	0x291c	; 0x291c <__vector_14>
      3c:	0c 94 76 00 	jmp	0xec	; 0xec <__bad_interrupt>
      40:	0c 94 76 00 	jmp	0xec	; 0xec <__bad_interrupt>
      44:	0c 94 76 00 	jmp	0xec	; 0xec <__bad_interrupt>
      48:	0c 94 76 00 	jmp	0xec	; 0xec <__bad_interrupt>
      4c:	0c 94 76 00 	jmp	0xec	; 0xec <__bad_interrupt>
      50:	0c 94 76 00 	jmp	0xec	; 0xec <__bad_interrupt>
      54:	0c 94 76 00 	jmp	0xec	; 0xec <__bad_interrupt>
      58:	0c 94 76 00 	jmp	0xec	; 0xec <__bad_interrupt>
      5c:	0c 94 76 00 	jmp	0xec	; 0xec <__bad_interrupt>
      60:	0c 94 76 00 	jmp	0xec	; 0xec <__bad_interrupt>
      64:	0c 94 76 00 	jmp	0xec	; 0xec <__bad_interrupt>
      68:	0c 94 76 00 	jmp	0xec	; 0xec <__bad_interrupt>
      6c:	0c 94 76 00 	jmp	0xec	; 0xec <__bad_interrupt>
      70:	0c 94 43 14 	jmp	0x2886	; 0x2886 <__vector_28>
      74:	0c 94 76 00 	jmp	0xec	; 0xec <__bad_interrupt>
      78:	0c 94 3d 02 	jmp	0x47a	; 0x47a <__vector_30>
      7c:	0c 94 76 00 	jmp	0xec	; 0xec <__bad_interrupt>
      80:	0c 94 76 00 	jmp	0xec	; 0xec <__bad_interrupt>
      84:	0c 94 76 00 	jmp	0xec	; 0xec <__bad_interrupt>
      88:	0c 94 76 00 	jmp	0xec	; 0xec <__bad_interrupt>

0000008c <__ctors_start>:
      8c:	fa 19       	sub	r31, r10

0000008e <__ctors_end>:
      8e:	11 24       	eor	r1, r1
      90:	1f be       	out	0x3f, r1	; 63
      92:	cf ef       	ldi	r28, 0xFF	; 255
      94:	d0 e1       	ldi	r29, 0x10	; 16
      96:	de bf       	out	0x3e, r29	; 62
      98:	cd bf       	out	0x3d, r28	; 61

0000009a <__do_copy_data>:
      9a:	12 e0       	ldi	r17, 0x02	; 2
      9c:	a0 e0       	ldi	r26, 0x00	; 0
      9e:	b1 e0       	ldi	r27, 0x01	; 1
      a0:	ec ec       	ldi	r30, 0xCC	; 204
      a2:	f7 e3       	ldi	r31, 0x37	; 55
      a4:	00 e0       	ldi	r16, 0x00	; 0
      a6:	0b bf       	out	0x3b, r16	; 59
      a8:	02 c0       	rjmp	.+4      	; 0xae <__do_copy_data+0x14>
      aa:	07 90       	elpm	r0, Z+
      ac:	0d 92       	st	X+, r0
      ae:	ac 33       	cpi	r26, 0x3C	; 60
      b0:	b1 07       	cpc	r27, r17
      b2:	d9 f7       	brne	.-10     	; 0xaa <__do_copy_data+0x10>

000000b4 <__do_clear_bss>:
      b4:	22 e0       	ldi	r18, 0x02	; 2
      b6:	ac e3       	ldi	r26, 0x3C	; 60
      b8:	b2 e0       	ldi	r27, 0x02	; 2
      ba:	01 c0       	rjmp	.+2      	; 0xbe <.do_clear_bss_start>

000000bc <.do_clear_bss_loop>:
      bc:	1d 92       	st	X+, r1

000000be <.do_clear_bss_start>:
      be:	ae 36       	cpi	r26, 0x6E	; 110
      c0:	b2 07       	cpc	r27, r18
      c2:	e1 f7       	brne	.-8      	; 0xbc <.do_clear_bss_loop>

000000c4 <__do_global_ctors>:
      c4:	10 e0       	ldi	r17, 0x00	; 0
      c6:	ce e8       	ldi	r28, 0x8E	; 142
      c8:	d0 e0       	ldi	r29, 0x00	; 0
      ca:	00 e0       	ldi	r16, 0x00	; 0
      cc:	06 c0       	rjmp	.+12     	; 0xda <__do_global_ctors+0x16>
      ce:	22 97       	sbiw	r28, 0x02	; 2
      d0:	01 09       	sbc	r16, r1
      d2:	fe 01       	movw	r30, r28
      d4:	0b bf       	out	0x3b, r16	; 59
      d6:	0e 94 54 1a 	call	0x34a8	; 0x34a8 <__tablejump_elpm__>
      da:	cc 38       	cpi	r28, 0x8C	; 140
      dc:	d1 07       	cpc	r29, r17
      de:	80 e0       	ldi	r24, 0x00	; 0
      e0:	08 07       	cpc	r16, r24
      e2:	a9 f7       	brne	.-22     	; 0xce <__do_global_ctors+0xa>
      e4:	0e 94 99 18 	call	0x3132	; 0x3132 <main>
      e8:	0c 94 e4 1b 	jmp	0x37c8	; 0x37c8 <_exit>

000000ec <__bad_interrupt>:
      ec:	0c 94 00 00 	jmp	0	; 0x0 <__vectors>

000000f0 <_ZN8myBuzzer5Nada4Ev.constprop.22>:
      f0:	8b e1       	ldi	r24, 0x1B	; 27
      f2:	83 bf       	out	0x33, r24	; 51
      f4:	12 be       	out	0x32, r1	; 50
      f6:	8d e7       	ldi	r24, 0x7D	; 125
      f8:	81 bf       	out	0x31, r24	; 49
      fa:	86 e9       	ldi	r24, 0x96	; 150
      fc:	90 e0       	ldi	r25, 0x00	; 0
      fe:	ef e9       	ldi	r30, 0x9F	; 159
     100:	ff e0       	ldi	r31, 0x0F	; 15
     102:	31 97       	sbiw	r30, 0x01	; 1
     104:	f1 f7       	brne	.-4      	; 0x102 <_ZN8myBuzzer5Nada4Ev.constprop.22+0x12>
     106:	00 c0       	rjmp	.+0      	; 0x108 <_ZN8myBuzzer5Nada4Ev.constprop.22+0x18>
     108:	00 00       	nop
     10a:	01 97       	sbiw	r24, 0x01	; 1
     10c:	00 97       	sbiw	r24, 0x00	; 0
     10e:	b9 f7       	brne	.-18     	; 0xfe <_ZN8myBuzzer5Nada4Ev.constprop.22+0xe>
     110:	13 be       	out	0x33, r1	; 51
     112:	10 be       	out	0x30, r1	; 48
     114:	c4 98       	cbi	0x18, 4	; 24
     116:	8c e1       	ldi	r24, 0x1C	; 28
     118:	83 bf       	out	0x33, r24	; 51
     11a:	12 be       	out	0x32, r1	; 50
     11c:	8a ef       	ldi	r24, 0xFA	; 250
     11e:	81 bf       	out	0x31, r24	; 49
     120:	84 e1       	ldi	r24, 0x14	; 20
     122:	90 e0       	ldi	r25, 0x00	; 0
     124:	ef e9       	ldi	r30, 0x9F	; 159
     126:	ff e0       	ldi	r31, 0x0F	; 15
     128:	31 97       	sbiw	r30, 0x01	; 1
     12a:	f1 f7       	brne	.-4      	; 0x128 <_ZN8myBuzzer5Nada4Ev.constprop.22+0x38>
     12c:	00 c0       	rjmp	.+0      	; 0x12e <_ZN8myBuzzer5Nada4Ev.constprop.22+0x3e>
     12e:	00 00       	nop
     130:	01 97       	sbiw	r24, 0x01	; 1
     132:	00 97       	sbiw	r24, 0x00	; 0
     134:	b9 f7       	brne	.-18     	; 0x124 <_ZN8myBuzzer5Nada4Ev.constprop.22+0x34>
     136:	13 be       	out	0x33, r1	; 51
     138:	10 be       	out	0x30, r1	; 48
     13a:	c4 98       	cbi	0x18, 4	; 24
     13c:	8b e1       	ldi	r24, 0x1B	; 27
     13e:	83 bf       	out	0x33, r24	; 51
     140:	12 be       	out	0x32, r1	; 50
     142:	83 e5       	ldi	r24, 0x53	; 83
     144:	81 bf       	out	0x31, r24	; 49
     146:	82 e3       	ldi	r24, 0x32	; 50
     148:	90 e0       	ldi	r25, 0x00	; 0
     14a:	ef e9       	ldi	r30, 0x9F	; 159
     14c:	ff e0       	ldi	r31, 0x0F	; 15
     14e:	31 97       	sbiw	r30, 0x01	; 1
     150:	f1 f7       	brne	.-4      	; 0x14e <_ZN8myBuzzer5Nada4Ev.constprop.22+0x5e>
     152:	00 c0       	rjmp	.+0      	; 0x154 <_ZN8myBuzzer5Nada4Ev.constprop.22+0x64>
     154:	00 00       	nop
     156:	01 97       	sbiw	r24, 0x01	; 1
     158:	00 97       	sbiw	r24, 0x00	; 0
     15a:	b9 f7       	brne	.-18     	; 0x14a <_ZN8myBuzzer5Nada4Ev.constprop.22+0x5a>
     15c:	13 be       	out	0x33, r1	; 51
     15e:	10 be       	out	0x30, r1	; 48
     160:	c4 98       	cbi	0x18, 4	; 24
     162:	8c e1       	ldi	r24, 0x1C	; 28
     164:	83 bf       	out	0x33, r24	; 51
     166:	12 be       	out	0x32, r1	; 50
     168:	8a ef       	ldi	r24, 0xFA	; 250
     16a:	81 bf       	out	0x31, r24	; 49
     16c:	84 e1       	ldi	r24, 0x14	; 20
     16e:	90 e0       	ldi	r25, 0x00	; 0
     170:	ef e9       	ldi	r30, 0x9F	; 159
     172:	ff e0       	ldi	r31, 0x0F	; 15
     174:	31 97       	sbiw	r30, 0x01	; 1
     176:	f1 f7       	brne	.-4      	; 0x174 <_ZN8myBuzzer5Nada4Ev.constprop.22+0x84>
     178:	00 c0       	rjmp	.+0      	; 0x17a <_ZN8myBuzzer5Nada4Ev.constprop.22+0x8a>
     17a:	00 00       	nop
     17c:	01 97       	sbiw	r24, 0x01	; 1
     17e:	00 97       	sbiw	r24, 0x00	; 0
     180:	b9 f7       	brne	.-18     	; 0x170 <_ZN8myBuzzer5Nada4Ev.constprop.22+0x80>
     182:	13 be       	out	0x33, r1	; 51
     184:	10 be       	out	0x30, r1	; 48
     186:	c4 98       	cbi	0x18, 4	; 24
     188:	8b e1       	ldi	r24, 0x1B	; 27
     18a:	83 bf       	out	0x33, r24	; 51
     18c:	12 be       	out	0x32, r1	; 50
     18e:	87 e4       	ldi	r24, 0x47	; 71
     190:	81 bf       	out	0x31, r24	; 49
     192:	82 e3       	ldi	r24, 0x32	; 50
     194:	90 e0       	ldi	r25, 0x00	; 0
     196:	ef e9       	ldi	r30, 0x9F	; 159
     198:	ff e0       	ldi	r31, 0x0F	; 15
     19a:	31 97       	sbiw	r30, 0x01	; 1
     19c:	f1 f7       	brne	.-4      	; 0x19a <_ZN8myBuzzer5Nada4Ev.constprop.22+0xaa>
     19e:	00 c0       	rjmp	.+0      	; 0x1a0 <_ZN8myBuzzer5Nada4Ev.constprop.22+0xb0>
     1a0:	00 00       	nop
     1a2:	01 97       	sbiw	r24, 0x01	; 1
     1a4:	00 97       	sbiw	r24, 0x00	; 0
     1a6:	b9 f7       	brne	.-18     	; 0x196 <_ZN8myBuzzer5Nada4Ev.constprop.22+0xa6>
     1a8:	13 be       	out	0x33, r1	; 51
     1aa:	10 be       	out	0x30, r1	; 48
     1ac:	c4 98       	cbi	0x18, 4	; 24
     1ae:	8c e1       	ldi	r24, 0x1C	; 28
     1b0:	83 bf       	out	0x33, r24	; 51
     1b2:	12 be       	out	0x32, r1	; 50
     1b4:	8a ef       	ldi	r24, 0xFA	; 250
     1b6:	81 bf       	out	0x31, r24	; 49
     1b8:	84 e1       	ldi	r24, 0x14	; 20
     1ba:	90 e0       	ldi	r25, 0x00	; 0
     1bc:	ef e9       	ldi	r30, 0x9F	; 159
     1be:	ff e0       	ldi	r31, 0x0F	; 15
     1c0:	31 97       	sbiw	r30, 0x01	; 1
     1c2:	f1 f7       	brne	.-4      	; 0x1c0 <_ZN8myBuzzer5Nada4Ev.constprop.22+0xd0>
     1c4:	00 c0       	rjmp	.+0      	; 0x1c6 <_ZN8myBuzzer5Nada4Ev.constprop.22+0xd6>
     1c6:	00 00       	nop
     1c8:	01 97       	sbiw	r24, 0x01	; 1
     1ca:	00 97       	sbiw	r24, 0x00	; 0
     1cc:	b9 f7       	brne	.-18     	; 0x1bc <_ZN8myBuzzer5Nada4Ev.constprop.22+0xcc>
     1ce:	13 be       	out	0x33, r1	; 51
     1d0:	10 be       	out	0x30, r1	; 48
     1d2:	c4 98       	cbi	0x18, 4	; 24
     1d4:	8b e1       	ldi	r24, 0x1B	; 27
     1d6:	83 bf       	out	0x33, r24	; 51
     1d8:	12 be       	out	0x32, r1	; 50
     1da:	83 e5       	ldi	r24, 0x53	; 83
     1dc:	81 bf       	out	0x31, r24	; 49
     1de:	82 e3       	ldi	r24, 0x32	; 50
     1e0:	90 e0       	ldi	r25, 0x00	; 0
     1e2:	ef e9       	ldi	r30, 0x9F	; 159
     1e4:	ff e0       	ldi	r31, 0x0F	; 15
     1e6:	31 97       	sbiw	r30, 0x01	; 1
     1e8:	f1 f7       	brne	.-4      	; 0x1e6 <_ZN8myBuzzer5Nada4Ev.constprop.22+0xf6>
     1ea:	00 c0       	rjmp	.+0      	; 0x1ec <_ZN8myBuzzer5Nada4Ev.constprop.22+0xfc>
     1ec:	00 00       	nop
     1ee:	01 97       	sbiw	r24, 0x01	; 1
     1f0:	00 97       	sbiw	r24, 0x00	; 0
     1f2:	b9 f7       	brne	.-18     	; 0x1e2 <_ZN8myBuzzer5Nada4Ev.constprop.22+0xf2>
     1f4:	13 be       	out	0x33, r1	; 51
     1f6:	10 be       	out	0x30, r1	; 48
     1f8:	c4 98       	cbi	0x18, 4	; 24
     1fa:	08 95       	ret

000001fc <_ZN13mySensorGaris9BacaGarisEhh.constprop.14>:
     1fc:	68 2b       	or	r22, r24
     1fe:	90 91 9b 00 	lds	r25, 0x009B
     202:	95 ff       	sbrs	r25, 5
     204:	fc cf       	rjmp	.-8      	; 0x1fe <_ZN13mySensorGaris9BacaGarisEhh.constprop.14+0x2>
     206:	60 93 9c 00 	sts	0x009C, r22
     20a:	28 e8       	ldi	r18, 0x88	; 136
     20c:	33 e1       	ldi	r19, 0x13	; 19
     20e:	09 c0       	rjmp	.+18     	; 0x222 <_ZN13mySensorGaris9BacaGarisEhh.constprop.14+0x26>
     210:	85 e0       	ldi	r24, 0x05	; 5
     212:	8a 95       	dec	r24
     214:	f1 f7       	brne	.-4      	; 0x212 <_ZN13mySensorGaris9BacaGarisEhh.constprop.14+0x16>
     216:	00 00       	nop
     218:	21 50       	subi	r18, 0x01	; 1
     21a:	31 09       	sbc	r19, r1
     21c:	21 15       	cp	r18, r1
     21e:	31 05       	cpc	r19, r1
     220:	f9 f0       	breq	.+62     	; 0x260 <_ZN13mySensorGaris9BacaGarisEhh.constprop.14+0x64>
     222:	90 91 4f 02 	lds	r25, 0x024F
     226:	99 23       	and	r25, r25
     228:	99 f3       	breq	.-26     	; 0x210 <_ZN13mySensorGaris9BacaGarisEhh.constprop.14+0x14>
     22a:	e8 94       	clt
     22c:	21 f8       	bld	r2, 1
     22e:	e0 91 50 02 	lds	r30, 0x0250
     232:	f0 e0       	ldi	r31, 0x00	; 0
     234:	ee 5a       	subi	r30, 0xAE	; 174
     236:	fd 4f       	sbci	r31, 0xFD	; 253
     238:	90 81       	ld	r25, Z
     23a:	80 91 50 02 	lds	r24, 0x0250
     23e:	8f 5f       	subi	r24, 0xFF	; 255
     240:	80 93 50 02 	sts	0x0250, r24
     244:	80 31       	cpi	r24, 0x10	; 16
     246:	c1 f1       	breq	.+112    	; 0x2b8 <_ZN13mySensorGaris9BacaGarisEhh.constprop.14+0xbc>
     248:	f8 94       	cli
     24a:	80 91 4f 02 	lds	r24, 0x024F
     24e:	81 50       	subi	r24, 0x01	; 1
     250:	80 93 4f 02 	sts	0x024F, r24
     254:	78 94       	sei
     256:	89 2f       	mov	r24, r25
     258:	68 17       	cp	r22, r24
     25a:	39 f0       	breq	.+14     	; 0x26a <_ZN13mySensorGaris9BacaGarisEhh.constprop.14+0x6e>
     25c:	80 e0       	ldi	r24, 0x00	; 0
     25e:	08 95       	ret
     260:	68 94       	set
     262:	21 f8       	bld	r2, 1
     264:	80 e0       	ldi	r24, 0x00	; 0
     266:	68 13       	cpse	r22, r24
     268:	f9 cf       	rjmp	.-14     	; 0x25c <_ZN13mySensorGaris9BacaGarisEhh.constprop.14+0x60>
     26a:	88 e8       	ldi	r24, 0x88	; 136
     26c:	93 e1       	ldi	r25, 0x13	; 19
     26e:	07 c0       	rjmp	.+14     	; 0x27e <_ZN13mySensorGaris9BacaGarisEhh.constprop.14+0x82>
     270:	25 e0       	ldi	r18, 0x05	; 5
     272:	2a 95       	dec	r18
     274:	f1 f7       	brne	.-4      	; 0x272 <_ZN13mySensorGaris9BacaGarisEhh.constprop.14+0x76>
     276:	00 00       	nop
     278:	01 97       	sbiw	r24, 0x01	; 1
     27a:	00 97       	sbiw	r24, 0x00	; 0
     27c:	01 f1       	breq	.+64     	; 0x2be <_ZN13mySensorGaris9BacaGarisEhh.constprop.14+0xc2>
     27e:	20 91 4f 02 	lds	r18, 0x024F
     282:	22 23       	and	r18, r18
     284:	a9 f3       	breq	.-22     	; 0x270 <_ZN13mySensorGaris9BacaGarisEhh.constprop.14+0x74>
     286:	e8 94       	clt
     288:	21 f8       	bld	r2, 1
     28a:	e0 91 50 02 	lds	r30, 0x0250
     28e:	f0 e0       	ldi	r31, 0x00	; 0
     290:	ee 5a       	subi	r30, 0xAE	; 174
     292:	fd 4f       	sbci	r31, 0xFD	; 253
     294:	80 81       	ld	r24, Z
     296:	90 91 50 02 	lds	r25, 0x0250
     29a:	9f 5f       	subi	r25, 0xFF	; 255
     29c:	90 93 50 02 	sts	0x0250, r25
     2a0:	90 31       	cpi	r25, 0x10	; 16
     2a2:	11 f4       	brne	.+4      	; 0x2a8 <_ZN13mySensorGaris9BacaGarisEhh.constprop.14+0xac>
     2a4:	10 92 50 02 	sts	0x0250, r1
     2a8:	f8 94       	cli
     2aa:	90 91 4f 02 	lds	r25, 0x024F
     2ae:	91 50       	subi	r25, 0x01	; 1
     2b0:	90 93 4f 02 	sts	0x024F, r25
     2b4:	78 94       	sei
     2b6:	08 95       	ret
     2b8:	10 92 50 02 	sts	0x0250, r1
     2bc:	c5 cf       	rjmp	.-118    	; 0x248 <_ZN13mySensorGaris9BacaGarisEhh.constprop.14+0x4c>
     2be:	68 94       	set
     2c0:	21 f8       	bld	r2, 1
     2c2:	80 e0       	ldi	r24, 0x00	; 0
     2c4:	08 95       	ret

000002c6 <_ZN5myLCD5BinerEh.constprop.16>:
     2c6:	cf 93       	push	r28
     2c8:	90 e0       	ldi	r25, 0x00	; 0
     2ca:	27 e0       	ldi	r18, 0x07	; 7
     2cc:	30 e0       	ldi	r19, 0x00	; 0
     2ce:	62 2d       	mov	r22, r2
     2d0:	61 70       	andi	r22, 0x01	; 1
     2d2:	a5 e1       	ldi	r26, 0x15	; 21
     2d4:	cd e1       	ldi	r28, 0x1D	; 29
     2d6:	e5 e3       	ldi	r30, 0x35	; 53
     2d8:	7d e3       	ldi	r23, 0x3D	; 61
     2da:	f5 e0       	ldi	r31, 0x05	; 5
     2dc:	bd e0       	ldi	r27, 0x0D	; 13
     2de:	1c c0       	rjmp	.+56     	; 0x318 <_ZN5myLCD5BinerEh.constprop.16+0x52>
     2e0:	66 23       	and	r22, r22
     2e2:	a1 f1       	breq	.+104    	; 0x34c <_ZN5myLCD5BinerEh.constprop.16+0x86>
     2e4:	7b bb       	out	0x1b, r23	; 27
     2e6:	45 e0       	ldi	r20, 0x05	; 5
     2e8:	4a 95       	dec	r20
     2ea:	f1 f7       	brne	.-4      	; 0x2e8 <_ZN5myLCD5BinerEh.constprop.16+0x22>
     2ec:	00 00       	nop
     2ee:	da 98       	cbi	0x1b, 2	; 27
     2f0:	4a e1       	ldi	r20, 0x1A	; 26
     2f2:	4a 95       	dec	r20
     2f4:	f1 f7       	brne	.-4      	; 0x2f2 <_ZN5myLCD5BinerEh.constprop.16+0x2c>
     2f6:	00 c0       	rjmp	.+0      	; 0x2f8 <_ZN5myLCD5BinerEh.constprop.16+0x32>
     2f8:	61 11       	cpse	r22, r1
     2fa:	2e c0       	rjmp	.+92     	; 0x358 <_ZN5myLCD5BinerEh.constprop.16+0x92>
     2fc:	fb bb       	out	0x1b, r31	; 27
     2fe:	45 e0       	ldi	r20, 0x05	; 5
     300:	4a 95       	dec	r20
     302:	f1 f7       	brne	.-4      	; 0x300 <_ZN5myLCD5BinerEh.constprop.16+0x3a>
     304:	00 00       	nop
     306:	da 98       	cbi	0x1b, 2	; 27
     308:	45 ed       	ldi	r20, 0xD5	; 213
     30a:	4a 95       	dec	r20
     30c:	f1 f7       	brne	.-4      	; 0x30a <_ZN5myLCD5BinerEh.constprop.16+0x44>
     30e:	00 00       	nop
     310:	da 9a       	sbi	0x1b, 2	; 27
     312:	21 50       	subi	r18, 0x01	; 1
     314:	31 09       	sbc	r19, r1
     316:	10 f1       	brcs	.+68     	; 0x35c <_ZN5myLCD5BinerEh.constprop.16+0x96>
     318:	ac 01       	movw	r20, r24
     31a:	02 2e       	mov	r0, r18
     31c:	02 c0       	rjmp	.+4      	; 0x322 <_ZN5myLCD5BinerEh.constprop.16+0x5c>
     31e:	55 95       	asr	r21
     320:	47 95       	ror	r20
     322:	0a 94       	dec	r0
     324:	e2 f7       	brpl	.-8      	; 0x31e <_ZN5myLCD5BinerEh.constprop.16+0x58>
     326:	d8 9a       	sbi	0x1b, 0	; 27
     328:	40 ff       	sbrs	r20, 0
     32a:	da cf       	rjmp	.-76     	; 0x2e0 <_ZN5myLCD5BinerEh.constprop.16+0x1a>
     32c:	66 23       	and	r22, r22
     32e:	81 f0       	breq	.+32     	; 0x350 <_ZN5myLCD5BinerEh.constprop.16+0x8a>
     330:	7b bb       	out	0x1b, r23	; 27
     332:	45 e0       	ldi	r20, 0x05	; 5
     334:	4a 95       	dec	r20
     336:	f1 f7       	brne	.-4      	; 0x334 <_ZN5myLCD5BinerEh.constprop.16+0x6e>
     338:	00 00       	nop
     33a:	da 98       	cbi	0x1b, 2	; 27
     33c:	4a e1       	ldi	r20, 0x1A	; 26
     33e:	4a 95       	dec	r20
     340:	f1 f7       	brne	.-4      	; 0x33e <_ZN5myLCD5BinerEh.constprop.16+0x78>
     342:	00 c0       	rjmp	.+0      	; 0x344 <_ZN5myLCD5BinerEh.constprop.16+0x7e>
     344:	61 11       	cpse	r22, r1
     346:	06 c0       	rjmp	.+12     	; 0x354 <_ZN5myLCD5BinerEh.constprop.16+0x8e>
     348:	ab bb       	out	0x1b, r26	; 27
     34a:	d9 cf       	rjmp	.-78     	; 0x2fe <_ZN5myLCD5BinerEh.constprop.16+0x38>
     34c:	eb bb       	out	0x1b, r30	; 27
     34e:	cb cf       	rjmp	.-106    	; 0x2e6 <_ZN5myLCD5BinerEh.constprop.16+0x20>
     350:	eb bb       	out	0x1b, r30	; 27
     352:	ef cf       	rjmp	.-34     	; 0x332 <_ZN5myLCD5BinerEh.constprop.16+0x6c>
     354:	cb bb       	out	0x1b, r28	; 27
     356:	d3 cf       	rjmp	.-90     	; 0x2fe <_ZN5myLCD5BinerEh.constprop.16+0x38>
     358:	bb bb       	out	0x1b, r27	; 27
     35a:	d1 cf       	rjmp	.-94     	; 0x2fe <_ZN5myLCD5BinerEh.constprop.16+0x38>
     35c:	cf 91       	pop	r28
     35e:	08 95       	ret

00000360 <_ZN5myLCD5TulisEhPKc.constprop.19>:
     360:	d8 98       	cbi	0x1b, 0	; 27
     362:	88 23       	and	r24, r24
     364:	09 f4       	brne	.+2      	; 0x368 <_ZN5myLCD5TulisEhPKc.constprop.19+0x8>
     366:	6b c0       	rjmp	.+214    	; 0x43e <_ZN5myLCD5TulisEhPKc.constprop.19+0xde>
     368:	20 fc       	sbrc	r2, 0
     36a:	66 c0       	rjmp	.+204    	; 0x438 <_ZN5myLCD5TulisEhPKc.constprop.19+0xd8>
     36c:	84 ec       	ldi	r24, 0xC4	; 196
     36e:	8b bb       	out	0x1b, r24	; 27
     370:	f5 e0       	ldi	r31, 0x05	; 5
     372:	fa 95       	dec	r31
     374:	f1 f7       	brne	.-4      	; 0x372 <_ZN5myLCD5TulisEhPKc.constprop.19+0x12>
     376:	00 00       	nop
     378:	da 98       	cbi	0x1b, 2	; 27
     37a:	2a e1       	ldi	r18, 0x1A	; 26
     37c:	2a 95       	dec	r18
     37e:	f1 f7       	brne	.-4      	; 0x37c <_ZN5myLCD5TulisEhPKc.constprop.19+0x1c>
     380:	00 c0       	rjmp	.+0      	; 0x382 <_ZN5myLCD5TulisEhPKc.constprop.19+0x22>
     382:	20 fc       	sbrc	r2, 0
     384:	71 c0       	rjmp	.+226    	; 0x468 <_ZN5myLCD5TulisEhPKc.constprop.19+0x108>
     386:	84 e0       	ldi	r24, 0x04	; 4
     388:	8b bb       	out	0x1b, r24	; 27
     38a:	85 e0       	ldi	r24, 0x05	; 5
     38c:	8a 95       	dec	r24
     38e:	f1 f7       	brne	.-4      	; 0x38c <_ZN5myLCD5TulisEhPKc.constprop.19+0x2c>
     390:	00 00       	nop
     392:	da 98       	cbi	0x1b, 2	; 27
     394:	ef ee       	ldi	r30, 0xEF	; 239
     396:	fa e0       	ldi	r31, 0x0A	; 10
     398:	31 97       	sbiw	r30, 0x01	; 1
     39a:	f1 f7       	brne	.-4      	; 0x398 <_ZN5myLCD5TulisEhPKc.constprop.19+0x38>
     39c:	00 c0       	rjmp	.+0      	; 0x39e <_ZN5myLCD5TulisEhPKc.constprop.19+0x3e>
     39e:	00 00       	nop
     3a0:	da 9a       	sbi	0x1b, 2	; 27
     3a2:	fb 01       	movw	r30, r22
     3a4:	80 81       	ld	r24, Z
     3a6:	88 23       	and	r24, r24
     3a8:	21 f1       	breq	.+72     	; 0x3f2 <_ZN5myLCD5TulisEhPKc.constprop.19+0x92>
     3aa:	31 96       	adiw	r30, 0x01	; 1
     3ac:	20 fc       	sbrc	r2, 0
     3ae:	22 c0       	rjmp	.+68     	; 0x3f4 <_ZN5myLCD5TulisEhPKc.constprop.19+0x94>
     3b0:	d8 9a       	sbi	0x1b, 0	; 27
     3b2:	98 2f       	mov	r25, r24
     3b4:	90 7f       	andi	r25, 0xF0	; 240
     3b6:	95 60       	ori	r25, 0x05	; 5
     3b8:	9b bb       	out	0x1b, r25	; 27
     3ba:	25 e0       	ldi	r18, 0x05	; 5
     3bc:	2a 95       	dec	r18
     3be:	f1 f7       	brne	.-4      	; 0x3bc <_ZN5myLCD5TulisEhPKc.constprop.19+0x5c>
     3c0:	00 00       	nop
     3c2:	da 98       	cbi	0x1b, 2	; 27
     3c4:	9a e1       	ldi	r25, 0x1A	; 26
     3c6:	9a 95       	dec	r25
     3c8:	f1 f7       	brne	.-4      	; 0x3c6 <_ZN5myLCD5TulisEhPKc.constprop.19+0x66>
     3ca:	00 c0       	rjmp	.+0      	; 0x3cc <_ZN5myLCD5TulisEhPKc.constprop.19+0x6c>
     3cc:	20 e1       	ldi	r18, 0x10	; 16
     3ce:	82 9f       	mul	r24, r18
     3d0:	c0 01       	movw	r24, r0
     3d2:	11 24       	eor	r1, r1
     3d4:	85 60       	ori	r24, 0x05	; 5
     3d6:	8b bb       	out	0x1b, r24	; 27
     3d8:	85 e0       	ldi	r24, 0x05	; 5
     3da:	8a 95       	dec	r24
     3dc:	f1 f7       	brne	.-4      	; 0x3da <_ZN5myLCD5TulisEhPKc.constprop.19+0x7a>
     3de:	00 00       	nop
     3e0:	da 98       	cbi	0x1b, 2	; 27
     3e2:	95 ed       	ldi	r25, 0xD5	; 213
     3e4:	9a 95       	dec	r25
     3e6:	f1 f7       	brne	.-4      	; 0x3e4 <_ZN5myLCD5TulisEhPKc.constprop.19+0x84>
     3e8:	00 00       	nop
     3ea:	da 9a       	sbi	0x1b, 2	; 27
     3ec:	81 91       	ld	r24, Z+
     3ee:	81 11       	cpse	r24, r1
     3f0:	df cf       	rjmp	.-66     	; 0x3b0 <_ZN5myLCD5TulisEhPKc.constprop.19+0x50>
     3f2:	08 95       	ret
     3f4:	d8 9a       	sbi	0x1b, 0	; 27
     3f6:	98 2f       	mov	r25, r24
     3f8:	90 7f       	andi	r25, 0xF0	; 240
     3fa:	9d 60       	ori	r25, 0x0D	; 13
     3fc:	9b bb       	out	0x1b, r25	; 27
     3fe:	25 e0       	ldi	r18, 0x05	; 5
     400:	2a 95       	dec	r18
     402:	f1 f7       	brne	.-4      	; 0x400 <_ZN5myLCD5TulisEhPKc.constprop.19+0xa0>
     404:	00 00       	nop
     406:	da 98       	cbi	0x1b, 2	; 27
     408:	9a e1       	ldi	r25, 0x1A	; 26
     40a:	9a 95       	dec	r25
     40c:	f1 f7       	brne	.-4      	; 0x40a <_ZN5myLCD5TulisEhPKc.constprop.19+0xaa>
     40e:	00 c0       	rjmp	.+0      	; 0x410 <_ZN5myLCD5TulisEhPKc.constprop.19+0xb0>
     410:	20 e1       	ldi	r18, 0x10	; 16
     412:	82 9f       	mul	r24, r18
     414:	c0 01       	movw	r24, r0
     416:	11 24       	eor	r1, r1
     418:	8d 60       	ori	r24, 0x0D	; 13
     41a:	8b bb       	out	0x1b, r24	; 27
     41c:	85 e0       	ldi	r24, 0x05	; 5
     41e:	8a 95       	dec	r24
     420:	f1 f7       	brne	.-4      	; 0x41e <_ZN5myLCD5TulisEhPKc.constprop.19+0xbe>
     422:	00 00       	nop
     424:	da 98       	cbi	0x1b, 2	; 27
     426:	95 ed       	ldi	r25, 0xD5	; 213
     428:	9a 95       	dec	r25
     42a:	f1 f7       	brne	.-4      	; 0x428 <_ZN5myLCD5TulisEhPKc.constprop.19+0xc8>
     42c:	00 00       	nop
     42e:	da 9a       	sbi	0x1b, 2	; 27
     430:	81 91       	ld	r24, Z+
     432:	81 11       	cpse	r24, r1
     434:	df cf       	rjmp	.-66     	; 0x3f4 <_ZN5myLCD5TulisEhPKc.constprop.19+0x94>
     436:	08 95       	ret
     438:	8c ec       	ldi	r24, 0xCC	; 204
     43a:	8b bb       	out	0x1b, r24	; 27
     43c:	99 cf       	rjmp	.-206    	; 0x370 <_ZN5myLCD5TulisEhPKc.constprop.19+0x10>
     43e:	20 fc       	sbrc	r2, 0
     440:	16 c0       	rjmp	.+44     	; 0x46e <_ZN5myLCD5TulisEhPKc.constprop.19+0x10e>
     442:	84 e8       	ldi	r24, 0x84	; 132
     444:	8b bb       	out	0x1b, r24	; 27
     446:	25 e0       	ldi	r18, 0x05	; 5
     448:	2a 95       	dec	r18
     44a:	f1 f7       	brne	.-4      	; 0x448 <_ZN5myLCD5TulisEhPKc.constprop.19+0xe8>
     44c:	00 00       	nop
     44e:	da 98       	cbi	0x1b, 2	; 27
     450:	8a e1       	ldi	r24, 0x1A	; 26
     452:	8a 95       	dec	r24
     454:	f1 f7       	brne	.-4      	; 0x452 <_ZN5myLCD5TulisEhPKc.constprop.19+0xf2>
     456:	00 c0       	rjmp	.+0      	; 0x458 <_ZN5myLCD5TulisEhPKc.constprop.19+0xf8>
     458:	20 fc       	sbrc	r2, 0
     45a:	0c c0       	rjmp	.+24     	; 0x474 <_ZN5myLCD5TulisEhPKc.constprop.19+0x114>
     45c:	84 e0       	ldi	r24, 0x04	; 4
     45e:	8b bb       	out	0x1b, r24	; 27
     460:	95 e0       	ldi	r25, 0x05	; 5
     462:	9a 95       	dec	r25
     464:	f1 f7       	brne	.-4      	; 0x462 <_ZN5myLCD5TulisEhPKc.constprop.19+0x102>
     466:	94 cf       	rjmp	.-216    	; 0x390 <_ZN5myLCD5TulisEhPKc.constprop.19+0x30>
     468:	8c e0       	ldi	r24, 0x0C	; 12
     46a:	8b bb       	out	0x1b, r24	; 27
     46c:	8e cf       	rjmp	.-228    	; 0x38a <_ZN5myLCD5TulisEhPKc.constprop.19+0x2a>
     46e:	8c e8       	ldi	r24, 0x8C	; 140
     470:	8b bb       	out	0x1b, r24	; 27
     472:	e9 cf       	rjmp	.-46     	; 0x446 <_ZN5myLCD5TulisEhPKc.constprop.19+0xe6>
     474:	8c e0       	ldi	r24, 0x0C	; 12
     476:	8b bb       	out	0x1b, r24	; 27
     478:	f3 cf       	rjmp	.-26     	; 0x460 <_ZN5myLCD5TulisEhPKc.constprop.19+0x100>

0000047a <__vector_30>:
     47a:	1f 92       	push	r1
     47c:	0f 92       	push	r0
     47e:	0f b6       	in	r0, 0x3f	; 63
     480:	0f 92       	push	r0
     482:	11 24       	eor	r1, r1
     484:	0b b6       	in	r0, 0x3b	; 59
     486:	0f 92       	push	r0
     488:	8f 93       	push	r24
     48a:	ef 93       	push	r30
     48c:	ff 93       	push	r31
     48e:	cf 93       	push	r28
     490:	df 93       	push	r29
     492:	00 d0       	rcall	.+0      	; 0x494 <__vector_30+0x1a>
     494:	cd b7       	in	r28, 0x3d	; 61
     496:	de b7       	in	r29, 0x3e	; 62
     498:	80 91 9b 00 	lds	r24, 0x009B
     49c:	8a 83       	std	Y+2, r24	; 0x02
     49e:	80 91 9c 00 	lds	r24, 0x009C
     4a2:	89 83       	std	Y+1, r24	; 0x01
     4a4:	8a 81       	ldd	r24, Y+2	; 0x02
     4a6:	8c 71       	andi	r24, 0x1C	; 28
     4a8:	a9 f4       	brne	.+42     	; 0x4d4 <__vector_30+0x5a>
     4aa:	e0 91 51 02 	lds	r30, 0x0251
     4ae:	f0 e0       	ldi	r31, 0x00	; 0
     4b0:	89 81       	ldd	r24, Y+1	; 0x01
     4b2:	ee 5a       	subi	r30, 0xAE	; 174
     4b4:	fd 4f       	sbci	r31, 0xFD	; 253
     4b6:	80 83       	st	Z, r24
     4b8:	80 91 51 02 	lds	r24, 0x0251
     4bc:	8f 5f       	subi	r24, 0xFF	; 255
     4be:	80 93 51 02 	sts	0x0251, r24
     4c2:	80 31       	cpi	r24, 0x10	; 16
     4c4:	d9 f0       	breq	.+54     	; 0x4fc <__vector_30+0x82>
     4c6:	80 91 4f 02 	lds	r24, 0x024F
     4ca:	8f 5f       	subi	r24, 0xFF	; 255
     4cc:	80 93 4f 02 	sts	0x024F, r24
     4d0:	80 31       	cpi	r24, 0x10	; 16
     4d2:	71 f0       	breq	.+28     	; 0x4f0 <__vector_30+0x76>
     4d4:	0f 90       	pop	r0
     4d6:	0f 90       	pop	r0
     4d8:	df 91       	pop	r29
     4da:	cf 91       	pop	r28
     4dc:	ff 91       	pop	r31
     4de:	ef 91       	pop	r30
     4e0:	8f 91       	pop	r24
     4e2:	0f 90       	pop	r0
     4e4:	0b be       	out	0x3b, r0	; 59
     4e6:	0f 90       	pop	r0
     4e8:	0f be       	out	0x3f, r0	; 63
     4ea:	0f 90       	pop	r0
     4ec:	1f 90       	pop	r1
     4ee:	18 95       	reti
     4f0:	10 92 4f 02 	sts	0x024F, r1
     4f4:	81 e0       	ldi	r24, 0x01	; 1
     4f6:	80 93 4e 02 	sts	0x024E, r24
     4fa:	ec cf       	rjmp	.-40     	; 0x4d4 <__vector_30+0x5a>
     4fc:	10 92 51 02 	sts	0x0251, r1
     500:	80 91 4f 02 	lds	r24, 0x024F
     504:	8f 5f       	subi	r24, 0xFF	; 255
     506:	80 93 4f 02 	sts	0x024F, r24
     50a:	80 31       	cpi	r24, 0x10	; 16
     50c:	19 f7       	brne	.-58     	; 0x4d4 <__vector_30+0x5a>
     50e:	f0 cf       	rjmp	.-32     	; 0x4f0 <__vector_30+0x76>

00000510 <_ZN8myBuzzer5Nada1Ev>:
     510:	8b e1       	ldi	r24, 0x1B	; 27
     512:	83 bf       	out	0x33, r24	; 51
     514:	12 be       	out	0x32, r1	; 50
     516:	8a ef       	ldi	r24, 0xFA	; 250
     518:	81 bf       	out	0x31, r24	; 49
     51a:	84 e6       	ldi	r24, 0x64	; 100
     51c:	90 e0       	ldi	r25, 0x00	; 0
     51e:	ef e9       	ldi	r30, 0x9F	; 159
     520:	ff e0       	ldi	r31, 0x0F	; 15
     522:	31 97       	sbiw	r30, 0x01	; 1
     524:	f1 f7       	brne	.-4      	; 0x522 <_ZN8myBuzzer5Nada1Ev+0x12>
     526:	00 c0       	rjmp	.+0      	; 0x528 <_ZN8myBuzzer5Nada1Ev+0x18>
     528:	00 00       	nop
     52a:	01 97       	sbiw	r24, 0x01	; 1
     52c:	00 97       	sbiw	r24, 0x00	; 0
     52e:	b9 f7       	brne	.-18     	; 0x51e <_ZN8myBuzzer5Nada1Ev+0xe>
     530:	13 be       	out	0x33, r1	; 51
     532:	10 be       	out	0x30, r1	; 48
     534:	c4 98       	cbi	0x18, 4	; 24
     536:	8c e1       	ldi	r24, 0x1C	; 28
     538:	83 bf       	out	0x33, r24	; 51
     53a:	12 be       	out	0x32, r1	; 50
     53c:	8a ef       	ldi	r24, 0xFA	; 250
     53e:	81 bf       	out	0x31, r24	; 49
     540:	84 e1       	ldi	r24, 0x14	; 20
     542:	90 e0       	ldi	r25, 0x00	; 0
     544:	ef e9       	ldi	r30, 0x9F	; 159
     546:	ff e0       	ldi	r31, 0x0F	; 15
     548:	31 97       	sbiw	r30, 0x01	; 1
     54a:	f1 f7       	brne	.-4      	; 0x548 <_ZN8myBuzzer5Nada1Ev+0x38>
     54c:	00 c0       	rjmp	.+0      	; 0x54e <_ZN8myBuzzer5Nada1Ev+0x3e>
     54e:	00 00       	nop
     550:	01 97       	sbiw	r24, 0x01	; 1
     552:	00 97       	sbiw	r24, 0x00	; 0
     554:	b9 f7       	brne	.-18     	; 0x544 <_ZN8myBuzzer5Nada1Ev+0x34>
     556:	13 be       	out	0x33, r1	; 51
     558:	10 be       	out	0x30, r1	; 48
     55a:	c4 98       	cbi	0x18, 4	; 24
     55c:	8b e1       	ldi	r24, 0x1B	; 27
     55e:	83 bf       	out	0x33, r24	; 51
     560:	12 be       	out	0x32, r1	; 50
     562:	83 e5       	ldi	r24, 0x53	; 83
     564:	81 bf       	out	0x31, r24	; 49
     566:	82 e3       	ldi	r24, 0x32	; 50
     568:	90 e0       	ldi	r25, 0x00	; 0
     56a:	ef e9       	ldi	r30, 0x9F	; 159
     56c:	ff e0       	ldi	r31, 0x0F	; 15
     56e:	31 97       	sbiw	r30, 0x01	; 1
     570:	f1 f7       	brne	.-4      	; 0x56e <_ZN8myBuzzer5Nada1Ev+0x5e>
     572:	00 c0       	rjmp	.+0      	; 0x574 <_ZN8myBuzzer5Nada1Ev+0x64>
     574:	00 00       	nop
     576:	01 97       	sbiw	r24, 0x01	; 1
     578:	00 97       	sbiw	r24, 0x00	; 0
     57a:	b9 f7       	brne	.-18     	; 0x56a <_ZN8myBuzzer5Nada1Ev+0x5a>
     57c:	13 be       	out	0x33, r1	; 51
     57e:	10 be       	out	0x30, r1	; 48
     580:	c4 98       	cbi	0x18, 4	; 24
     582:	8c e1       	ldi	r24, 0x1C	; 28
     584:	83 bf       	out	0x33, r24	; 51
     586:	12 be       	out	0x32, r1	; 50
     588:	8a ef       	ldi	r24, 0xFA	; 250
     58a:	81 bf       	out	0x31, r24	; 49
     58c:	84 e1       	ldi	r24, 0x14	; 20
     58e:	90 e0       	ldi	r25, 0x00	; 0
     590:	ef e9       	ldi	r30, 0x9F	; 159
     592:	ff e0       	ldi	r31, 0x0F	; 15
     594:	31 97       	sbiw	r30, 0x01	; 1
     596:	f1 f7       	brne	.-4      	; 0x594 <_ZN8myBuzzer5Nada1Ev+0x84>
     598:	00 c0       	rjmp	.+0      	; 0x59a <_ZN8myBuzzer5Nada1Ev+0x8a>
     59a:	00 00       	nop
     59c:	01 97       	sbiw	r24, 0x01	; 1
     59e:	00 97       	sbiw	r24, 0x00	; 0
     5a0:	b9 f7       	brne	.-18     	; 0x590 <_ZN8myBuzzer5Nada1Ev+0x80>
     5a2:	13 be       	out	0x33, r1	; 51
     5a4:	10 be       	out	0x30, r1	; 48
     5a6:	c4 98       	cbi	0x18, 4	; 24
     5a8:	8b e1       	ldi	r24, 0x1B	; 27
     5aa:	83 bf       	out	0x33, r24	; 51
     5ac:	12 be       	out	0x32, r1	; 50
     5ae:	83 e5       	ldi	r24, 0x53	; 83
     5b0:	81 bf       	out	0x31, r24	; 49
     5b2:	84 e6       	ldi	r24, 0x64	; 100
     5b4:	90 e0       	ldi	r25, 0x00	; 0
     5b6:	ef e9       	ldi	r30, 0x9F	; 159
     5b8:	ff e0       	ldi	r31, 0x0F	; 15
     5ba:	31 97       	sbiw	r30, 0x01	; 1
     5bc:	f1 f7       	brne	.-4      	; 0x5ba <_ZN8myBuzzer5Nada1Ev+0xaa>
     5be:	00 c0       	rjmp	.+0      	; 0x5c0 <_ZN8myBuzzer5Nada1Ev+0xb0>
     5c0:	00 00       	nop
     5c2:	01 97       	sbiw	r24, 0x01	; 1
     5c4:	00 97       	sbiw	r24, 0x00	; 0
     5c6:	b9 f7       	brne	.-18     	; 0x5b6 <_ZN8myBuzzer5Nada1Ev+0xa6>
     5c8:	13 be       	out	0x33, r1	; 51
     5ca:	10 be       	out	0x30, r1	; 48
     5cc:	c4 98       	cbi	0x18, 4	; 24
     5ce:	8c e1       	ldi	r24, 0x1C	; 28
     5d0:	83 bf       	out	0x33, r24	; 51
     5d2:	12 be       	out	0x32, r1	; 50
     5d4:	8a ef       	ldi	r24, 0xFA	; 250
     5d6:	81 bf       	out	0x31, r24	; 49
     5d8:	84 e1       	ldi	r24, 0x14	; 20
     5da:	90 e0       	ldi	r25, 0x00	; 0
     5dc:	ef e9       	ldi	r30, 0x9F	; 159
     5de:	ff e0       	ldi	r31, 0x0F	; 15
     5e0:	31 97       	sbiw	r30, 0x01	; 1
     5e2:	f1 f7       	brne	.-4      	; 0x5e0 <_ZN8myBuzzer5Nada1Ev+0xd0>
     5e4:	00 c0       	rjmp	.+0      	; 0x5e6 <_ZN8myBuzzer5Nada1Ev+0xd6>
     5e6:	00 00       	nop
     5e8:	01 97       	sbiw	r24, 0x01	; 1
     5ea:	00 97       	sbiw	r24, 0x00	; 0
     5ec:	b9 f7       	brne	.-18     	; 0x5dc <_ZN8myBuzzer5Nada1Ev+0xcc>
     5ee:	13 be       	out	0x33, r1	; 51
     5f0:	10 be       	out	0x30, r1	; 48
     5f2:	c4 98       	cbi	0x18, 4	; 24
     5f4:	8b e1       	ldi	r24, 0x1B	; 27
     5f6:	83 bf       	out	0x33, r24	; 51
     5f8:	12 be       	out	0x32, r1	; 50
     5fa:	8d e7       	ldi	r24, 0x7D	; 125
     5fc:	81 bf       	out	0x31, r24	; 49
     5fe:	82 e3       	ldi	r24, 0x32	; 50
     600:	90 e0       	ldi	r25, 0x00	; 0
     602:	ef e9       	ldi	r30, 0x9F	; 159
     604:	ff e0       	ldi	r31, 0x0F	; 15
     606:	31 97       	sbiw	r30, 0x01	; 1
     608:	f1 f7       	brne	.-4      	; 0x606 <_ZN8myBuzzer5Nada1Ev+0xf6>
     60a:	00 c0       	rjmp	.+0      	; 0x60c <_ZN8myBuzzer5Nada1Ev+0xfc>
     60c:	00 00       	nop
     60e:	01 97       	sbiw	r24, 0x01	; 1
     610:	00 97       	sbiw	r24, 0x00	; 0
     612:	b9 f7       	brne	.-18     	; 0x602 <_ZN8myBuzzer5Nada1Ev+0xf2>
     614:	13 be       	out	0x33, r1	; 51
     616:	10 be       	out	0x30, r1	; 48
     618:	c4 98       	cbi	0x18, 4	; 24
     61a:	08 95       	ret

0000061c <_ZN5myLCD8PerintahEh>:
     61c:	d8 98       	cbi	0x1b, 0	; 27
     61e:	86 2f       	mov	r24, r22
     620:	80 7f       	andi	r24, 0xF0	; 240
     622:	20 fe       	sbrs	r2, 0
     624:	20 c0       	rjmp	.+64     	; 0x666 <_ZN5myLCD8PerintahEh+0x4a>
     626:	8c 60       	ori	r24, 0x0C	; 12
     628:	8b bb       	out	0x1b, r24	; 27
     62a:	85 e0       	ldi	r24, 0x05	; 5
     62c:	8a 95       	dec	r24
     62e:	f1 f7       	brne	.-4      	; 0x62c <_ZN5myLCD8PerintahEh+0x10>
     630:	00 00       	nop
     632:	da 98       	cbi	0x1b, 2	; 27
     634:	9a e1       	ldi	r25, 0x1A	; 26
     636:	9a 95       	dec	r25
     638:	f1 f7       	brne	.-4      	; 0x636 <_ZN5myLCD8PerintahEh+0x1a>
     63a:	00 c0       	rjmp	.+0      	; 0x63c <_ZN5myLCD8PerintahEh+0x20>
     63c:	20 fc       	sbrc	r2, 0
     63e:	16 c0       	rjmp	.+44     	; 0x66c <_ZN5myLCD8PerintahEh+0x50>
     640:	90 e1       	ldi	r25, 0x10	; 16
     642:	69 9f       	mul	r22, r25
     644:	b0 01       	movw	r22, r0
     646:	11 24       	eor	r1, r1
     648:	64 60       	ori	r22, 0x04	; 4
     64a:	6b bb       	out	0x1b, r22	; 27
     64c:	85 e0       	ldi	r24, 0x05	; 5
     64e:	8a 95       	dec	r24
     650:	f1 f7       	brne	.-4      	; 0x64e <_ZN5myLCD8PerintahEh+0x32>
     652:	00 00       	nop
     654:	da 98       	cbi	0x1b, 2	; 27
     656:	8f ee       	ldi	r24, 0xEF	; 239
     658:	9a e0       	ldi	r25, 0x0A	; 10
     65a:	01 97       	sbiw	r24, 0x01	; 1
     65c:	f1 f7       	brne	.-4      	; 0x65a <_ZN5myLCD8PerintahEh+0x3e>
     65e:	00 c0       	rjmp	.+0      	; 0x660 <_ZN5myLCD8PerintahEh+0x44>
     660:	00 00       	nop
     662:	da 9a       	sbi	0x1b, 2	; 27
     664:	08 95       	ret
     666:	84 60       	ori	r24, 0x04	; 4
     668:	8b bb       	out	0x1b, r24	; 27
     66a:	df cf       	rjmp	.-66     	; 0x62a <_ZN5myLCD8PerintahEh+0xe>
     66c:	80 e1       	ldi	r24, 0x10	; 16
     66e:	68 9f       	mul	r22, r24
     670:	b0 01       	movw	r22, r0
     672:	11 24       	eor	r1, r1
     674:	6c 60       	ori	r22, 0x0C	; 12
     676:	6b bb       	out	0x1b, r22	; 27
     678:	e9 cf       	rjmp	.-46     	; 0x64c <_ZN5myLCD8PerintahEh+0x30>

0000067a <_ZN5myLCD9TulisKiriEhPKc.constprop.18>:
     67a:	d8 98       	cbi	0x1b, 0	; 27
     67c:	20 fe       	sbrs	r2, 0
     67e:	77 c0       	rjmp	.+238    	; 0x76e <_ZN5myLCD9TulisKiriEhPKc.constprop.18+0xf4>
     680:	2c e8       	ldi	r18, 0x8C	; 140
     682:	2b bb       	out	0x1b, r18	; 27
     684:	25 e0       	ldi	r18, 0x05	; 5
     686:	2a 95       	dec	r18
     688:	f1 f7       	brne	.-4      	; 0x686 <_ZN5myLCD9TulisKiriEhPKc.constprop.18+0xc>
     68a:	00 00       	nop
     68c:	da 98       	cbi	0x1b, 2	; 27
     68e:	3a e1       	ldi	r19, 0x1A	; 26
     690:	3a 95       	dec	r19
     692:	f1 f7       	brne	.-4      	; 0x690 <_ZN5myLCD9TulisKiriEhPKc.constprop.18+0x16>
     694:	00 c0       	rjmp	.+0      	; 0x696 <_ZN5myLCD9TulisKiriEhPKc.constprop.18+0x1c>
     696:	20 fc       	sbrc	r2, 0
     698:	6d c0       	rjmp	.+218    	; 0x774 <_ZN5myLCD9TulisKiriEhPKc.constprop.18+0xfa>
     69a:	24 e0       	ldi	r18, 0x04	; 4
     69c:	2b bb       	out	0x1b, r18	; 27
     69e:	e5 e0       	ldi	r30, 0x05	; 5
     6a0:	ea 95       	dec	r30
     6a2:	f1 f7       	brne	.-4      	; 0x6a0 <_ZN5myLCD9TulisKiriEhPKc.constprop.18+0x26>
     6a4:	00 00       	nop
     6a6:	da 98       	cbi	0x1b, 2	; 27
     6a8:	ef ee       	ldi	r30, 0xEF	; 239
     6aa:	fa e0       	ldi	r31, 0x0A	; 10
     6ac:	31 97       	sbiw	r30, 0x01	; 1
     6ae:	f1 f7       	brne	.-4      	; 0x6ac <_ZN5myLCD9TulisKiriEhPKc.constprop.18+0x32>
     6b0:	00 c0       	rjmp	.+0      	; 0x6b2 <_ZN5myLCD9TulisKiriEhPKc.constprop.18+0x38>
     6b2:	00 00       	nop
     6b4:	da 9a       	sbi	0x1b, 2	; 27
     6b6:	fc 01       	movw	r30, r24
     6b8:	20 e0       	ldi	r18, 0x00	; 0
     6ba:	20 fc       	sbrc	r2, 0
     6bc:	2c c0       	rjmp	.+88     	; 0x716 <_ZN5myLCD9TulisKiriEhPKc.constprop.18+0x9c>
     6be:	81 91       	ld	r24, Z+
     6c0:	d8 9a       	sbi	0x1b, 0	; 27
     6c2:	98 2f       	mov	r25, r24
     6c4:	90 7f       	andi	r25, 0xF0	; 240
     6c6:	95 60       	ori	r25, 0x05	; 5
     6c8:	9b bb       	out	0x1b, r25	; 27
     6ca:	35 e0       	ldi	r19, 0x05	; 5
     6cc:	3a 95       	dec	r19
     6ce:	f1 f7       	brne	.-4      	; 0x6cc <_ZN5myLCD9TulisKiriEhPKc.constprop.18+0x52>
     6d0:	00 00       	nop
     6d2:	da 98       	cbi	0x1b, 2	; 27
     6d4:	9a e1       	ldi	r25, 0x1A	; 26
     6d6:	9a 95       	dec	r25
     6d8:	f1 f7       	brne	.-4      	; 0x6d6 <_ZN5myLCD9TulisKiriEhPKc.constprop.18+0x5c>
     6da:	00 c0       	rjmp	.+0      	; 0x6dc <_ZN5myLCD9TulisKiriEhPKc.constprop.18+0x62>
     6dc:	30 e1       	ldi	r19, 0x10	; 16
     6de:	83 9f       	mul	r24, r19
     6e0:	c0 01       	movw	r24, r0
     6e2:	11 24       	eor	r1, r1
     6e4:	85 60       	ori	r24, 0x05	; 5
     6e6:	8b bb       	out	0x1b, r24	; 27
     6e8:	85 e0       	ldi	r24, 0x05	; 5
     6ea:	8a 95       	dec	r24
     6ec:	f1 f7       	brne	.-4      	; 0x6ea <_ZN5myLCD9TulisKiriEhPKc.constprop.18+0x70>
     6ee:	00 00       	nop
     6f0:	da 98       	cbi	0x1b, 2	; 27
     6f2:	95 ed       	ldi	r25, 0xD5	; 213
     6f4:	9a 95       	dec	r25
     6f6:	f1 f7       	brne	.-4      	; 0x6f4 <_ZN5myLCD9TulisKiriEhPKc.constprop.18+0x7a>
     6f8:	00 00       	nop
     6fa:	da 9a       	sbi	0x1b, 2	; 27
     6fc:	3f e7       	ldi	r19, 0x7F	; 127
     6fe:	88 e3       	ldi	r24, 0x38	; 56
     700:	91 e0       	ldi	r25, 0x01	; 1
     702:	31 50       	subi	r19, 0x01	; 1
     704:	80 40       	sbci	r24, 0x00	; 0
     706:	90 40       	sbci	r25, 0x00	; 0
     708:	e1 f7       	brne	.-8      	; 0x702 <_ZN5myLCD9TulisKiriEhPKc.constprop.18+0x88>
     70a:	00 c0       	rjmp	.+0      	; 0x70c <_ZN5myLCD9TulisKiriEhPKc.constprop.18+0x92>
     70c:	00 00       	nop
     70e:	2f 5f       	subi	r18, 0xFF	; 255
     710:	20 31       	cpi	r18, 0x10	; 16
     712:	a9 f6       	brne	.-86     	; 0x6be <_ZN5myLCD9TulisKiriEhPKc.constprop.18+0x44>
     714:	08 95       	ret
     716:	81 91       	ld	r24, Z+
     718:	d8 9a       	sbi	0x1b, 0	; 27
     71a:	98 2f       	mov	r25, r24
     71c:	90 7f       	andi	r25, 0xF0	; 240
     71e:	9d 60       	ori	r25, 0x0D	; 13
     720:	9b bb       	out	0x1b, r25	; 27
     722:	35 e0       	ldi	r19, 0x05	; 5
     724:	3a 95       	dec	r19
     726:	f1 f7       	brne	.-4      	; 0x724 <_ZN5myLCD9TulisKiriEhPKc.constprop.18+0xaa>
     728:	00 00       	nop
     72a:	da 98       	cbi	0x1b, 2	; 27
     72c:	9a e1       	ldi	r25, 0x1A	; 26
     72e:	9a 95       	dec	r25
     730:	f1 f7       	brne	.-4      	; 0x72e <_ZN5myLCD9TulisKiriEhPKc.constprop.18+0xb4>
     732:	00 c0       	rjmp	.+0      	; 0x734 <_ZN5myLCD9TulisKiriEhPKc.constprop.18+0xba>
     734:	30 e1       	ldi	r19, 0x10	; 16
     736:	83 9f       	mul	r24, r19
     738:	c0 01       	movw	r24, r0
     73a:	11 24       	eor	r1, r1
     73c:	8d 60       	ori	r24, 0x0D	; 13
     73e:	8b bb       	out	0x1b, r24	; 27
     740:	85 e0       	ldi	r24, 0x05	; 5
     742:	8a 95       	dec	r24
     744:	f1 f7       	brne	.-4      	; 0x742 <_ZN5myLCD9TulisKiriEhPKc.constprop.18+0xc8>
     746:	00 00       	nop
     748:	da 98       	cbi	0x1b, 2	; 27
     74a:	95 ed       	ldi	r25, 0xD5	; 213
     74c:	9a 95       	dec	r25
     74e:	f1 f7       	brne	.-4      	; 0x74c <_ZN5myLCD9TulisKiriEhPKc.constprop.18+0xd2>
     750:	00 00       	nop
     752:	da 9a       	sbi	0x1b, 2	; 27
     754:	3f e7       	ldi	r19, 0x7F	; 127
     756:	88 e3       	ldi	r24, 0x38	; 56
     758:	91 e0       	ldi	r25, 0x01	; 1
     75a:	31 50       	subi	r19, 0x01	; 1
     75c:	80 40       	sbci	r24, 0x00	; 0
     75e:	90 40       	sbci	r25, 0x00	; 0
     760:	e1 f7       	brne	.-8      	; 0x75a <_ZN5myLCD9TulisKiriEhPKc.constprop.18+0xe0>
     762:	00 c0       	rjmp	.+0      	; 0x764 <_ZN5myLCD9TulisKiriEhPKc.constprop.18+0xea>
     764:	00 00       	nop
     766:	2f 5f       	subi	r18, 0xFF	; 255
     768:	20 31       	cpi	r18, 0x10	; 16
     76a:	a9 f6       	brne	.-86     	; 0x716 <_ZN5myLCD9TulisKiriEhPKc.constprop.18+0x9c>
     76c:	08 95       	ret
     76e:	24 e8       	ldi	r18, 0x84	; 132
     770:	2b bb       	out	0x1b, r18	; 27
     772:	88 cf       	rjmp	.-240    	; 0x684 <_ZN5myLCD9TulisKiriEhPKc.constprop.18+0xa>
     774:	2c e0       	ldi	r18, 0x0C	; 12
     776:	2b bb       	out	0x1b, r18	; 27
     778:	92 cf       	rjmp	.-220    	; 0x69e <_ZN5myLCD9TulisKiriEhPKc.constprop.18+0x24>

0000077a <_ZN5myADC9CekBatereEv.part.7>:
     77a:	f8 94       	cli
     77c:	e8 94       	clt
     77e:	23 f8       	bld	r2, 3
     780:	10 92 85 00 	sts	0x0085, r1
     784:	10 92 84 00 	sts	0x0084, r1
     788:	1d 9a       	sbi	0x03, 5	; 3
     78a:	10 92 87 00 	sts	0x0087, r1
     78e:	10 92 86 00 	sts	0x0086, r1
     792:	1a 9a       	sbi	0x03, 2	; 3
     794:	61 e0       	ldi	r22, 0x01	; 1
     796:	81 e4       	ldi	r24, 0x41	; 65
     798:	92 e0       	ldi	r25, 0x02	; 2
     79a:	0e 94 0e 03 	call	0x61c	; 0x61c <_ZN5myLCD8PerintahEh>
     79e:	8f e3       	ldi	r24, 0x3F	; 63
     7a0:	9f e1       	ldi	r25, 0x1F	; 31
     7a2:	01 97       	sbiw	r24, 0x01	; 1
     7a4:	f1 f7       	brne	.-4      	; 0x7a2 <_ZN5myADC9CekBatereEv.part.7+0x28>
     7a6:	00 c0       	rjmp	.+0      	; 0x7a8 <_ZN5myADC9CekBatereEv.part.7+0x2e>
     7a8:	00 00       	nop
     7aa:	60 e8       	ldi	r22, 0x80	; 128
     7ac:	81 e4       	ldi	r24, 0x41	; 65
     7ae:	92 e0       	ldi	r25, 0x02	; 2
     7b0:	0e 94 0e 03 	call	0x61c	; 0x61c <_ZN5myLCD8PerintahEh>
     7b4:	e3 e0       	ldi	r30, 0x03	; 3
     7b6:	f1 e0       	ldi	r31, 0x01	; 1
     7b8:	86 e5       	ldi	r24, 0x56	; 86
     7ba:	20 fc       	sbrc	r2, 0
     7bc:	6c c0       	rjmp	.+216    	; 0x896 <_ZN5myADC9CekBatereEv.part.7+0x11c>
     7be:	d8 9a       	sbi	0x1b, 0	; 27
     7c0:	98 2f       	mov	r25, r24
     7c2:	90 7f       	andi	r25, 0xF0	; 240
     7c4:	95 60       	ori	r25, 0x05	; 5
     7c6:	9b bb       	out	0x1b, r25	; 27
     7c8:	95 e0       	ldi	r25, 0x05	; 5
     7ca:	9a 95       	dec	r25
     7cc:	f1 f7       	brne	.-4      	; 0x7ca <_ZN5myADC9CekBatereEv.part.7+0x50>
     7ce:	00 00       	nop
     7d0:	da 98       	cbi	0x1b, 2	; 27
     7d2:	2a e1       	ldi	r18, 0x1A	; 26
     7d4:	2a 95       	dec	r18
     7d6:	f1 f7       	brne	.-4      	; 0x7d4 <_ZN5myADC9CekBatereEv.part.7+0x5a>
     7d8:	00 c0       	rjmp	.+0      	; 0x7da <_ZN5myADC9CekBatereEv.part.7+0x60>
     7da:	40 e1       	ldi	r20, 0x10	; 16
     7dc:	84 9f       	mul	r24, r20
     7de:	c0 01       	movw	r24, r0
     7e0:	11 24       	eor	r1, r1
     7e2:	85 60       	ori	r24, 0x05	; 5
     7e4:	8b bb       	out	0x1b, r24	; 27
     7e6:	85 e0       	ldi	r24, 0x05	; 5
     7e8:	8a 95       	dec	r24
     7ea:	f1 f7       	brne	.-4      	; 0x7e8 <_ZN5myADC9CekBatereEv.part.7+0x6e>
     7ec:	00 00       	nop
     7ee:	da 98       	cbi	0x1b, 2	; 27
     7f0:	95 ed       	ldi	r25, 0xD5	; 213
     7f2:	9a 95       	dec	r25
     7f4:	f1 f7       	brne	.-4      	; 0x7f2 <_ZN5myADC9CekBatereEv.part.7+0x78>
     7f6:	00 00       	nop
     7f8:	da 9a       	sbi	0x1b, 2	; 27
     7fa:	81 91       	ld	r24, Z+
     7fc:	81 11       	cpse	r24, r1
     7fe:	df cf       	rjmp	.-66     	; 0x7be <_ZN5myADC9CekBatereEv.part.7+0x44>
     800:	63 e1       	ldi	r22, 0x13	; 19
     802:	71 e0       	ldi	r23, 0x01	; 1
     804:	81 e0       	ldi	r24, 0x01	; 1
     806:	0e 94 b0 01 	call	0x360	; 0x360 <_ZN5myLCD5TulisEhPKc.constprop.19>
     80a:	3b e1       	ldi	r19, 0x1B	; 27
     80c:	2d e7       	ldi	r18, 0x7D	; 125
     80e:	33 bf       	out	0x33, r19	; 51
     810:	12 be       	out	0x32, r1	; 50
     812:	21 bf       	out	0x31, r18	; 49
     814:	84 e6       	ldi	r24, 0x64	; 100
     816:	90 e0       	ldi	r25, 0x00	; 0
     818:	ef e9       	ldi	r30, 0x9F	; 159
     81a:	ff e0       	ldi	r31, 0x0F	; 15
     81c:	31 97       	sbiw	r30, 0x01	; 1
     81e:	f1 f7       	brne	.-4      	; 0x81c <_ZN5myADC9CekBatereEv.part.7+0xa2>
     820:	00 c0       	rjmp	.+0      	; 0x822 <_ZN5myADC9CekBatereEv.part.7+0xa8>
     822:	00 00       	nop
     824:	01 97       	sbiw	r24, 0x01	; 1
     826:	00 97       	sbiw	r24, 0x00	; 0
     828:	b9 f7       	brne	.-18     	; 0x818 <_ZN5myADC9CekBatereEv.part.7+0x9e>
     82a:	13 be       	out	0x33, r1	; 51
     82c:	10 be       	out	0x30, r1	; 48
     82e:	c4 98       	cbi	0x18, 4	; 24
     830:	ff ef       	ldi	r31, 0xFF	; 255
     832:	41 ee       	ldi	r20, 0xE1	; 225
     834:	84 e0       	ldi	r24, 0x04	; 4
     836:	f1 50       	subi	r31, 0x01	; 1
     838:	40 40       	sbci	r20, 0x00	; 0
     83a:	80 40       	sbci	r24, 0x00	; 0
     83c:	e1 f7       	brne	.-8      	; 0x836 <_ZN5myADC9CekBatereEv.part.7+0xbc>
     83e:	00 c0       	rjmp	.+0      	; 0x840 <_ZN5myADC9CekBatereEv.part.7+0xc6>
     840:	00 00       	nop
     842:	33 bf       	out	0x33, r19	; 51
     844:	12 be       	out	0x32, r1	; 50
     846:	21 bf       	out	0x31, r18	; 49
     848:	84 e6       	ldi	r24, 0x64	; 100
     84a:	90 e0       	ldi	r25, 0x00	; 0
     84c:	ef e9       	ldi	r30, 0x9F	; 159
     84e:	ff e0       	ldi	r31, 0x0F	; 15
     850:	31 97       	sbiw	r30, 0x01	; 1
     852:	f1 f7       	brne	.-4      	; 0x850 <_ZN5myADC9CekBatereEv.part.7+0xd6>
     854:	00 c0       	rjmp	.+0      	; 0x856 <_ZN5myADC9CekBatereEv.part.7+0xdc>
     856:	00 00       	nop
     858:	01 97       	sbiw	r24, 0x01	; 1
     85a:	00 97       	sbiw	r24, 0x00	; 0
     85c:	b9 f7       	brne	.-18     	; 0x84c <_ZN5myADC9CekBatereEv.part.7+0xd2>
     85e:	13 be       	out	0x33, r1	; 51
     860:	10 be       	out	0x30, r1	; 48
     862:	c4 98       	cbi	0x18, 4	; 24
     864:	ff ef       	ldi	r31, 0xFF	; 255
     866:	45 ea       	ldi	r20, 0xA5	; 165
     868:	8e e0       	ldi	r24, 0x0E	; 14
     86a:	f1 50       	subi	r31, 0x01	; 1
     86c:	40 40       	sbci	r20, 0x00	; 0
     86e:	80 40       	sbci	r24, 0x00	; 0
     870:	e1 f7       	brne	.-8      	; 0x86a <_ZN5myADC9CekBatereEv.part.7+0xf0>
     872:	00 c0       	rjmp	.+0      	; 0x874 <_ZN5myADC9CekBatereEv.part.7+0xfa>
     874:	00 00       	nop
     876:	68 94       	set
     878:	20 f8       	bld	r2, 0
     87a:	db 9a       	sbi	0x1b, 3	; 27
     87c:	9f ef       	ldi	r25, 0xFF	; 255
     87e:	e9 e6       	ldi	r30, 0x69	; 105
     880:	f8 e1       	ldi	r31, 0x18	; 24
     882:	91 50       	subi	r25, 0x01	; 1
     884:	e0 40       	sbci	r30, 0x00	; 0
     886:	f0 40       	sbci	r31, 0x00	; 0
     888:	e1 f7       	brne	.-8      	; 0x882 <_ZN5myADC9CekBatereEv.part.7+0x108>
     88a:	00 c0       	rjmp	.+0      	; 0x88c <_ZN5myADC9CekBatereEv.part.7+0x112>
     88c:	00 00       	nop
     88e:	e8 94       	clt
     890:	20 f8       	bld	r2, 0
     892:	db 98       	cbi	0x1b, 3	; 27
     894:	bc cf       	rjmp	.-136    	; 0x80e <_ZN5myADC9CekBatereEv.part.7+0x94>
     896:	d8 9a       	sbi	0x1b, 0	; 27
     898:	98 2f       	mov	r25, r24
     89a:	90 7f       	andi	r25, 0xF0	; 240
     89c:	9d 60       	ori	r25, 0x0D	; 13
     89e:	9b bb       	out	0x1b, r25	; 27
     8a0:	25 e0       	ldi	r18, 0x05	; 5
     8a2:	2a 95       	dec	r18
     8a4:	f1 f7       	brne	.-4      	; 0x8a2 <_ZN5myADC9CekBatereEv.part.7+0x128>
     8a6:	00 00       	nop
     8a8:	da 98       	cbi	0x1b, 2	; 27
     8aa:	4a e1       	ldi	r20, 0x1A	; 26
     8ac:	4a 95       	dec	r20
     8ae:	f1 f7       	brne	.-4      	; 0x8ac <_ZN5myADC9CekBatereEv.part.7+0x132>
     8b0:	00 c0       	rjmp	.+0      	; 0x8b2 <_ZN5myADC9CekBatereEv.part.7+0x138>
     8b2:	20 e1       	ldi	r18, 0x10	; 16
     8b4:	82 9f       	mul	r24, r18
     8b6:	c0 01       	movw	r24, r0
     8b8:	11 24       	eor	r1, r1
     8ba:	8d 60       	ori	r24, 0x0D	; 13
     8bc:	8b bb       	out	0x1b, r24	; 27
     8be:	45 e0       	ldi	r20, 0x05	; 5
     8c0:	4a 95       	dec	r20
     8c2:	f1 f7       	brne	.-4      	; 0x8c0 <_ZN5myADC9CekBatereEv.part.7+0x146>
     8c4:	00 00       	nop
     8c6:	da 98       	cbi	0x1b, 2	; 27
     8c8:	85 ed       	ldi	r24, 0xD5	; 213
     8ca:	8a 95       	dec	r24
     8cc:	f1 f7       	brne	.-4      	; 0x8ca <_ZN5myADC9CekBatereEv.part.7+0x150>
     8ce:	00 00       	nop
     8d0:	da 9a       	sbi	0x1b, 2	; 27
     8d2:	81 91       	ld	r24, Z+
     8d4:	81 11       	cpse	r24, r1
     8d6:	df cf       	rjmp	.-66     	; 0x896 <_ZN5myADC9CekBatereEv.part.7+0x11c>
     8d8:	93 cf       	rjmp	.-218    	; 0x800 <_ZN5myADC9CekBatereEv.part.7+0x86>

000008da <_ZN5myLCD4DataEh>:
     8da:	d8 9a       	sbi	0x1b, 0	; 27
     8dc:	86 2f       	mov	r24, r22
     8de:	80 7f       	andi	r24, 0xF0	; 240
     8e0:	20 fe       	sbrs	r2, 0
     8e2:	1e c0       	rjmp	.+60     	; 0x920 <_ZN5myLCD4DataEh+0x46>
     8e4:	8d 60       	ori	r24, 0x0D	; 13
     8e6:	8b bb       	out	0x1b, r24	; 27
     8e8:	85 e0       	ldi	r24, 0x05	; 5
     8ea:	8a 95       	dec	r24
     8ec:	f1 f7       	brne	.-4      	; 0x8ea <_ZN5myLCD4DataEh+0x10>
     8ee:	00 00       	nop
     8f0:	da 98       	cbi	0x1b, 2	; 27
     8f2:	8a e1       	ldi	r24, 0x1A	; 26
     8f4:	8a 95       	dec	r24
     8f6:	f1 f7       	brne	.-4      	; 0x8f4 <_ZN5myLCD4DataEh+0x1a>
     8f8:	00 c0       	rjmp	.+0      	; 0x8fa <_ZN5myLCD4DataEh+0x20>
     8fa:	80 e1       	ldi	r24, 0x10	; 16
     8fc:	68 9f       	mul	r22, r24
     8fe:	b0 01       	movw	r22, r0
     900:	11 24       	eor	r1, r1
     902:	20 fc       	sbrc	r2, 0
     904:	10 c0       	rjmp	.+32     	; 0x926 <_ZN5myLCD4DataEh+0x4c>
     906:	65 60       	ori	r22, 0x05	; 5
     908:	6b bb       	out	0x1b, r22	; 27
     90a:	85 e0       	ldi	r24, 0x05	; 5
     90c:	8a 95       	dec	r24
     90e:	f1 f7       	brne	.-4      	; 0x90c <_ZN5myLCD4DataEh+0x32>
     910:	00 00       	nop
     912:	da 98       	cbi	0x1b, 2	; 27
     914:	85 ed       	ldi	r24, 0xD5	; 213
     916:	8a 95       	dec	r24
     918:	f1 f7       	brne	.-4      	; 0x916 <_ZN5myLCD4DataEh+0x3c>
     91a:	00 00       	nop
     91c:	da 9a       	sbi	0x1b, 2	; 27
     91e:	08 95       	ret
     920:	85 60       	ori	r24, 0x05	; 5
     922:	8b bb       	out	0x1b, r24	; 27
     924:	e1 cf       	rjmp	.-62     	; 0x8e8 <_ZN5myLCD4DataEh+0xe>
     926:	6d 60       	ori	r22, 0x0D	; 13
     928:	6b bb       	out	0x1b, r22	; 27
     92a:	ef cf       	rjmp	.-34     	; 0x90a <_ZN5myLCD4DataEh+0x30>

0000092c <_ZN11myScanGaris15TraceUjungKananEj.constprop.12>:
     92c:	cf 92       	push	r12
     92e:	df 92       	push	r13
     930:	ef 92       	push	r14
     932:	ff 92       	push	r15
     934:	0f 93       	push	r16
     936:	1f 93       	push	r17
     938:	cf 93       	push	r28
     93a:	df 93       	push	r29
     93c:	ec 01       	movw	r28, r24
     93e:	69 81       	ldd	r22, Y+1	; 0x01
     940:	88 81       	ld	r24, Y
     942:	0e 94 fe 00 	call	0x1fc	; 0x1fc <_ZN13mySensorGaris9BacaGarisEhh.constprop.14>
     946:	31 fc       	sbrc	r3, 1
     948:	80 95       	com	r24
     94a:	d8 98       	cbi	0x1b, 0	; 27
     94c:	20 fe       	sbrs	r2, 0
     94e:	55 c2       	rjmp	.+1194   	; 0xdfa <_ZN11myScanGaris15TraceUjungKananEj.constprop.12+0x4ce>
     950:	9c e8       	ldi	r25, 0x8C	; 140
     952:	9b bb       	out	0x1b, r25	; 27
     954:	25 e0       	ldi	r18, 0x05	; 5
     956:	2a 95       	dec	r18
     958:	f1 f7       	brne	.-4      	; 0x956 <_ZN11myScanGaris15TraceUjungKananEj.constprop.12+0x2a>
     95a:	00 00       	nop
     95c:	da 98       	cbi	0x1b, 2	; 27
     95e:	4a e1       	ldi	r20, 0x1A	; 26
     960:	4a 95       	dec	r20
     962:	f1 f7       	brne	.-4      	; 0x960 <_ZN11myScanGaris15TraceUjungKananEj.constprop.12+0x34>
     964:	00 c0       	rjmp	.+0      	; 0x966 <_ZN11myScanGaris15TraceUjungKananEj.constprop.12+0x3a>
     966:	20 fc       	sbrc	r2, 0
     968:	e6 c2       	rjmp	.+1484   	; 0xf36 <_ZN11myScanGaris15TraceUjungKananEj.constprop.12+0x60a>
     96a:	94 e0       	ldi	r25, 0x04	; 4
     96c:	9b bb       	out	0x1b, r25	; 27
     96e:	95 e0       	ldi	r25, 0x05	; 5
     970:	9a 95       	dec	r25
     972:	f1 f7       	brne	.-4      	; 0x970 <_ZN11myScanGaris15TraceUjungKananEj.constprop.12+0x44>
     974:	00 00       	nop
     976:	da 98       	cbi	0x1b, 2	; 27
     978:	ef ee       	ldi	r30, 0xEF	; 239
     97a:	fa e0       	ldi	r31, 0x0A	; 10
     97c:	31 97       	sbiw	r30, 0x01	; 1
     97e:	f1 f7       	brne	.-4      	; 0x97c <_ZN11myScanGaris15TraceUjungKananEj.constprop.12+0x50>
     980:	00 c0       	rjmp	.+0      	; 0x982 <_ZN11myScanGaris15TraceUjungKananEj.constprop.12+0x56>
     982:	00 00       	nop
     984:	da 9a       	sbi	0x1b, 2	; 27
     986:	68 2f       	mov	r22, r24
     988:	70 e0       	ldi	r23, 0x00	; 0
     98a:	27 e0       	ldi	r18, 0x07	; 7
     98c:	30 e0       	ldi	r19, 0x00	; 0
     98e:	92 2d       	mov	r25, r2
     990:	91 70       	andi	r25, 0x01	; 1
     992:	b5 e1       	ldi	r27, 0x15	; 21
     994:	0d e1       	ldi	r16, 0x1D	; 29
     996:	f5 e3       	ldi	r31, 0x35	; 53
     998:	ed e3       	ldi	r30, 0x3D	; 61
     99a:	a5 e0       	ldi	r26, 0x05	; 5
     99c:	1d e0       	ldi	r17, 0x0D	; 13
     99e:	1c c0       	rjmp	.+56     	; 0x9d8 <_ZN11myScanGaris15TraceUjungKananEj.constprop.12+0xac>
     9a0:	99 23       	and	r25, r25
     9a2:	a1 f1       	breq	.+104    	; 0xa0c <_ZN11myScanGaris15TraceUjungKananEj.constprop.12+0xe0>
     9a4:	eb bb       	out	0x1b, r30	; 27
     9a6:	45 e0       	ldi	r20, 0x05	; 5
     9a8:	4a 95       	dec	r20
     9aa:	f1 f7       	brne	.-4      	; 0x9a8 <_ZN11myScanGaris15TraceUjungKananEj.constprop.12+0x7c>
     9ac:	00 00       	nop
     9ae:	da 98       	cbi	0x1b, 2	; 27
     9b0:	4a e1       	ldi	r20, 0x1A	; 26
     9b2:	4a 95       	dec	r20
     9b4:	f1 f7       	brne	.-4      	; 0x9b2 <_ZN11myScanGaris15TraceUjungKananEj.constprop.12+0x86>
     9b6:	00 c0       	rjmp	.+0      	; 0x9b8 <_ZN11myScanGaris15TraceUjungKananEj.constprop.12+0x8c>
     9b8:	91 11       	cpse	r25, r1
     9ba:	2c c0       	rjmp	.+88     	; 0xa14 <_ZN11myScanGaris15TraceUjungKananEj.constprop.12+0xe8>
     9bc:	ab bb       	out	0x1b, r26	; 27
     9be:	45 e0       	ldi	r20, 0x05	; 5
     9c0:	4a 95       	dec	r20
     9c2:	f1 f7       	brne	.-4      	; 0x9c0 <_ZN11myScanGaris15TraceUjungKananEj.constprop.12+0x94>
     9c4:	00 00       	nop
     9c6:	da 98       	cbi	0x1b, 2	; 27
     9c8:	45 ed       	ldi	r20, 0xD5	; 213
     9ca:	4a 95       	dec	r20
     9cc:	f1 f7       	brne	.-4      	; 0x9ca <_ZN11myScanGaris15TraceUjungKananEj.constprop.12+0x9e>
     9ce:	00 00       	nop
     9d0:	da 9a       	sbi	0x1b, 2	; 27
     9d2:	21 50       	subi	r18, 0x01	; 1
     9d4:	31 09       	sbc	r19, r1
     9d6:	10 f1       	brcs	.+68     	; 0xa1c <_ZN11myScanGaris15TraceUjungKananEj.constprop.12+0xf0>
     9d8:	ab 01       	movw	r20, r22
     9da:	02 2e       	mov	r0, r18
     9dc:	02 c0       	rjmp	.+4      	; 0x9e2 <_ZN11myScanGaris15TraceUjungKananEj.constprop.12+0xb6>
     9de:	55 95       	asr	r21
     9e0:	47 95       	ror	r20
     9e2:	0a 94       	dec	r0
     9e4:	e2 f7       	brpl	.-8      	; 0x9de <_ZN11myScanGaris15TraceUjungKananEj.constprop.12+0xb2>
     9e6:	d8 9a       	sbi	0x1b, 0	; 27
     9e8:	40 ff       	sbrs	r20, 0
     9ea:	da cf       	rjmp	.-76     	; 0x9a0 <_ZN11myScanGaris15TraceUjungKananEj.constprop.12+0x74>
     9ec:	99 23       	and	r25, r25
     9ee:	81 f0       	breq	.+32     	; 0xa10 <_ZN11myScanGaris15TraceUjungKananEj.constprop.12+0xe4>
     9f0:	eb bb       	out	0x1b, r30	; 27
     9f2:	45 e0       	ldi	r20, 0x05	; 5
     9f4:	4a 95       	dec	r20
     9f6:	f1 f7       	brne	.-4      	; 0x9f4 <_ZN11myScanGaris15TraceUjungKananEj.constprop.12+0xc8>
     9f8:	00 00       	nop
     9fa:	da 98       	cbi	0x1b, 2	; 27
     9fc:	4a e1       	ldi	r20, 0x1A	; 26
     9fe:	4a 95       	dec	r20
     a00:	f1 f7       	brne	.-4      	; 0x9fe <_ZN11myScanGaris15TraceUjungKananEj.constprop.12+0xd2>
     a02:	00 c0       	rjmp	.+0      	; 0xa04 <_ZN11myScanGaris15TraceUjungKananEj.constprop.12+0xd8>
     a04:	91 11       	cpse	r25, r1
     a06:	08 c0       	rjmp	.+16     	; 0xa18 <_ZN11myScanGaris15TraceUjungKananEj.constprop.12+0xec>
     a08:	bb bb       	out	0x1b, r27	; 27
     a0a:	d9 cf       	rjmp	.-78     	; 0x9be <_ZN11myScanGaris15TraceUjungKananEj.constprop.12+0x92>
     a0c:	fb bb       	out	0x1b, r31	; 27
     a0e:	cb cf       	rjmp	.-106    	; 0x9a6 <_ZN11myScanGaris15TraceUjungKananEj.constprop.12+0x7a>
     a10:	fb bb       	out	0x1b, r31	; 27
     a12:	ef cf       	rjmp	.-34     	; 0x9f2 <_ZN11myScanGaris15TraceUjungKananEj.constprop.12+0xc6>
     a14:	1b bb       	out	0x1b, r17	; 27
     a16:	d3 cf       	rjmp	.-90     	; 0x9be <_ZN11myScanGaris15TraceUjungKananEj.constprop.12+0x92>
     a18:	0b bb       	out	0x1b, r16	; 27
     a1a:	d1 cf       	rjmp	.-94     	; 0x9be <_ZN11myScanGaris15TraceUjungKananEj.constprop.12+0x92>
     a1c:	81 30       	cpi	r24, 0x01	; 1
     a1e:	09 f4       	brne	.+2      	; 0xa22 <_ZN11myScanGaris15TraceUjungKananEj.constprop.12+0xf6>
     a20:	e5 c2       	rjmp	.+1482   	; 0xfec <_ZN11myScanGaris15TraceUjungKananEj.constprop.12+0x6c0>
     a22:	08 f4       	brcc	.+2      	; 0xa26 <_ZN11myScanGaris15TraceUjungKananEj.constprop.12+0xfa>
     a24:	b2 c2       	rjmp	.+1380   	; 0xf8a <_ZN11myScanGaris15TraceUjungKananEj.constprop.12+0x65e>
     a26:	82 30       	cpi	r24, 0x02	; 2
     a28:	09 f4       	brne	.+2      	; 0xa2c <_ZN11myScanGaris15TraceUjungKananEj.constprop.12+0x100>
     a2a:	ea c1       	rjmp	.+980    	; 0xe00 <_ZN11myScanGaris15TraceUjungKananEj.constprop.12+0x4d4>
     a2c:	83 30       	cpi	r24, 0x03	; 3
     a2e:	09 f4       	brne	.+2      	; 0xa32 <_ZN11myScanGaris15TraceUjungKananEj.constprop.12+0x106>
     a30:	9a c2       	rjmp	.+1332   	; 0xf66 <_ZN11myScanGaris15TraceUjungKananEj.constprop.12+0x63a>
     a32:	60 91 69 02 	lds	r22, 0x0269
     a36:	8f e0       	ldi	r24, 0x0F	; 15
     a38:	68 02       	muls	r22, r24
     a3a:	90 01       	movw	r18, r0
     a3c:	11 24       	eor	r1, r1
     a3e:	80 91 66 02 	lds	r24, 0x0266
     a42:	96 2f       	mov	r25, r22
     a44:	98 1b       	sub	r25, r24
     a46:	e4 e6       	ldi	r30, 0x64	; 100
     a48:	9e 02       	muls	r25, r30
     a4a:	c0 01       	movw	r24, r0
     a4c:	11 24       	eor	r1, r1
     a4e:	60 93 66 02 	sts	0x0266, r22
     a52:	82 0f       	add	r24, r18
     a54:	93 1f       	adc	r25, r19
     a56:	28 81       	ld	r18, Y
     a58:	ec 01       	movw	r28, r24
     a5a:	21 11       	cpse	r18, r1
     a5c:	eb c1       	rjmp	.+982    	; 0xe34 <_ZN11myScanGaris15TraceUjungKananEj.constprop.12+0x508>
     a5e:	ca 56       	subi	r28, 0x6A	; 106
     a60:	df 4f       	sbci	r29, 0xFF	; 255
     a62:	06 e9       	ldi	r16, 0x96	; 150
     a64:	10 e0       	ldi	r17, 0x00	; 0
     a66:	08 1b       	sub	r16, r24
     a68:	19 0b       	sbc	r17, r25
     a6a:	c0 37       	cpi	r28, 0x70	; 112
     a6c:	8e ef       	ldi	r24, 0xFE	; 254
     a6e:	d8 07       	cpc	r29, r24
     a70:	14 f4       	brge	.+4      	; 0xa76 <_ZN11myScanGaris15TraceUjungKananEj.constprop.12+0x14a>
     a72:	c0 e7       	ldi	r28, 0x70	; 112
     a74:	de ef       	ldi	r29, 0xFE	; 254
     a76:	c1 39       	cpi	r28, 0x91	; 145
     a78:	91 e0       	ldi	r25, 0x01	; 1
     a7a:	d9 07       	cpc	r29, r25
     a7c:	14 f0       	brlt	.+4      	; 0xa82 <_ZN11myScanGaris15TraceUjungKananEj.constprop.12+0x156>
     a7e:	c0 e9       	ldi	r28, 0x90	; 144
     a80:	d1 e0       	ldi	r29, 0x01	; 1
     a82:	00 37       	cpi	r16, 0x70	; 112
     a84:	ee ef       	ldi	r30, 0xFE	; 254
     a86:	1e 07       	cpc	r17, r30
     a88:	14 f4       	brge	.+4      	; 0xa8e <_ZN11myScanGaris15TraceUjungKananEj.constprop.12+0x162>
     a8a:	00 e7       	ldi	r16, 0x70	; 112
     a8c:	1e ef       	ldi	r17, 0xFE	; 254
     a8e:	01 39       	cpi	r16, 0x91	; 145
     a90:	f1 e0       	ldi	r31, 0x01	; 1
     a92:	1f 07       	cpc	r17, r31
     a94:	14 f0       	brlt	.+4      	; 0xa9a <_ZN11myScanGaris15TraceUjungKananEj.constprop.12+0x16e>
     a96:	00 e9       	ldi	r16, 0x90	; 144
     a98:	11 e0       	ldi	r17, 0x01	; 1
     a9a:	e8 94       	clt
     a9c:	23 f8       	bld	r2, 3
     a9e:	d7 fd       	sbrc	r29, 7
     aa0:	4d c2       	rjmp	.+1178   	; 0xf3c <_ZN11myScanGaris15TraceUjungKananEj.constprop.12+0x610>
     aa2:	d0 93 85 00 	sts	0x0085, r29
     aa6:	c0 93 84 00 	sts	0x0084, r28
     aaa:	1d 9a       	sbi	0x03, 5	; 3
     aac:	17 fd       	sbrc	r17, 7
     aae:	51 c2       	rjmp	.+1186   	; 0xf52 <_ZN11myScanGaris15TraceUjungKananEj.constprop.12+0x626>
     ab0:	10 93 87 00 	sts	0x0087, r17
     ab4:	00 93 86 00 	sts	0x0086, r16
     ab8:	1a 9a       	sbi	0x03, 2	; 3
     aba:	d8 98       	cbi	0x1b, 0	; 27
     abc:	20 fe       	sbrs	r2, 0
     abe:	d6 c1       	rjmp	.+940    	; 0xe6c <_ZN11myScanGaris15TraceUjungKananEj.constprop.12+0x540>
     ac0:	8c ec       	ldi	r24, 0xCC	; 204
     ac2:	8b bb       	out	0x1b, r24	; 27
     ac4:	25 e0       	ldi	r18, 0x05	; 5
     ac6:	2a 95       	dec	r18
     ac8:	f1 f7       	brne	.-4      	; 0xac6 <_ZN11myScanGaris15TraceUjungKananEj.constprop.12+0x19a>
     aca:	00 00       	nop
     acc:	da 98       	cbi	0x1b, 2	; 27
     ace:	4a e1       	ldi	r20, 0x1A	; 26
     ad0:	4a 95       	dec	r20
     ad2:	f1 f7       	brne	.-4      	; 0xad0 <_ZN11myScanGaris15TraceUjungKananEj.constprop.12+0x1a4>
     ad4:	00 c0       	rjmp	.+0      	; 0xad6 <_ZN11myScanGaris15TraceUjungKananEj.constprop.12+0x1aa>
     ad6:	20 fc       	sbrc	r2, 0
     ad8:	cf c1       	rjmp	.+926    	; 0xe78 <_ZN11myScanGaris15TraceUjungKananEj.constprop.12+0x54c>
     ada:	84 e0       	ldi	r24, 0x04	; 4
     adc:	8b bb       	out	0x1b, r24	; 27
     ade:	85 e0       	ldi	r24, 0x05	; 5
     ae0:	8a 95       	dec	r24
     ae2:	f1 f7       	brne	.-4      	; 0xae0 <_ZN11myScanGaris15TraceUjungKananEj.constprop.12+0x1b4>
     ae4:	00 00       	nop
     ae6:	da 98       	cbi	0x1b, 2	; 27
     ae8:	ef ee       	ldi	r30, 0xEF	; 239
     aea:	fa e0       	ldi	r31, 0x0A	; 10
     aec:	31 97       	sbiw	r30, 0x01	; 1
     aee:	f1 f7       	brne	.-4      	; 0xaec <_ZN11myScanGaris15TraceUjungKananEj.constprop.12+0x1c0>
     af0:	00 c0       	rjmp	.+0      	; 0xaf2 <_ZN11myScanGaris15TraceUjungKananEj.constprop.12+0x1c6>
     af2:	00 00       	nop
     af4:	da 9a       	sbi	0x1b, 2	; 27
     af6:	d7 fd       	sbrc	r29, 7
     af8:	b3 c2       	rjmp	.+1382   	; 0x1060 <_ZN11myScanGaris15TraceUjungKananEj.constprop.12+0x734>
     afa:	ff 24       	eor	r15, r15
     afc:	f3 94       	inc	r15
     afe:	ce 01       	movw	r24, r28
     b00:	68 ee       	ldi	r22, 0xE8	; 232
     b02:	73 e0       	ldi	r23, 0x03	; 3
     b04:	0e 94 31 1a 	call	0x3462	; 0x3462 <__divmodhi4>
     b08:	ac 01       	movw	r20, r24
     b0a:	fc 01       	movw	r30, r24
     b0c:	f6 95       	lsr	r31
     b0e:	e7 95       	ror	r30
     b10:	f6 95       	lsr	r31
     b12:	e7 95       	ror	r30
     b14:	9f 01       	movw	r18, r30
     b16:	ab e7       	ldi	r26, 0x7B	; 123
     b18:	b4 e1       	ldi	r27, 0x14	; 20
     b1a:	0e 94 45 1a 	call	0x348a	; 0x348a <__umulhisi3>
     b1e:	96 95       	lsr	r25
     b20:	87 95       	ror	r24
     b22:	80 5d       	subi	r24, 0xD0	; 208
     b24:	d8 9a       	sbi	0x1b, 0	; 27
     b26:	20 fe       	sbrs	r2, 0
     b28:	9e c1       	rjmp	.+828    	; 0xe66 <_ZN11myScanGaris15TraceUjungKananEj.constprop.12+0x53a>
     b2a:	9d e3       	ldi	r25, 0x3D	; 61
     b2c:	9b bb       	out	0x1b, r25	; 27
     b2e:	25 e0       	ldi	r18, 0x05	; 5
     b30:	2a 95       	dec	r18
     b32:	f1 f7       	brne	.-4      	; 0xb30 <_ZN11myScanGaris15TraceUjungKananEj.constprop.12+0x204>
     b34:	00 00       	nop
     b36:	da 98       	cbi	0x1b, 2	; 27
     b38:	9a e1       	ldi	r25, 0x1A	; 26
     b3a:	9a 95       	dec	r25
     b3c:	f1 f7       	brne	.-4      	; 0xb3a <_ZN11myScanGaris15TraceUjungKananEj.constprop.12+0x20e>
     b3e:	00 c0       	rjmp	.+0      	; 0xb40 <_ZN11myScanGaris15TraceUjungKananEj.constprop.12+0x214>
     b40:	20 e1       	ldi	r18, 0x10	; 16
     b42:	82 9f       	mul	r24, r18
     b44:	c0 01       	movw	r24, r0
     b46:	11 24       	eor	r1, r1
     b48:	20 fc       	sbrc	r2, 0
     b4a:	93 c1       	rjmp	.+806    	; 0xe72 <_ZN11myScanGaris15TraceUjungKananEj.constprop.12+0x546>
     b4c:	85 60       	ori	r24, 0x05	; 5
     b4e:	8b bb       	out	0x1b, r24	; 27
     b50:	85 e0       	ldi	r24, 0x05	; 5
     b52:	8a 95       	dec	r24
     b54:	f1 f7       	brne	.-4      	; 0xb52 <_ZN11myScanGaris15TraceUjungKananEj.constprop.12+0x226>
     b56:	00 00       	nop
     b58:	da 98       	cbi	0x1b, 2	; 27
     b5a:	95 ed       	ldi	r25, 0xD5	; 213
     b5c:	9a 95       	dec	r25
     b5e:	f1 f7       	brne	.-4      	; 0xb5c <_ZN11myScanGaris15TraceUjungKananEj.constprop.12+0x230>
     b60:	00 00       	nop
     b62:	da 9a       	sbi	0x1b, 2	; 27
     b64:	9f 01       	movw	r18, r30
     b66:	ab e7       	ldi	r26, 0x7B	; 123
     b68:	b4 e1       	ldi	r27, 0x14	; 20
     b6a:	0e 94 45 1a 	call	0x348a	; 0x348a <__umulhisi3>
     b6e:	96 95       	lsr	r25
     b70:	87 95       	ror	r24
     b72:	64 e6       	ldi	r22, 0x64	; 100
     b74:	68 9f       	mul	r22, r24
     b76:	90 01       	movw	r18, r0
     b78:	69 9f       	mul	r22, r25
     b7a:	30 0d       	add	r19, r0
     b7c:	11 24       	eor	r1, r1
     b7e:	fa 01       	movw	r30, r20
     b80:	e2 1b       	sub	r30, r18
     b82:	f3 0b       	sbc	r31, r19
     b84:	9f 01       	movw	r18, r30
     b86:	ad ec       	ldi	r26, 0xCD	; 205
     b88:	bc ec       	ldi	r27, 0xCC	; 204
     b8a:	0e 94 45 1a 	call	0x348a	; 0x348a <__umulhisi3>
     b8e:	96 95       	lsr	r25
     b90:	87 95       	ror	r24
     b92:	96 95       	lsr	r25
     b94:	87 95       	ror	r24
     b96:	96 95       	lsr	r25
     b98:	87 95       	ror	r24
     b9a:	80 5d       	subi	r24, 0xD0	; 208
     b9c:	d8 9a       	sbi	0x1b, 0	; 27
     b9e:	20 fe       	sbrs	r2, 0
     ba0:	5f c1       	rjmp	.+702    	; 0xe60 <_ZN11myScanGaris15TraceUjungKananEj.constprop.12+0x534>
     ba2:	9d e3       	ldi	r25, 0x3D	; 61
     ba4:	9b bb       	out	0x1b, r25	; 27
     ba6:	f5 e0       	ldi	r31, 0x05	; 5
     ba8:	fa 95       	dec	r31
     baa:	f1 f7       	brne	.-4      	; 0xba8 <_ZN11myScanGaris15TraceUjungKananEj.constprop.12+0x27c>
     bac:	00 00       	nop
     bae:	da 98       	cbi	0x1b, 2	; 27
     bb0:	2a e1       	ldi	r18, 0x1A	; 26
     bb2:	2a 95       	dec	r18
     bb4:	f1 f7       	brne	.-4      	; 0xbb2 <_ZN11myScanGaris15TraceUjungKananEj.constprop.12+0x286>
     bb6:	00 c0       	rjmp	.+0      	; 0xbb8 <_ZN11myScanGaris15TraceUjungKananEj.constprop.12+0x28c>
     bb8:	20 fc       	sbrc	r2, 0
     bba:	88 c1       	rjmp	.+784    	; 0xecc <_ZN11myScanGaris15TraceUjungKananEj.constprop.12+0x5a0>
     bbc:	f0 e1       	ldi	r31, 0x10	; 16
     bbe:	8f 9f       	mul	r24, r31
     bc0:	c0 01       	movw	r24, r0
     bc2:	11 24       	eor	r1, r1
     bc4:	85 60       	ori	r24, 0x05	; 5
     bc6:	8b bb       	out	0x1b, r24	; 27
     bc8:	25 e0       	ldi	r18, 0x05	; 5
     bca:	2a 95       	dec	r18
     bcc:	f1 f7       	brne	.-4      	; 0xbca <_ZN11myScanGaris15TraceUjungKananEj.constprop.12+0x29e>
     bce:	00 00       	nop
     bd0:	da 98       	cbi	0x1b, 2	; 27
     bd2:	85 ed       	ldi	r24, 0xD5	; 213
     bd4:	8a 95       	dec	r24
     bd6:	f1 f7       	brne	.-4      	; 0xbd4 <_ZN11myScanGaris15TraceUjungKananEj.constprop.12+0x2a8>
     bd8:	00 00       	nop
     bda:	da 9a       	sbi	0x1b, 2	; 27
     bdc:	9a 01       	movw	r18, r20
     bde:	ad ec       	ldi	r26, 0xCD	; 205
     be0:	bc ec       	ldi	r27, 0xCC	; 204
     be2:	0e 94 45 1a 	call	0x348a	; 0x348a <__umulhisi3>
     be6:	96 95       	lsr	r25
     be8:	87 95       	ror	r24
     bea:	96 95       	lsr	r25
     bec:	87 95       	ror	r24
     bee:	96 95       	lsr	r25
     bf0:	87 95       	ror	r24
     bf2:	9c 01       	movw	r18, r24
     bf4:	22 0f       	add	r18, r18
     bf6:	33 1f       	adc	r19, r19
     bf8:	88 0f       	add	r24, r24
     bfa:	99 1f       	adc	r25, r25
     bfc:	88 0f       	add	r24, r24
     bfe:	99 1f       	adc	r25, r25
     c00:	88 0f       	add	r24, r24
     c02:	99 1f       	adc	r25, r25
     c04:	28 0f       	add	r18, r24
     c06:	39 1f       	adc	r19, r25
     c08:	42 1b       	sub	r20, r18
     c0a:	53 0b       	sbc	r21, r19
     c0c:	40 5d       	subi	r20, 0xD0	; 208
     c0e:	d8 9a       	sbi	0x1b, 0	; 27
     c10:	20 fe       	sbrs	r2, 0
     c12:	23 c1       	rjmp	.+582    	; 0xe5a <_ZN11myScanGaris15TraceUjungKananEj.constprop.12+0x52e>
     c14:	8d e3       	ldi	r24, 0x3D	; 61
     c16:	8b bb       	out	0x1b, r24	; 27
     c18:	95 e0       	ldi	r25, 0x05	; 5
     c1a:	9a 95       	dec	r25
     c1c:	f1 f7       	brne	.-4      	; 0xc1a <_ZN11myScanGaris15TraceUjungKananEj.constprop.12+0x2ee>
     c1e:	00 00       	nop
     c20:	da 98       	cbi	0x1b, 2	; 27
     c22:	ea e1       	ldi	r30, 0x1A	; 26
     c24:	ea 95       	dec	r30
     c26:	f1 f7       	brne	.-4      	; 0xc24 <_ZN11myScanGaris15TraceUjungKananEj.constprop.12+0x2f8>
     c28:	00 c0       	rjmp	.+0      	; 0xc2a <_ZN11myScanGaris15TraceUjungKananEj.constprop.12+0x2fe>
     c2a:	20 fc       	sbrc	r2, 0
     c2c:	45 c1       	rjmp	.+650    	; 0xeb8 <_ZN11myScanGaris15TraceUjungKananEj.constprop.12+0x58c>
     c2e:	20 e1       	ldi	r18, 0x10	; 16
     c30:	42 9f       	mul	r20, r18
     c32:	a0 01       	movw	r20, r0
     c34:	11 24       	eor	r1, r1
     c36:	45 60       	ori	r20, 0x05	; 5
     c38:	4b bb       	out	0x1b, r20	; 27
     c3a:	45 e0       	ldi	r20, 0x05	; 5
     c3c:	4a 95       	dec	r20
     c3e:	f1 f7       	brne	.-4      	; 0xc3c <_ZN11myScanGaris15TraceUjungKananEj.constprop.12+0x310>
     c40:	00 00       	nop
     c42:	da 98       	cbi	0x1b, 2	; 27
     c44:	85 ed       	ldi	r24, 0xD5	; 213
     c46:	8a 95       	dec	r24
     c48:	f1 f7       	brne	.-4      	; 0xc46 <_ZN11myScanGaris15TraceUjungKananEj.constprop.12+0x31a>
     c4a:	00 00       	nop
     c4c:	da 9a       	sbi	0x1b, 2	; 27
     c4e:	f1 10       	cpse	r15, r1
     c50:	16 c1       	rjmp	.+556    	; 0xe7e <_ZN11myScanGaris15TraceUjungKananEj.constprop.12+0x552>
     c52:	d8 98       	cbi	0x1b, 0	; 27
     c54:	20 fe       	sbrs	r2, 0
     c56:	fe c0       	rjmp	.+508    	; 0xe54 <_ZN11myScanGaris15TraceUjungKananEj.constprop.12+0x528>
     c58:	8c ec       	ldi	r24, 0xCC	; 204
     c5a:	8b bb       	out	0x1b, r24	; 27
     c5c:	45 e0       	ldi	r20, 0x05	; 5
     c5e:	4a 95       	dec	r20
     c60:	f1 f7       	brne	.-4      	; 0xc5e <_ZN11myScanGaris15TraceUjungKananEj.constprop.12+0x332>
     c62:	00 00       	nop
     c64:	da 98       	cbi	0x1b, 2	; 27
     c66:	8a e1       	ldi	r24, 0x1A	; 26
     c68:	8a 95       	dec	r24
     c6a:	f1 f7       	brne	.-4      	; 0xc68 <_ZN11myScanGaris15TraceUjungKananEj.constprop.12+0x33c>
     c6c:	00 c0       	rjmp	.+0      	; 0xc6e <_ZN11myScanGaris15TraceUjungKananEj.constprop.12+0x342>
     c6e:	20 fc       	sbrc	r2, 0
     c70:	2a c1       	rjmp	.+596    	; 0xec6 <_ZN11myScanGaris15TraceUjungKananEj.constprop.12+0x59a>
     c72:	84 e8       	ldi	r24, 0x84	; 132
     c74:	8b bb       	out	0x1b, r24	; 27
     c76:	95 e0       	ldi	r25, 0x05	; 5
     c78:	9a 95       	dec	r25
     c7a:	f1 f7       	brne	.-4      	; 0xc78 <_ZN11myScanGaris15TraceUjungKananEj.constprop.12+0x34c>
     c7c:	00 00       	nop
     c7e:	da 98       	cbi	0x1b, 2	; 27
     c80:	ef ee       	ldi	r30, 0xEF	; 239
     c82:	fa e0       	ldi	r31, 0x0A	; 10
     c84:	31 97       	sbiw	r30, 0x01	; 1
     c86:	f1 f7       	brne	.-4      	; 0xc84 <_ZN11myScanGaris15TraceUjungKananEj.constprop.12+0x358>
     c88:	00 c0       	rjmp	.+0      	; 0xc8a <_ZN11myScanGaris15TraceUjungKananEj.constprop.12+0x35e>
     c8a:	00 00       	nop
     c8c:	da 9a       	sbi	0x1b, 2	; 27
     c8e:	17 fd       	sbrc	r17, 7
     c90:	dd c1       	rjmp	.+954    	; 0x104c <_ZN11myScanGaris15TraceUjungKananEj.constprop.12+0x720>
     c92:	c1 e0       	ldi	r28, 0x01	; 1
     c94:	c8 01       	movw	r24, r16
     c96:	68 ee       	ldi	r22, 0xE8	; 232
     c98:	73 e0       	ldi	r23, 0x03	; 3
     c9a:	0e 94 31 1a 	call	0x3462	; 0x3462 <__divmodhi4>
     c9e:	ac 01       	movw	r20, r24
     ca0:	fc 01       	movw	r30, r24
     ca2:	f6 95       	lsr	r31
     ca4:	e7 95       	ror	r30
     ca6:	f6 95       	lsr	r31
     ca8:	e7 95       	ror	r30
     caa:	9f 01       	movw	r18, r30
     cac:	ab e7       	ldi	r26, 0x7B	; 123
     cae:	b4 e1       	ldi	r27, 0x14	; 20
     cb0:	0e 94 45 1a 	call	0x348a	; 0x348a <__umulhisi3>
     cb4:	96 95       	lsr	r25
     cb6:	87 95       	ror	r24
     cb8:	80 5d       	subi	r24, 0xD0	; 208
     cba:	d8 9a       	sbi	0x1b, 0	; 27
     cbc:	20 fe       	sbrs	r2, 0
     cbe:	c7 c0       	rjmp	.+398    	; 0xe4e <_ZN11myScanGaris15TraceUjungKananEj.constprop.12+0x522>
     cc0:	9d e3       	ldi	r25, 0x3D	; 61
     cc2:	9b bb       	out	0x1b, r25	; 27
     cc4:	25 e0       	ldi	r18, 0x05	; 5
     cc6:	2a 95       	dec	r18
     cc8:	f1 f7       	brne	.-4      	; 0xcc6 <_ZN11myScanGaris15TraceUjungKananEj.constprop.12+0x39a>
     cca:	00 00       	nop
     ccc:	da 98       	cbi	0x1b, 2	; 27
     cce:	9a e1       	ldi	r25, 0x1A	; 26
     cd0:	9a 95       	dec	r25
     cd2:	f1 f7       	brne	.-4      	; 0xcd0 <_ZN11myScanGaris15TraceUjungKananEj.constprop.12+0x3a4>
     cd4:	00 c0       	rjmp	.+0      	; 0xcd6 <_ZN11myScanGaris15TraceUjungKananEj.constprop.12+0x3aa>
     cd6:	20 e1       	ldi	r18, 0x10	; 16
     cd8:	82 9f       	mul	r24, r18
     cda:	c0 01       	movw	r24, r0
     cdc:	11 24       	eor	r1, r1
     cde:	20 fc       	sbrc	r2, 0
     ce0:	27 c1       	rjmp	.+590    	; 0xf30 <_ZN11myScanGaris15TraceUjungKananEj.constprop.12+0x604>
     ce2:	85 60       	ori	r24, 0x05	; 5
     ce4:	8b bb       	out	0x1b, r24	; 27
     ce6:	85 e0       	ldi	r24, 0x05	; 5
     ce8:	8a 95       	dec	r24
     cea:	f1 f7       	brne	.-4      	; 0xce8 <_ZN11myScanGaris15TraceUjungKananEj.constprop.12+0x3bc>
     cec:	00 00       	nop
     cee:	da 98       	cbi	0x1b, 2	; 27
     cf0:	95 ed       	ldi	r25, 0xD5	; 213
     cf2:	9a 95       	dec	r25
     cf4:	f1 f7       	brne	.-4      	; 0xcf2 <_ZN11myScanGaris15TraceUjungKananEj.constprop.12+0x3c6>
     cf6:	00 00       	nop
     cf8:	da 9a       	sbi	0x1b, 2	; 27
     cfa:	9f 01       	movw	r18, r30
     cfc:	ab e7       	ldi	r26, 0x7B	; 123
     cfe:	b4 e1       	ldi	r27, 0x14	; 20
     d00:	0e 94 45 1a 	call	0x348a	; 0x348a <__umulhisi3>
     d04:	96 95       	lsr	r25
     d06:	87 95       	ror	r24
     d08:	64 e6       	ldi	r22, 0x64	; 100
     d0a:	68 9f       	mul	r22, r24
     d0c:	90 01       	movw	r18, r0
     d0e:	69 9f       	mul	r22, r25
     d10:	30 0d       	add	r19, r0
     d12:	11 24       	eor	r1, r1
     d14:	fa 01       	movw	r30, r20
     d16:	e2 1b       	sub	r30, r18
     d18:	f3 0b       	sbc	r31, r19
     d1a:	9f 01       	movw	r18, r30
     d1c:	ad ec       	ldi	r26, 0xCD	; 205
     d1e:	bc ec       	ldi	r27, 0xCC	; 204
     d20:	0e 94 45 1a 	call	0x348a	; 0x348a <__umulhisi3>
     d24:	96 95       	lsr	r25
     d26:	87 95       	ror	r24
     d28:	96 95       	lsr	r25
     d2a:	87 95       	ror	r24
     d2c:	96 95       	lsr	r25
     d2e:	87 95       	ror	r24
     d30:	80 5d       	subi	r24, 0xD0	; 208
     d32:	d8 9a       	sbi	0x1b, 0	; 27
     d34:	20 fe       	sbrs	r2, 0
     d36:	88 c0       	rjmp	.+272    	; 0xe48 <_ZN11myScanGaris15TraceUjungKananEj.constprop.12+0x51c>
     d38:	9d e3       	ldi	r25, 0x3D	; 61
     d3a:	9b bb       	out	0x1b, r25	; 27
     d3c:	f5 e0       	ldi	r31, 0x05	; 5
     d3e:	fa 95       	dec	r31
     d40:	f1 f7       	brne	.-4      	; 0xd3e <_ZN11myScanGaris15TraceUjungKananEj.constprop.12+0x412>
     d42:	00 00       	nop
     d44:	da 98       	cbi	0x1b, 2	; 27
     d46:	2a e1       	ldi	r18, 0x1A	; 26
     d48:	2a 95       	dec	r18
     d4a:	f1 f7       	brne	.-4      	; 0xd48 <_ZN11myScanGaris15TraceUjungKananEj.constprop.12+0x41c>
     d4c:	00 c0       	rjmp	.+0      	; 0xd4e <_ZN11myScanGaris15TraceUjungKananEj.constprop.12+0x422>
     d4e:	20 fc       	sbrc	r2, 0
     d50:	e8 c0       	rjmp	.+464    	; 0xf22 <_ZN11myScanGaris15TraceUjungKananEj.constprop.12+0x5f6>
     d52:	f0 e1       	ldi	r31, 0x10	; 16
     d54:	8f 9f       	mul	r24, r31
     d56:	c0 01       	movw	r24, r0
     d58:	11 24       	eor	r1, r1
     d5a:	85 60       	ori	r24, 0x05	; 5
     d5c:	8b bb       	out	0x1b, r24	; 27
     d5e:	25 e0       	ldi	r18, 0x05	; 5
     d60:	2a 95       	dec	r18
     d62:	f1 f7       	brne	.-4      	; 0xd60 <_ZN11myScanGaris15TraceUjungKananEj.constprop.12+0x434>
     d64:	00 00       	nop
     d66:	da 98       	cbi	0x1b, 2	; 27
     d68:	85 ed       	ldi	r24, 0xD5	; 213
     d6a:	8a 95       	dec	r24
     d6c:	f1 f7       	brne	.-4      	; 0xd6a <_ZN11myScanGaris15TraceUjungKananEj.constprop.12+0x43e>
     d6e:	00 00       	nop
     d70:	da 9a       	sbi	0x1b, 2	; 27
     d72:	9a 01       	movw	r18, r20
     d74:	ad ec       	ldi	r26, 0xCD	; 205
     d76:	bc ec       	ldi	r27, 0xCC	; 204
     d78:	0e 94 45 1a 	call	0x348a	; 0x348a <__umulhisi3>
     d7c:	96 95       	lsr	r25
     d7e:	87 95       	ror	r24
     d80:	96 95       	lsr	r25
     d82:	87 95       	ror	r24
     d84:	96 95       	lsr	r25
     d86:	87 95       	ror	r24
     d88:	9c 01       	movw	r18, r24
     d8a:	22 0f       	add	r18, r18
     d8c:	33 1f       	adc	r19, r19
     d8e:	88 0f       	add	r24, r24
     d90:	99 1f       	adc	r25, r25
     d92:	88 0f       	add	r24, r24
     d94:	99 1f       	adc	r25, r25
     d96:	88 0f       	add	r24, r24
     d98:	99 1f       	adc	r25, r25
     d9a:	28 0f       	add	r18, r24
     d9c:	39 1f       	adc	r19, r25
     d9e:	42 1b       	sub	r20, r18
     da0:	53 0b       	sbc	r21, r19
     da2:	40 5d       	subi	r20, 0xD0	; 208
     da4:	d8 9a       	sbi	0x1b, 0	; 27
     da6:	20 fe       	sbrs	r2, 0
     da8:	4c c0       	rjmp	.+152    	; 0xe42 <_ZN11myScanGaris15TraceUjungKananEj.constprop.12+0x516>
     daa:	8d e3       	ldi	r24, 0x3D	; 61
     dac:	8b bb       	out	0x1b, r24	; 27
     dae:	95 e0       	ldi	r25, 0x05	; 5
     db0:	9a 95       	dec	r25
     db2:	f1 f7       	brne	.-4      	; 0xdb0 <_ZN11myScanGaris15TraceUjungKananEj.constprop.12+0x484>
     db4:	00 00       	nop
     db6:	da 98       	cbi	0x1b, 2	; 27
     db8:	ea e1       	ldi	r30, 0x1A	; 26
     dba:	ea 95       	dec	r30
     dbc:	f1 f7       	brne	.-4      	; 0xdba <_ZN11myScanGaris15TraceUjungKananEj.constprop.12+0x48e>
     dbe:	00 c0       	rjmp	.+0      	; 0xdc0 <_ZN11myScanGaris15TraceUjungKananEj.constprop.12+0x494>
     dc0:	20 fc       	sbrc	r2, 0
     dc2:	8b c0       	rjmp	.+278    	; 0xeda <_ZN11myScanGaris15TraceUjungKananEj.constprop.12+0x5ae>
     dc4:	20 e1       	ldi	r18, 0x10	; 16
     dc6:	42 9f       	mul	r20, r18
     dc8:	a0 01       	movw	r20, r0
     dca:	11 24       	eor	r1, r1
     dcc:	45 60       	ori	r20, 0x05	; 5
     dce:	4b bb       	out	0x1b, r20	; 27
     dd0:	45 e0       	ldi	r20, 0x05	; 5
     dd2:	4a 95       	dec	r20
     dd4:	f1 f7       	brne	.-4      	; 0xdd2 <_ZN11myScanGaris15TraceUjungKananEj.constprop.12+0x4a6>
     dd6:	00 00       	nop
     dd8:	da 98       	cbi	0x1b, 2	; 27
     dda:	85 ed       	ldi	r24, 0xD5	; 213
     ddc:	8a 95       	dec	r24
     dde:	f1 f7       	brne	.-4      	; 0xddc <_ZN11myScanGaris15TraceUjungKananEj.constprop.12+0x4b0>
     de0:	00 00       	nop
     de2:	da 9a       	sbi	0x1b, 2	; 27
     de4:	c1 11       	cpse	r28, r1
     de6:	80 c0       	rjmp	.+256    	; 0xee8 <_ZN11myScanGaris15TraceUjungKananEj.constprop.12+0x5bc>
     de8:	df 91       	pop	r29
     dea:	cf 91       	pop	r28
     dec:	1f 91       	pop	r17
     dee:	0f 91       	pop	r16
     df0:	ff 90       	pop	r15
     df2:	ef 90       	pop	r14
     df4:	df 90       	pop	r13
     df6:	cf 90       	pop	r12
     df8:	08 95       	ret
     dfa:	94 e8       	ldi	r25, 0x84	; 132
     dfc:	9b bb       	out	0x1b, r25	; 27
     dfe:	aa cd       	rjmp	.-1196   	; 0x954 <_ZN11myScanGaris15TraceUjungKananEj.constprop.12+0x28>
     e00:	8e ef       	ldi	r24, 0xFE	; 254
     e02:	80 93 69 02 	sts	0x0269, r24
     e06:	80 93 68 02 	sts	0x0268, r24
     e0a:	10 92 67 02 	sts	0x0267, r1
     e0e:	90 91 66 02 	lds	r25, 0x0266
     e12:	89 1b       	sub	r24, r25
     e14:	f4 e6       	ldi	r31, 0x64	; 100
     e16:	8f 02       	muls	r24, r31
     e18:	c0 01       	movw	r24, r0
     e1a:	11 24       	eor	r1, r1
     e1c:	22 ee       	ldi	r18, 0xE2	; 226
     e1e:	3f ef       	ldi	r19, 0xFF	; 255
     e20:	6e ef       	ldi	r22, 0xFE	; 254
     e22:	60 93 66 02 	sts	0x0266, r22
     e26:	82 0f       	add	r24, r18
     e28:	93 1f       	adc	r25, r19
     e2a:	28 81       	ld	r18, Y
     e2c:	ec 01       	movw	r28, r24
     e2e:	22 23       	and	r18, r18
     e30:	09 f4       	brne	.+2      	; 0xe34 <_ZN11myScanGaris15TraceUjungKananEj.constprop.12+0x508>
     e32:	15 ce       	rjmp	.-982    	; 0xa5e <_ZN11myScanGaris15TraceUjungKananEj.constprop.12+0x132>
     e34:	c6 59       	subi	r28, 0x96	; 150
     e36:	d1 09       	sbc	r29, r1
     e38:	0a e6       	ldi	r16, 0x6A	; 106
     e3a:	1f ef       	ldi	r17, 0xFF	; 255
     e3c:	08 1b       	sub	r16, r24
     e3e:	19 0b       	sbc	r17, r25
     e40:	14 ce       	rjmp	.-984    	; 0xa6a <_ZN11myScanGaris15TraceUjungKananEj.constprop.12+0x13e>
     e42:	85 e3       	ldi	r24, 0x35	; 53
     e44:	8b bb       	out	0x1b, r24	; 27
     e46:	b3 cf       	rjmp	.-154    	; 0xdae <_ZN11myScanGaris15TraceUjungKananEj.constprop.12+0x482>
     e48:	95 e3       	ldi	r25, 0x35	; 53
     e4a:	9b bb       	out	0x1b, r25	; 27
     e4c:	77 cf       	rjmp	.-274    	; 0xd3c <_ZN11myScanGaris15TraceUjungKananEj.constprop.12+0x410>
     e4e:	95 e3       	ldi	r25, 0x35	; 53
     e50:	9b bb       	out	0x1b, r25	; 27
     e52:	38 cf       	rjmp	.-400    	; 0xcc4 <_ZN11myScanGaris15TraceUjungKananEj.constprop.12+0x398>
     e54:	84 ec       	ldi	r24, 0xC4	; 196
     e56:	8b bb       	out	0x1b, r24	; 27
     e58:	01 cf       	rjmp	.-510    	; 0xc5c <_ZN11myScanGaris15TraceUjungKananEj.constprop.12+0x330>
     e5a:	85 e3       	ldi	r24, 0x35	; 53
     e5c:	8b bb       	out	0x1b, r24	; 27
     e5e:	dc ce       	rjmp	.-584    	; 0xc18 <_ZN11myScanGaris15TraceUjungKananEj.constprop.12+0x2ec>
     e60:	95 e3       	ldi	r25, 0x35	; 53
     e62:	9b bb       	out	0x1b, r25	; 27
     e64:	a0 ce       	rjmp	.-704    	; 0xba6 <_ZN11myScanGaris15TraceUjungKananEj.constprop.12+0x27a>
     e66:	95 e3       	ldi	r25, 0x35	; 53
     e68:	9b bb       	out	0x1b, r25	; 27
     e6a:	61 ce       	rjmp	.-830    	; 0xb2e <_ZN11myScanGaris15TraceUjungKananEj.constprop.12+0x202>
     e6c:	84 ec       	ldi	r24, 0xC4	; 196
     e6e:	8b bb       	out	0x1b, r24	; 27
     e70:	29 ce       	rjmp	.-942    	; 0xac4 <_ZN11myScanGaris15TraceUjungKananEj.constprop.12+0x198>
     e72:	8d 60       	ori	r24, 0x0D	; 13
     e74:	8b bb       	out	0x1b, r24	; 27
     e76:	6c ce       	rjmp	.-808    	; 0xb50 <_ZN11myScanGaris15TraceUjungKananEj.constprop.12+0x224>
     e78:	8c e0       	ldi	r24, 0x0C	; 12
     e7a:	8b bb       	out	0x1b, r24	; 27
     e7c:	30 ce       	rjmp	.-928    	; 0xade <_ZN11myScanGaris15TraceUjungKananEj.constprop.12+0x1b2>
     e7e:	d8 9a       	sbi	0x1b, 0	; 27
     e80:	20 fe       	sbrs	r2, 0
     e82:	c8 c0       	rjmp	.+400    	; 0x1014 <_ZN11myScanGaris15TraceUjungKananEj.constprop.12+0x6e8>
     e84:	8d e2       	ldi	r24, 0x2D	; 45
     e86:	8b bb       	out	0x1b, r24	; 27
     e88:	95 e0       	ldi	r25, 0x05	; 5
     e8a:	9a 95       	dec	r25
     e8c:	f1 f7       	brne	.-4      	; 0xe8a <_ZN11myScanGaris15TraceUjungKananEj.constprop.12+0x55e>
     e8e:	00 00       	nop
     e90:	da 98       	cbi	0x1b, 2	; 27
     e92:	ea e1       	ldi	r30, 0x1A	; 26
     e94:	ea 95       	dec	r30
     e96:	f1 f7       	brne	.-4      	; 0xe94 <_ZN11myScanGaris15TraceUjungKananEj.constprop.12+0x568>
     e98:	00 c0       	rjmp	.+0      	; 0xe9a <_ZN11myScanGaris15TraceUjungKananEj.constprop.12+0x56e>
     e9a:	20 fc       	sbrc	r2, 0
     e9c:	d4 c0       	rjmp	.+424    	; 0x1046 <_ZN11myScanGaris15TraceUjungKananEj.constprop.12+0x71a>
     e9e:	85 e0       	ldi	r24, 0x05	; 5
     ea0:	8b bb       	out	0x1b, r24	; 27
     ea2:	f5 e0       	ldi	r31, 0x05	; 5
     ea4:	fa 95       	dec	r31
     ea6:	f1 f7       	brne	.-4      	; 0xea4 <_ZN11myScanGaris15TraceUjungKananEj.constprop.12+0x578>
     ea8:	00 00       	nop
     eaa:	da 98       	cbi	0x1b, 2	; 27
     eac:	25 ed       	ldi	r18, 0xD5	; 213
     eae:	2a 95       	dec	r18
     eb0:	f1 f7       	brne	.-4      	; 0xeae <_ZN11myScanGaris15TraceUjungKananEj.constprop.12+0x582>
     eb2:	00 00       	nop
     eb4:	da 9a       	sbi	0x1b, 2	; 27
     eb6:	cd ce       	rjmp	.-614    	; 0xc52 <_ZN11myScanGaris15TraceUjungKananEj.constprop.12+0x326>
     eb8:	f0 e1       	ldi	r31, 0x10	; 16
     eba:	4f 9f       	mul	r20, r31
     ebc:	a0 01       	movw	r20, r0
     ebe:	11 24       	eor	r1, r1
     ec0:	4d 60       	ori	r20, 0x0D	; 13
     ec2:	4b bb       	out	0x1b, r20	; 27
     ec4:	ba ce       	rjmp	.-652    	; 0xc3a <_ZN11myScanGaris15TraceUjungKananEj.constprop.12+0x30e>
     ec6:	8c e8       	ldi	r24, 0x8C	; 140
     ec8:	8b bb       	out	0x1b, r24	; 27
     eca:	d5 ce       	rjmp	.-598    	; 0xc76 <_ZN11myScanGaris15TraceUjungKananEj.constprop.12+0x34a>
     ecc:	e0 e1       	ldi	r30, 0x10	; 16
     ece:	8e 9f       	mul	r24, r30
     ed0:	c0 01       	movw	r24, r0
     ed2:	11 24       	eor	r1, r1
     ed4:	8d 60       	ori	r24, 0x0D	; 13
     ed6:	8b bb       	out	0x1b, r24	; 27
     ed8:	77 ce       	rjmp	.-786    	; 0xbc8 <_ZN11myScanGaris15TraceUjungKananEj.constprop.12+0x29c>
     eda:	f0 e1       	ldi	r31, 0x10	; 16
     edc:	4f 9f       	mul	r20, r31
     ede:	a0 01       	movw	r20, r0
     ee0:	11 24       	eor	r1, r1
     ee2:	4d 60       	ori	r20, 0x0D	; 13
     ee4:	4b bb       	out	0x1b, r20	; 27
     ee6:	74 cf       	rjmp	.-280    	; 0xdd0 <_ZN11myScanGaris15TraceUjungKananEj.constprop.12+0x4a4>
     ee8:	d8 9a       	sbi	0x1b, 0	; 27
     eea:	20 fc       	sbrc	r2, 0
     eec:	90 c0       	rjmp	.+288    	; 0x100e <_ZN11myScanGaris15TraceUjungKananEj.constprop.12+0x6e2>
     eee:	85 e2       	ldi	r24, 0x25	; 37
     ef0:	8b bb       	out	0x1b, r24	; 27
     ef2:	95 e0       	ldi	r25, 0x05	; 5
     ef4:	9a 95       	dec	r25
     ef6:	f1 f7       	brne	.-4      	; 0xef4 <_ZN11myScanGaris15TraceUjungKananEj.constprop.12+0x5c8>
     ef8:	00 00       	nop
     efa:	da 98       	cbi	0x1b, 2	; 27
     efc:	ea e1       	ldi	r30, 0x1A	; 26
     efe:	ea 95       	dec	r30
     f00:	f1 f7       	brne	.-4      	; 0xefe <_ZN11myScanGaris15TraceUjungKananEj.constprop.12+0x5d2>
     f02:	00 c0       	rjmp	.+0      	; 0xf04 <_ZN11myScanGaris15TraceUjungKananEj.constprop.12+0x5d8>
     f04:	20 fc       	sbrc	r2, 0
     f06:	9c c0       	rjmp	.+312    	; 0x1040 <_ZN11myScanGaris15TraceUjungKananEj.constprop.12+0x714>
     f08:	85 e0       	ldi	r24, 0x05	; 5
     f0a:	8b bb       	out	0x1b, r24	; 27
     f0c:	f5 e0       	ldi	r31, 0x05	; 5
     f0e:	fa 95       	dec	r31
     f10:	f1 f7       	brne	.-4      	; 0xf0e <_ZN11myScanGaris15TraceUjungKananEj.constprop.12+0x5e2>
     f12:	00 00       	nop
     f14:	da 98       	cbi	0x1b, 2	; 27
     f16:	25 ed       	ldi	r18, 0xD5	; 213
     f18:	2a 95       	dec	r18
     f1a:	f1 f7       	brne	.-4      	; 0xf18 <_ZN11myScanGaris15TraceUjungKananEj.constprop.12+0x5ec>
     f1c:	00 00       	nop
     f1e:	da 9a       	sbi	0x1b, 2	; 27
     f20:	63 cf       	rjmp	.-314    	; 0xde8 <_ZN11myScanGaris15TraceUjungKananEj.constprop.12+0x4bc>
     f22:	e0 e1       	ldi	r30, 0x10	; 16
     f24:	8e 9f       	mul	r24, r30
     f26:	c0 01       	movw	r24, r0
     f28:	11 24       	eor	r1, r1
     f2a:	8d 60       	ori	r24, 0x0D	; 13
     f2c:	8b bb       	out	0x1b, r24	; 27
     f2e:	17 cf       	rjmp	.-466    	; 0xd5e <_ZN11myScanGaris15TraceUjungKananEj.constprop.12+0x432>
     f30:	8d 60       	ori	r24, 0x0D	; 13
     f32:	8b bb       	out	0x1b, r24	; 27
     f34:	d8 ce       	rjmp	.-592    	; 0xce6 <_ZN11myScanGaris15TraceUjungKananEj.constprop.12+0x3ba>
     f36:	9c e0       	ldi	r25, 0x0C	; 12
     f38:	9b bb       	out	0x1b, r25	; 27
     f3a:	19 cd       	rjmp	.-1486   	; 0x96e <_ZN11myScanGaris15TraceUjungKananEj.constprop.12+0x42>
     f3c:	88 27       	eor	r24, r24
     f3e:	99 27       	eor	r25, r25
     f40:	8c 1b       	sub	r24, r28
     f42:	9d 0b       	sbc	r25, r29
     f44:	90 93 85 00 	sts	0x0085, r25
     f48:	80 93 84 00 	sts	0x0084, r24
     f4c:	1d 98       	cbi	0x03, 5	; 3
     f4e:	17 ff       	sbrs	r17, 7
     f50:	af cd       	rjmp	.-1186   	; 0xab0 <_ZN11myScanGaris15TraceUjungKananEj.constprop.12+0x184>
     f52:	88 27       	eor	r24, r24
     f54:	99 27       	eor	r25, r25
     f56:	80 1b       	sub	r24, r16
     f58:	91 0b       	sbc	r25, r17
     f5a:	90 93 87 00 	sts	0x0087, r25
     f5e:	80 93 86 00 	sts	0x0086, r24
     f62:	1a 98       	cbi	0x03, 2	; 3
     f64:	aa cd       	rjmp	.-1196   	; 0xaba <_ZN11myScanGaris15TraceUjungKananEj.constprop.12+0x18e>
     f66:	8f ef       	ldi	r24, 0xFF	; 255
     f68:	80 93 69 02 	sts	0x0269, r24
     f6c:	80 93 68 02 	sts	0x0268, r24
     f70:	10 92 67 02 	sts	0x0267, r1
     f74:	80 91 66 02 	lds	r24, 0x0266
     f78:	80 95       	com	r24
     f7a:	24 e6       	ldi	r18, 0x64	; 100
     f7c:	82 02       	muls	r24, r18
     f7e:	c0 01       	movw	r24, r0
     f80:	11 24       	eor	r1, r1
     f82:	21 ef       	ldi	r18, 0xF1	; 241
     f84:	3f ef       	ldi	r19, 0xFF	; 255
     f86:	6f ef       	ldi	r22, 0xFF	; 255
     f88:	62 cd       	rjmp	.-1340   	; 0xa4e <_ZN11myScanGaris15TraceUjungKananEj.constprop.12+0x122>
     f8a:	10 91 67 02 	lds	r17, 0x0267
     f8e:	80 91 68 02 	lds	r24, 0x0268
     f92:	11 23       	and	r17, r17
     f94:	09 f4       	brne	.+2      	; 0xf98 <_ZN11myScanGaris15TraceUjungKananEj.constprop.12+0x66c>
     f96:	41 c0       	rjmp	.+130    	; 0x101a <_ZN11myScanGaris15TraceUjungKananEj.constprop.12+0x6ee>
     f98:	81 11       	cpse	r24, r1
     f9a:	6c c0       	rjmp	.+216    	; 0x1074 <_ZN11myScanGaris15TraceUjungKananEj.constprop.12+0x748>
     f9c:	61 2f       	mov	r22, r17
     f9e:	77 27       	eor	r23, r23
     fa0:	67 fd       	sbrc	r22, 7
     fa2:	70 95       	com	r23
     fa4:	87 2f       	mov	r24, r23
     fa6:	97 2f       	mov	r25, r23
     fa8:	0e 94 58 1b 	call	0x36b0	; 0x36b0 <__floatsisf>
     fac:	20 e0       	ldi	r18, 0x00	; 0
     fae:	30 e0       	ldi	r19, 0x00	; 0
     fb0:	40 ea       	ldi	r20, 0xA0	; 160
     fb2:	50 e4       	ldi	r21, 0x40	; 64
     fb4:	0e 94 bd 1a 	call	0x357a	; 0x357a <__divsf3>
     fb8:	20 e0       	ldi	r18, 0x00	; 0
     fba:	30 e0       	ldi	r19, 0x00	; 0
     fbc:	40 e0       	ldi	r20, 0x00	; 0
     fbe:	50 e4       	ldi	r21, 0x40	; 64
     fc0:	0e 94 59 1a 	call	0x34b2	; 0x34b2 <__addsf3>
     fc4:	0e 94 25 1b 	call	0x364a	; 0x364a <__fixsfsi>
     fc8:	60 93 69 02 	sts	0x0269, r22
     fcc:	00 91 66 02 	lds	r16, 0x0266
     fd0:	14 31       	cpi	r17, 0x14	; 20
     fd2:	0c f4       	brge	.+2      	; 0xfd6 <_ZN11myScanGaris15TraceUjungKananEj.constprop.12+0x6aa>
     fd4:	7f c0       	rjmp	.+254    	; 0x10d4 <_ZN11myScanGaris15TraceUjungKananEj.constprop.12+0x7a8>
     fd6:	4f e0       	ldi	r20, 0x0F	; 15
     fd8:	64 02       	muls	r22, r20
     fda:	90 01       	movw	r18, r0
     fdc:	11 24       	eor	r1, r1
     fde:	86 2f       	mov	r24, r22
     fe0:	80 1b       	sub	r24, r16
     fe2:	e4 e6       	ldi	r30, 0x64	; 100
     fe4:	8e 02       	muls	r24, r30
     fe6:	c0 01       	movw	r24, r0
     fe8:	11 24       	eor	r1, r1
     fea:	31 cd       	rjmp	.-1438   	; 0xa4e <_ZN11myScanGaris15TraceUjungKananEj.constprop.12+0x122>
     fec:	10 92 69 02 	sts	0x0269, r1
     ff0:	10 92 68 02 	sts	0x0268, r1
     ff4:	10 92 67 02 	sts	0x0267, r1
     ff8:	80 91 66 02 	lds	r24, 0x0266
     ffc:	81 95       	neg	r24
     ffe:	44 e6       	ldi	r20, 0x64	; 100
    1000:	84 02       	muls	r24, r20
    1002:	c0 01       	movw	r24, r0
    1004:	11 24       	eor	r1, r1
    1006:	20 e0       	ldi	r18, 0x00	; 0
    1008:	30 e0       	ldi	r19, 0x00	; 0
    100a:	60 e0       	ldi	r22, 0x00	; 0
    100c:	20 cd       	rjmp	.-1472   	; 0xa4e <_ZN11myScanGaris15TraceUjungKananEj.constprop.12+0x122>
    100e:	8d e2       	ldi	r24, 0x2D	; 45
    1010:	8b bb       	out	0x1b, r24	; 27
    1012:	6f cf       	rjmp	.-290    	; 0xef2 <_ZN11myScanGaris15TraceUjungKananEj.constprop.12+0x5c6>
    1014:	85 e2       	ldi	r24, 0x25	; 37
    1016:	8b bb       	out	0x1b, r24	; 27
    1018:	37 cf       	rjmp	.-402    	; 0xe88 <_ZN11myScanGaris15TraceUjungKananEj.constprop.12+0x55c>
    101a:	81 11       	cpse	r24, r1
    101c:	50 c0       	rjmp	.+160    	; 0x10be <_ZN11myScanGaris15TraceUjungKananEj.constprop.12+0x792>
    101e:	83 e0       	ldi	r24, 0x03	; 3
    1020:	80 93 69 02 	sts	0x0269, r24
    1024:	90 91 66 02 	lds	r25, 0x0266
    1028:	89 1b       	sub	r24, r25
    102a:	e4 e6       	ldi	r30, 0x64	; 100
    102c:	8e 02       	muls	r24, r30
    102e:	c0 01       	movw	r24, r0
    1030:	11 24       	eor	r1, r1
    1032:	2d e2       	ldi	r18, 0x2D	; 45
    1034:	30 e0       	ldi	r19, 0x00	; 0
    1036:	63 e0       	ldi	r22, 0x03	; 3
    1038:	1f 5f       	subi	r17, 0xFF	; 255
    103a:	10 93 67 02 	sts	0x0267, r17
    103e:	07 cd       	rjmp	.-1522   	; 0xa4e <_ZN11myScanGaris15TraceUjungKananEj.constprop.12+0x122>
    1040:	8d e0       	ldi	r24, 0x0D	; 13
    1042:	8b bb       	out	0x1b, r24	; 27
    1044:	63 cf       	rjmp	.-314    	; 0xf0c <_ZN11myScanGaris15TraceUjungKananEj.constprop.12+0x5e0>
    1046:	8d e0       	ldi	r24, 0x0D	; 13
    1048:	8b bb       	out	0x1b, r24	; 27
    104a:	2b cf       	rjmp	.-426    	; 0xea2 <_ZN11myScanGaris15TraceUjungKananEj.constprop.12+0x576>
    104c:	11 95       	neg	r17
    104e:	01 95       	neg	r16
    1050:	11 09       	sbc	r17, r1
    1052:	6d e2       	ldi	r22, 0x2D	; 45
    1054:	81 e4       	ldi	r24, 0x41	; 65
    1056:	92 e0       	ldi	r25, 0x02	; 2
    1058:	0e 94 6d 04 	call	0x8da	; 0x8da <_ZN5myLCD4DataEh>
    105c:	c0 e0       	ldi	r28, 0x00	; 0
    105e:	1a ce       	rjmp	.-972    	; 0xc94 <_ZN11myScanGaris15TraceUjungKananEj.constprop.12+0x368>
    1060:	d1 95       	neg	r29
    1062:	c1 95       	neg	r28
    1064:	d1 09       	sbc	r29, r1
    1066:	6d e2       	ldi	r22, 0x2D	; 45
    1068:	81 e4       	ldi	r24, 0x41	; 65
    106a:	92 e0       	ldi	r25, 0x02	; 2
    106c:	0e 94 6d 04 	call	0x8da	; 0x8da <_ZN5myLCD4DataEh>
    1070:	f1 2c       	mov	r15, r1
    1072:	45 cd       	rjmp	.-1398   	; 0xafe <_ZN11myScanGaris15TraceUjungKananEj.constprop.12+0x1d2>
    1074:	00 91 66 02 	lds	r16, 0x0266
    1078:	60 2f       	mov	r22, r16
    107a:	77 27       	eor	r23, r23
    107c:	67 fd       	sbrc	r22, 7
    107e:	70 95       	com	r23
    1080:	87 2f       	mov	r24, r23
    1082:	97 2f       	mov	r25, r23
    1084:	0e 94 58 1b 	call	0x36b0	; 0x36b0 <__floatsisf>
    1088:	6b 01       	movw	r12, r22
    108a:	7c 01       	movw	r14, r24
    108c:	61 2f       	mov	r22, r17
    108e:	77 27       	eor	r23, r23
    1090:	67 fd       	sbrc	r22, 7
    1092:	70 95       	com	r23
    1094:	87 2f       	mov	r24, r23
    1096:	97 2f       	mov	r25, r23
    1098:	0e 94 58 1b 	call	0x36b0	; 0x36b0 <__floatsisf>
    109c:	20 e0       	ldi	r18, 0x00	; 0
    109e:	30 e0       	ldi	r19, 0x00	; 0
    10a0:	40 ea       	ldi	r20, 0xA0	; 160
    10a2:	50 e4       	ldi	r21, 0x40	; 64
    10a4:	0e 94 bd 1a 	call	0x357a	; 0x357a <__divsf3>
    10a8:	9b 01       	movw	r18, r22
    10aa:	ac 01       	movw	r20, r24
    10ac:	c7 01       	movw	r24, r14
    10ae:	b6 01       	movw	r22, r12
    10b0:	0e 94 58 1a 	call	0x34b0	; 0x34b0 <__subsf3>
    10b4:	0e 94 25 1b 	call	0x364a	; 0x364a <__fixsfsi>
    10b8:	60 93 69 02 	sts	0x0269, r22
    10bc:	89 cf       	rjmp	.-238    	; 0xfd0 <_ZN11myScanGaris15TraceUjungKananEj.constprop.12+0x6a4>
    10be:	60 91 66 02 	lds	r22, 0x0266
    10c2:	60 93 69 02 	sts	0x0269, r22
    10c6:	ff e0       	ldi	r31, 0x0F	; 15
    10c8:	6f 02       	muls	r22, r31
    10ca:	90 01       	movw	r18, r0
    10cc:	11 24       	eor	r1, r1
    10ce:	80 e0       	ldi	r24, 0x00	; 0
    10d0:	90 e0       	ldi	r25, 0x00	; 0
    10d2:	b2 cf       	rjmp	.-156    	; 0x1038 <_ZN11myScanGaris15TraceUjungKananEj.constprop.12+0x70c>
    10d4:	86 2f       	mov	r24, r22
    10d6:	80 1b       	sub	r24, r16
    10d8:	ff e0       	ldi	r31, 0x0F	; 15
    10da:	6f 02       	muls	r22, r31
    10dc:	90 01       	movw	r18, r0
    10de:	11 24       	eor	r1, r1
    10e0:	44 e6       	ldi	r20, 0x64	; 100
    10e2:	84 02       	muls	r24, r20
    10e4:	c0 01       	movw	r24, r0
    10e6:	11 24       	eor	r1, r1
    10e8:	a7 cf       	rjmp	.-178    	; 0x1038 <_ZN11myScanGaris15TraceUjungKananEj.constprop.12+0x70c>

000010ea <_ZN5myLCD10HapusKananEh>:
    10ea:	62 95       	swap	r22
    10ec:	66 0f       	add	r22, r22
    10ee:	66 0f       	add	r22, r22
    10f0:	60 7c       	andi	r22, 0xC0	; 192
    10f2:	61 57       	subi	r22, 0x71	; 113
    10f4:	3f e0       	ldi	r19, 0x0F	; 15
    10f6:	22 2d       	mov	r18, r2
    10f8:	21 70       	andi	r18, 0x01	; 1
    10fa:	75 e2       	ldi	r23, 0x25	; 37
    10fc:	5d e2       	ldi	r21, 0x2D	; 45
    10fe:	45 e0       	ldi	r20, 0x05	; 5
    1100:	ed e0       	ldi	r30, 0x0D	; 13
    1102:	46 c0       	rjmp	.+140    	; 0x1190 <__stack+0x91>
    1104:	8c 60       	ori	r24, 0x0C	; 12
    1106:	8b bb       	out	0x1b, r24	; 27
    1108:	85 e0       	ldi	r24, 0x05	; 5
    110a:	8a 95       	dec	r24
    110c:	f1 f7       	brne	.-4      	; 0x110a <__stack+0xb>
    110e:	00 00       	nop
    1110:	da 98       	cbi	0x1b, 2	; 27
    1112:	9a e1       	ldi	r25, 0x1A	; 26
    1114:	9a 95       	dec	r25
    1116:	f1 f7       	brne	.-4      	; 0x1114 <__stack+0x15>
    1118:	00 c0       	rjmp	.+0      	; 0x111a <__stack+0x1b>
    111a:	f0 e1       	ldi	r31, 0x10	; 16
    111c:	6f 9f       	mul	r22, r31
    111e:	c0 01       	movw	r24, r0
    1120:	11 24       	eor	r1, r1
    1122:	21 11       	cpse	r18, r1
    1124:	3f c0       	rjmp	.+126    	; 0x11a4 <__stack+0xa5>
    1126:	84 60       	ori	r24, 0x04	; 4
    1128:	8b bb       	out	0x1b, r24	; 27
    112a:	85 e0       	ldi	r24, 0x05	; 5
    112c:	8a 95       	dec	r24
    112e:	f1 f7       	brne	.-4      	; 0x112c <__stack+0x2d>
    1130:	00 00       	nop
    1132:	da 98       	cbi	0x1b, 2	; 27
    1134:	8f ee       	ldi	r24, 0xEF	; 239
    1136:	9a e0       	ldi	r25, 0x0A	; 10
    1138:	01 97       	sbiw	r24, 0x01	; 1
    113a:	f1 f7       	brne	.-4      	; 0x1138 <__stack+0x39>
    113c:	00 c0       	rjmp	.+0      	; 0x113e <__stack+0x3f>
    113e:	00 00       	nop
    1140:	da 9a       	sbi	0x1b, 2	; 27
    1142:	d8 9a       	sbi	0x1b, 0	; 27
    1144:	22 23       	and	r18, r18
    1146:	61 f1       	breq	.+88     	; 0x11a0 <__stack+0xa1>
    1148:	5b bb       	out	0x1b, r21	; 27
    114a:	95 e0       	ldi	r25, 0x05	; 5
    114c:	9a 95       	dec	r25
    114e:	f1 f7       	brne	.-4      	; 0x114c <__stack+0x4d>
    1150:	00 00       	nop
    1152:	da 98       	cbi	0x1b, 2	; 27
    1154:	fa e1       	ldi	r31, 0x1A	; 26
    1156:	fa 95       	dec	r31
    1158:	f1 f7       	brne	.-4      	; 0x1156 <__stack+0x57>
    115a:	00 c0       	rjmp	.+0      	; 0x115c <__stack+0x5d>
    115c:	21 11       	cpse	r18, r1
    115e:	25 c0       	rjmp	.+74     	; 0x11aa <__stack+0xab>
    1160:	4b bb       	out	0x1b, r20	; 27
    1162:	85 e0       	ldi	r24, 0x05	; 5
    1164:	8a 95       	dec	r24
    1166:	f1 f7       	brne	.-4      	; 0x1164 <__stack+0x65>
    1168:	00 00       	nop
    116a:	da 98       	cbi	0x1b, 2	; 27
    116c:	95 ed       	ldi	r25, 0xD5	; 213
    116e:	9a 95       	dec	r25
    1170:	f1 f7       	brne	.-4      	; 0x116e <__stack+0x6f>
    1172:	00 00       	nop
    1174:	da 9a       	sbi	0x1b, 2	; 27
    1176:	ff e7       	ldi	r31, 0x7F	; 127
    1178:	88 e3       	ldi	r24, 0x38	; 56
    117a:	91 e0       	ldi	r25, 0x01	; 1
    117c:	f1 50       	subi	r31, 0x01	; 1
    117e:	80 40       	sbci	r24, 0x00	; 0
    1180:	90 40       	sbci	r25, 0x00	; 0
    1182:	e1 f7       	brne	.-8      	; 0x117c <__stack+0x7d>
    1184:	00 c0       	rjmp	.+0      	; 0x1186 <__stack+0x87>
    1186:	00 00       	nop
    1188:	31 50       	subi	r19, 0x01	; 1
    118a:	61 50       	subi	r22, 0x01	; 1
    118c:	3f 3f       	cpi	r19, 0xFF	; 255
    118e:	79 f0       	breq	.+30     	; 0x11ae <__stack+0xaf>
    1190:	d8 98       	cbi	0x1b, 0	; 27
    1192:	86 2f       	mov	r24, r22
    1194:	80 7f       	andi	r24, 0xF0	; 240
    1196:	21 11       	cpse	r18, r1
    1198:	b5 cf       	rjmp	.-150    	; 0x1104 <__stack+0x5>
    119a:	84 60       	ori	r24, 0x04	; 4
    119c:	8b bb       	out	0x1b, r24	; 27
    119e:	b4 cf       	rjmp	.-152    	; 0x1108 <__stack+0x9>
    11a0:	7b bb       	out	0x1b, r23	; 27
    11a2:	d3 cf       	rjmp	.-90     	; 0x114a <__stack+0x4b>
    11a4:	8c 60       	ori	r24, 0x0C	; 12
    11a6:	8b bb       	out	0x1b, r24	; 27
    11a8:	c0 cf       	rjmp	.-128    	; 0x112a <__stack+0x2b>
    11aa:	eb bb       	out	0x1b, r30	; 27
    11ac:	da cf       	rjmp	.-76     	; 0x1162 <__stack+0x63>
    11ae:	08 95       	ret

000011b0 <_ZN5myLCD11HapusTengahEh>:
    11b0:	62 95       	swap	r22
    11b2:	66 0f       	add	r22, r22
    11b4:	66 0f       	add	r22, r22
    11b6:	60 7c       	andi	r22, 0xC0	; 192
    11b8:	60 58       	subi	r22, 0x80	; 128
    11ba:	38 e0       	ldi	r19, 0x08	; 8
    11bc:	36 0f       	add	r19, r22
    11be:	69 5f       	subi	r22, 0xF9	; 249
    11c0:	47 e0       	ldi	r20, 0x07	; 7
    11c2:	22 2d       	mov	r18, r2
    11c4:	21 70       	andi	r18, 0x01	; 1
    11c6:	e5 e2       	ldi	r30, 0x25	; 37
    11c8:	7d e2       	ldi	r23, 0x2D	; 45
    11ca:	55 e0       	ldi	r21, 0x05	; 5
    11cc:	fd e0       	ldi	r31, 0x0D	; 13
    11ce:	90 c0       	rjmp	.+288    	; 0x12f0 <_ZN5myLCD11HapusTengahEh+0x140>
    11d0:	8c 60       	ori	r24, 0x0C	; 12
    11d2:	8b bb       	out	0x1b, r24	; 27
    11d4:	85 e0       	ldi	r24, 0x05	; 5
    11d6:	8a 95       	dec	r24
    11d8:	f1 f7       	brne	.-4      	; 0x11d6 <_ZN5myLCD11HapusTengahEh+0x26>
    11da:	00 00       	nop
    11dc:	da 98       	cbi	0x1b, 2	; 27
    11de:	9a e1       	ldi	r25, 0x1A	; 26
    11e0:	9a 95       	dec	r25
    11e2:	f1 f7       	brne	.-4      	; 0x11e0 <_ZN5myLCD11HapusTengahEh+0x30>
    11e4:	00 c0       	rjmp	.+0      	; 0x11e6 <_ZN5myLCD11HapusTengahEh+0x36>
    11e6:	a0 e1       	ldi	r26, 0x10	; 16
    11e8:	6a 9f       	mul	r22, r26
    11ea:	c0 01       	movw	r24, r0
    11ec:	11 24       	eor	r1, r1
    11ee:	21 11       	cpse	r18, r1
    11f0:	8e c0       	rjmp	.+284    	; 0x130e <_ZN5myLCD11HapusTengahEh+0x15e>
    11f2:	84 60       	ori	r24, 0x04	; 4
    11f4:	8b bb       	out	0x1b, r24	; 27
    11f6:	85 e0       	ldi	r24, 0x05	; 5
    11f8:	8a 95       	dec	r24
    11fa:	f1 f7       	brne	.-4      	; 0x11f8 <_ZN5myLCD11HapusTengahEh+0x48>
    11fc:	00 00       	nop
    11fe:	da 98       	cbi	0x1b, 2	; 27
    1200:	8f ee       	ldi	r24, 0xEF	; 239
    1202:	9a e0       	ldi	r25, 0x0A	; 10
    1204:	01 97       	sbiw	r24, 0x01	; 1
    1206:	f1 f7       	brne	.-4      	; 0x1204 <_ZN5myLCD11HapusTengahEh+0x54>
    1208:	00 c0       	rjmp	.+0      	; 0x120a <_ZN5myLCD11HapusTengahEh+0x5a>
    120a:	00 00       	nop
    120c:	da 9a       	sbi	0x1b, 2	; 27
    120e:	d8 9a       	sbi	0x1b, 0	; 27
    1210:	22 23       	and	r18, r18
    1212:	09 f4       	brne	.+2      	; 0x1216 <_ZN5myLCD11HapusTengahEh+0x66>
    1214:	7a c0       	rjmp	.+244    	; 0x130a <_ZN5myLCD11HapusTengahEh+0x15a>
    1216:	7b bb       	out	0x1b, r23	; 27
    1218:	95 e0       	ldi	r25, 0x05	; 5
    121a:	9a 95       	dec	r25
    121c:	f1 f7       	brne	.-4      	; 0x121a <_ZN5myLCD11HapusTengahEh+0x6a>
    121e:	00 00       	nop
    1220:	da 98       	cbi	0x1b, 2	; 27
    1222:	aa e1       	ldi	r26, 0x1A	; 26
    1224:	aa 95       	dec	r26
    1226:	f1 f7       	brne	.-4      	; 0x1224 <_ZN5myLCD11HapusTengahEh+0x74>
    1228:	00 c0       	rjmp	.+0      	; 0x122a <_ZN5myLCD11HapusTengahEh+0x7a>
    122a:	21 11       	cpse	r18, r1
    122c:	78 c0       	rjmp	.+240    	; 0x131e <_ZN5myLCD11HapusTengahEh+0x16e>
    122e:	5b bb       	out	0x1b, r21	; 27
    1230:	85 e0       	ldi	r24, 0x05	; 5
    1232:	8a 95       	dec	r24
    1234:	f1 f7       	brne	.-4      	; 0x1232 <_ZN5myLCD11HapusTengahEh+0x82>
    1236:	00 00       	nop
    1238:	da 98       	cbi	0x1b, 2	; 27
    123a:	95 ed       	ldi	r25, 0xD5	; 213
    123c:	9a 95       	dec	r25
    123e:	f1 f7       	brne	.-4      	; 0x123c <_ZN5myLCD11HapusTengahEh+0x8c>
    1240:	00 00       	nop
    1242:	da 9a       	sbi	0x1b, 2	; 27
    1244:	af e7       	ldi	r26, 0x7F	; 127
    1246:	88 e3       	ldi	r24, 0x38	; 56
    1248:	91 e0       	ldi	r25, 0x01	; 1
    124a:	a1 50       	subi	r26, 0x01	; 1
    124c:	80 40       	sbci	r24, 0x00	; 0
    124e:	90 40       	sbci	r25, 0x00	; 0
    1250:	e1 f7       	brne	.-8      	; 0x124a <_ZN5myLCD11HapusTengahEh+0x9a>
    1252:	00 c0       	rjmp	.+0      	; 0x1254 <_ZN5myLCD11HapusTengahEh+0xa4>
    1254:	00 00       	nop
    1256:	d8 98       	cbi	0x1b, 0	; 27
    1258:	83 2f       	mov	r24, r19
    125a:	80 7f       	andi	r24, 0xF0	; 240
    125c:	22 23       	and	r18, r18
    125e:	09 f4       	brne	.+2      	; 0x1262 <_ZN5myLCD11HapusTengahEh+0xb2>
    1260:	51 c0       	rjmp	.+162    	; 0x1304 <_ZN5myLCD11HapusTengahEh+0x154>
    1262:	8c 60       	ori	r24, 0x0C	; 12
    1264:	8b bb       	out	0x1b, r24	; 27
    1266:	a5 e0       	ldi	r26, 0x05	; 5
    1268:	aa 95       	dec	r26
    126a:	f1 f7       	brne	.-4      	; 0x1268 <_ZN5myLCD11HapusTengahEh+0xb8>
    126c:	00 00       	nop
    126e:	da 98       	cbi	0x1b, 2	; 27
    1270:	8a e1       	ldi	r24, 0x1A	; 26
    1272:	8a 95       	dec	r24
    1274:	f1 f7       	brne	.-4      	; 0x1272 <_ZN5myLCD11HapusTengahEh+0xc2>
    1276:	00 c0       	rjmp	.+0      	; 0x1278 <_ZN5myLCD11HapusTengahEh+0xc8>
    1278:	a0 e1       	ldi	r26, 0x10	; 16
    127a:	3a 9f       	mul	r19, r26
    127c:	c0 01       	movw	r24, r0
    127e:	11 24       	eor	r1, r1
    1280:	21 11       	cpse	r18, r1
    1282:	4a c0       	rjmp	.+148    	; 0x1318 <_ZN5myLCD11HapusTengahEh+0x168>
    1284:	84 60       	ori	r24, 0x04	; 4
    1286:	8b bb       	out	0x1b, r24	; 27
    1288:	85 e0       	ldi	r24, 0x05	; 5
    128a:	8a 95       	dec	r24
    128c:	f1 f7       	brne	.-4      	; 0x128a <_ZN5myLCD11HapusTengahEh+0xda>
    128e:	00 00       	nop
    1290:	da 98       	cbi	0x1b, 2	; 27
    1292:	8f ee       	ldi	r24, 0xEF	; 239
    1294:	9a e0       	ldi	r25, 0x0A	; 10
    1296:	01 97       	sbiw	r24, 0x01	; 1
    1298:	f1 f7       	brne	.-4      	; 0x1296 <_ZN5myLCD11HapusTengahEh+0xe6>
    129a:	00 c0       	rjmp	.+0      	; 0x129c <_ZN5myLCD11HapusTengahEh+0xec>
    129c:	00 00       	nop
    129e:	da 9a       	sbi	0x1b, 2	; 27
    12a0:	d8 9a       	sbi	0x1b, 0	; 27
    12a2:	22 23       	and	r18, r18
    12a4:	69 f1       	breq	.+90     	; 0x1300 <_ZN5myLCD11HapusTengahEh+0x150>
    12a6:	7b bb       	out	0x1b, r23	; 27
    12a8:	95 e0       	ldi	r25, 0x05	; 5
    12aa:	9a 95       	dec	r25
    12ac:	f1 f7       	brne	.-4      	; 0x12aa <_ZN5myLCD11HapusTengahEh+0xfa>
    12ae:	00 00       	nop
    12b0:	da 98       	cbi	0x1b, 2	; 27
    12b2:	aa e1       	ldi	r26, 0x1A	; 26
    12b4:	aa 95       	dec	r26
    12b6:	f1 f7       	brne	.-4      	; 0x12b4 <_ZN5myLCD11HapusTengahEh+0x104>
    12b8:	00 c0       	rjmp	.+0      	; 0x12ba <_ZN5myLCD11HapusTengahEh+0x10a>
    12ba:	21 11       	cpse	r18, r1
    12bc:	2b c0       	rjmp	.+86     	; 0x1314 <_ZN5myLCD11HapusTengahEh+0x164>
    12be:	5b bb       	out	0x1b, r21	; 27
    12c0:	85 e0       	ldi	r24, 0x05	; 5
    12c2:	8a 95       	dec	r24
    12c4:	f1 f7       	brne	.-4      	; 0x12c2 <_ZN5myLCD11HapusTengahEh+0x112>
    12c6:	00 00       	nop
    12c8:	da 98       	cbi	0x1b, 2	; 27
    12ca:	95 ed       	ldi	r25, 0xD5	; 213
    12cc:	9a 95       	dec	r25
    12ce:	f1 f7       	brne	.-4      	; 0x12cc <_ZN5myLCD11HapusTengahEh+0x11c>
    12d0:	00 00       	nop
    12d2:	da 9a       	sbi	0x1b, 2	; 27
    12d4:	af e7       	ldi	r26, 0x7F	; 127
    12d6:	88 e3       	ldi	r24, 0x38	; 56
    12d8:	91 e0       	ldi	r25, 0x01	; 1
    12da:	a1 50       	subi	r26, 0x01	; 1
    12dc:	80 40       	sbci	r24, 0x00	; 0
    12de:	90 40       	sbci	r25, 0x00	; 0
    12e0:	e1 f7       	brne	.-8      	; 0x12da <_ZN5myLCD11HapusTengahEh+0x12a>
    12e2:	00 c0       	rjmp	.+0      	; 0x12e4 <_ZN5myLCD11HapusTengahEh+0x134>
    12e4:	00 00       	nop
    12e6:	41 50       	subi	r20, 0x01	; 1
    12e8:	3f 5f       	subi	r19, 0xFF	; 255
    12ea:	61 50       	subi	r22, 0x01	; 1
    12ec:	4f 3f       	cpi	r20, 0xFF	; 255
    12ee:	c9 f0       	breq	.+50     	; 0x1322 <_ZN5myLCD11HapusTengahEh+0x172>
    12f0:	d8 98       	cbi	0x1b, 0	; 27
    12f2:	86 2f       	mov	r24, r22
    12f4:	80 7f       	andi	r24, 0xF0	; 240
    12f6:	21 11       	cpse	r18, r1
    12f8:	6b cf       	rjmp	.-298    	; 0x11d0 <_ZN5myLCD11HapusTengahEh+0x20>
    12fa:	84 60       	ori	r24, 0x04	; 4
    12fc:	8b bb       	out	0x1b, r24	; 27
    12fe:	6a cf       	rjmp	.-300    	; 0x11d4 <_ZN5myLCD11HapusTengahEh+0x24>
    1300:	eb bb       	out	0x1b, r30	; 27
    1302:	d2 cf       	rjmp	.-92     	; 0x12a8 <_ZN5myLCD11HapusTengahEh+0xf8>
    1304:	84 60       	ori	r24, 0x04	; 4
    1306:	8b bb       	out	0x1b, r24	; 27
    1308:	ae cf       	rjmp	.-164    	; 0x1266 <_ZN5myLCD11HapusTengahEh+0xb6>
    130a:	eb bb       	out	0x1b, r30	; 27
    130c:	85 cf       	rjmp	.-246    	; 0x1218 <_ZN5myLCD11HapusTengahEh+0x68>
    130e:	8c 60       	ori	r24, 0x0C	; 12
    1310:	8b bb       	out	0x1b, r24	; 27
    1312:	71 cf       	rjmp	.-286    	; 0x11f6 <_ZN5myLCD11HapusTengahEh+0x46>
    1314:	fb bb       	out	0x1b, r31	; 27
    1316:	d4 cf       	rjmp	.-88     	; 0x12c0 <_ZN5myLCD11HapusTengahEh+0x110>
    1318:	8c 60       	ori	r24, 0x0C	; 12
    131a:	8b bb       	out	0x1b, r24	; 27
    131c:	b5 cf       	rjmp	.-150    	; 0x1288 <_ZN5myLCD11HapusTengahEh+0xd8>
    131e:	fb bb       	out	0x1b, r31	; 27
    1320:	87 cf       	rjmp	.-242    	; 0x1230 <_ZN5myLCD11HapusTengahEh+0x80>
    1322:	08 95       	ret

00001324 <_ZN5myLCD12HapusPinggirEh>:
    1324:	62 95       	swap	r22
    1326:	66 0f       	add	r22, r22
    1328:	66 0f       	add	r22, r22
    132a:	60 7c       	andi	r22, 0xC0	; 192
    132c:	60 58       	subi	r22, 0x80	; 128
    132e:	3f e0       	ldi	r19, 0x0F	; 15
    1330:	36 0f       	add	r19, r22
    1332:	40 e0       	ldi	r20, 0x00	; 0
    1334:	22 2d       	mov	r18, r2
    1336:	21 70       	andi	r18, 0x01	; 1
    1338:	e5 e2       	ldi	r30, 0x25	; 37
    133a:	7d e2       	ldi	r23, 0x2D	; 45
    133c:	55 e0       	ldi	r21, 0x05	; 5
    133e:	fd e0       	ldi	r31, 0x0D	; 13
    1340:	90 c0       	rjmp	.+288    	; 0x1462 <_ZN5myLCD12HapusPinggirEh+0x13e>
    1342:	8c 60       	ori	r24, 0x0C	; 12
    1344:	8b bb       	out	0x1b, r24	; 27
    1346:	85 e0       	ldi	r24, 0x05	; 5
    1348:	8a 95       	dec	r24
    134a:	f1 f7       	brne	.-4      	; 0x1348 <_ZN5myLCD12HapusPinggirEh+0x24>
    134c:	00 00       	nop
    134e:	da 98       	cbi	0x1b, 2	; 27
    1350:	9a e1       	ldi	r25, 0x1A	; 26
    1352:	9a 95       	dec	r25
    1354:	f1 f7       	brne	.-4      	; 0x1352 <_ZN5myLCD12HapusPinggirEh+0x2e>
    1356:	00 c0       	rjmp	.+0      	; 0x1358 <_ZN5myLCD12HapusPinggirEh+0x34>
    1358:	a0 e1       	ldi	r26, 0x10	; 16
    135a:	6a 9f       	mul	r22, r26
    135c:	c0 01       	movw	r24, r0
    135e:	11 24       	eor	r1, r1
    1360:	21 11       	cpse	r18, r1
    1362:	8e c0       	rjmp	.+284    	; 0x1480 <_ZN5myLCD12HapusPinggirEh+0x15c>
    1364:	84 60       	ori	r24, 0x04	; 4
    1366:	8b bb       	out	0x1b, r24	; 27
    1368:	85 e0       	ldi	r24, 0x05	; 5
    136a:	8a 95       	dec	r24
    136c:	f1 f7       	brne	.-4      	; 0x136a <_ZN5myLCD12HapusPinggirEh+0x46>
    136e:	00 00       	nop
    1370:	da 98       	cbi	0x1b, 2	; 27
    1372:	8f ee       	ldi	r24, 0xEF	; 239
    1374:	9a e0       	ldi	r25, 0x0A	; 10
    1376:	01 97       	sbiw	r24, 0x01	; 1
    1378:	f1 f7       	brne	.-4      	; 0x1376 <_ZN5myLCD12HapusPinggirEh+0x52>
    137a:	00 c0       	rjmp	.+0      	; 0x137c <_ZN5myLCD12HapusPinggirEh+0x58>
    137c:	00 00       	nop
    137e:	da 9a       	sbi	0x1b, 2	; 27
    1380:	d8 9a       	sbi	0x1b, 0	; 27
    1382:	22 23       	and	r18, r18
    1384:	09 f4       	brne	.+2      	; 0x1388 <_ZN5myLCD12HapusPinggirEh+0x64>
    1386:	7a c0       	rjmp	.+244    	; 0x147c <_ZN5myLCD12HapusPinggirEh+0x158>
    1388:	7b bb       	out	0x1b, r23	; 27
    138a:	95 e0       	ldi	r25, 0x05	; 5
    138c:	9a 95       	dec	r25
    138e:	f1 f7       	brne	.-4      	; 0x138c <_ZN5myLCD12HapusPinggirEh+0x68>
    1390:	00 00       	nop
    1392:	da 98       	cbi	0x1b, 2	; 27
    1394:	aa e1       	ldi	r26, 0x1A	; 26
    1396:	aa 95       	dec	r26
    1398:	f1 f7       	brne	.-4      	; 0x1396 <_ZN5myLCD12HapusPinggirEh+0x72>
    139a:	00 c0       	rjmp	.+0      	; 0x139c <_ZN5myLCD12HapusPinggirEh+0x78>
    139c:	21 11       	cpse	r18, r1
    139e:	78 c0       	rjmp	.+240    	; 0x1490 <_ZN5myLCD12HapusPinggirEh+0x16c>
    13a0:	5b bb       	out	0x1b, r21	; 27
    13a2:	85 e0       	ldi	r24, 0x05	; 5
    13a4:	8a 95       	dec	r24
    13a6:	f1 f7       	brne	.-4      	; 0x13a4 <_ZN5myLCD12HapusPinggirEh+0x80>
    13a8:	00 00       	nop
    13aa:	da 98       	cbi	0x1b, 2	; 27
    13ac:	95 ed       	ldi	r25, 0xD5	; 213
    13ae:	9a 95       	dec	r25
    13b0:	f1 f7       	brne	.-4      	; 0x13ae <_ZN5myLCD12HapusPinggirEh+0x8a>
    13b2:	00 00       	nop
    13b4:	da 9a       	sbi	0x1b, 2	; 27
    13b6:	af e7       	ldi	r26, 0x7F	; 127
    13b8:	88 e3       	ldi	r24, 0x38	; 56
    13ba:	91 e0       	ldi	r25, 0x01	; 1
    13bc:	a1 50       	subi	r26, 0x01	; 1
    13be:	80 40       	sbci	r24, 0x00	; 0
    13c0:	90 40       	sbci	r25, 0x00	; 0
    13c2:	e1 f7       	brne	.-8      	; 0x13bc <_ZN5myLCD12HapusPinggirEh+0x98>
    13c4:	00 c0       	rjmp	.+0      	; 0x13c6 <_ZN5myLCD12HapusPinggirEh+0xa2>
    13c6:	00 00       	nop
    13c8:	d8 98       	cbi	0x1b, 0	; 27
    13ca:	83 2f       	mov	r24, r19
    13cc:	80 7f       	andi	r24, 0xF0	; 240
    13ce:	22 23       	and	r18, r18
    13d0:	09 f4       	brne	.+2      	; 0x13d4 <_ZN5myLCD12HapusPinggirEh+0xb0>
    13d2:	51 c0       	rjmp	.+162    	; 0x1476 <_ZN5myLCD12HapusPinggirEh+0x152>
    13d4:	8c 60       	ori	r24, 0x0C	; 12
    13d6:	8b bb       	out	0x1b, r24	; 27
    13d8:	a5 e0       	ldi	r26, 0x05	; 5
    13da:	aa 95       	dec	r26
    13dc:	f1 f7       	brne	.-4      	; 0x13da <_ZN5myLCD12HapusPinggirEh+0xb6>
    13de:	00 00       	nop
    13e0:	da 98       	cbi	0x1b, 2	; 27
    13e2:	8a e1       	ldi	r24, 0x1A	; 26
    13e4:	8a 95       	dec	r24
    13e6:	f1 f7       	brne	.-4      	; 0x13e4 <_ZN5myLCD12HapusPinggirEh+0xc0>
    13e8:	00 c0       	rjmp	.+0      	; 0x13ea <_ZN5myLCD12HapusPinggirEh+0xc6>
    13ea:	a0 e1       	ldi	r26, 0x10	; 16
    13ec:	3a 9f       	mul	r19, r26
    13ee:	c0 01       	movw	r24, r0
    13f0:	11 24       	eor	r1, r1
    13f2:	21 11       	cpse	r18, r1
    13f4:	4a c0       	rjmp	.+148    	; 0x148a <_ZN5myLCD12HapusPinggirEh+0x166>
    13f6:	84 60       	ori	r24, 0x04	; 4
    13f8:	8b bb       	out	0x1b, r24	; 27
    13fa:	85 e0       	ldi	r24, 0x05	; 5
    13fc:	8a 95       	dec	r24
    13fe:	f1 f7       	brne	.-4      	; 0x13fc <_ZN5myLCD12HapusPinggirEh+0xd8>
    1400:	00 00       	nop
    1402:	da 98       	cbi	0x1b, 2	; 27
    1404:	8f ee       	ldi	r24, 0xEF	; 239
    1406:	9a e0       	ldi	r25, 0x0A	; 10
    1408:	01 97       	sbiw	r24, 0x01	; 1
    140a:	f1 f7       	brne	.-4      	; 0x1408 <_ZN5myLCD12HapusPinggirEh+0xe4>
    140c:	00 c0       	rjmp	.+0      	; 0x140e <_ZN5myLCD12HapusPinggirEh+0xea>
    140e:	00 00       	nop
    1410:	da 9a       	sbi	0x1b, 2	; 27
    1412:	d8 9a       	sbi	0x1b, 0	; 27
    1414:	22 23       	and	r18, r18
    1416:	69 f1       	breq	.+90     	; 0x1472 <_ZN5myLCD12HapusPinggirEh+0x14e>
    1418:	7b bb       	out	0x1b, r23	; 27
    141a:	95 e0       	ldi	r25, 0x05	; 5
    141c:	9a 95       	dec	r25
    141e:	f1 f7       	brne	.-4      	; 0x141c <_ZN5myLCD12HapusPinggirEh+0xf8>
    1420:	00 00       	nop
    1422:	da 98       	cbi	0x1b, 2	; 27
    1424:	aa e1       	ldi	r26, 0x1A	; 26
    1426:	aa 95       	dec	r26
    1428:	f1 f7       	brne	.-4      	; 0x1426 <_ZN5myLCD12HapusPinggirEh+0x102>
    142a:	00 c0       	rjmp	.+0      	; 0x142c <_ZN5myLCD12HapusPinggirEh+0x108>
    142c:	21 11       	cpse	r18, r1
    142e:	2b c0       	rjmp	.+86     	; 0x1486 <_ZN5myLCD12HapusPinggirEh+0x162>
    1430:	5b bb       	out	0x1b, r21	; 27
    1432:	85 e0       	ldi	r24, 0x05	; 5
    1434:	8a 95       	dec	r24
    1436:	f1 f7       	brne	.-4      	; 0x1434 <_ZN5myLCD12HapusPinggirEh+0x110>
    1438:	00 00       	nop
    143a:	da 98       	cbi	0x1b, 2	; 27
    143c:	95 ed       	ldi	r25, 0xD5	; 213
    143e:	9a 95       	dec	r25
    1440:	f1 f7       	brne	.-4      	; 0x143e <_ZN5myLCD12HapusPinggirEh+0x11a>
    1442:	00 00       	nop
    1444:	da 9a       	sbi	0x1b, 2	; 27
    1446:	af e7       	ldi	r26, 0x7F	; 127
    1448:	88 e3       	ldi	r24, 0x38	; 56
    144a:	91 e0       	ldi	r25, 0x01	; 1
    144c:	a1 50       	subi	r26, 0x01	; 1
    144e:	80 40       	sbci	r24, 0x00	; 0
    1450:	90 40       	sbci	r25, 0x00	; 0
    1452:	e1 f7       	brne	.-8      	; 0x144c <_ZN5myLCD12HapusPinggirEh+0x128>
    1454:	00 c0       	rjmp	.+0      	; 0x1456 <_ZN5myLCD12HapusPinggirEh+0x132>
    1456:	00 00       	nop
    1458:	4f 5f       	subi	r20, 0xFF	; 255
    145a:	31 50       	subi	r19, 0x01	; 1
    145c:	6f 5f       	subi	r22, 0xFF	; 255
    145e:	48 30       	cpi	r20, 0x08	; 8
    1460:	c9 f0       	breq	.+50     	; 0x1494 <_ZN5myLCD12HapusPinggirEh+0x170>
    1462:	d8 98       	cbi	0x1b, 0	; 27
    1464:	86 2f       	mov	r24, r22
    1466:	80 7f       	andi	r24, 0xF0	; 240
    1468:	21 11       	cpse	r18, r1
    146a:	6b cf       	rjmp	.-298    	; 0x1342 <_ZN5myLCD12HapusPinggirEh+0x1e>
    146c:	84 60       	ori	r24, 0x04	; 4
    146e:	8b bb       	out	0x1b, r24	; 27
    1470:	6a cf       	rjmp	.-300    	; 0x1346 <_ZN5myLCD12HapusPinggirEh+0x22>
    1472:	eb bb       	out	0x1b, r30	; 27
    1474:	d2 cf       	rjmp	.-92     	; 0x141a <_ZN5myLCD12HapusPinggirEh+0xf6>
    1476:	84 60       	ori	r24, 0x04	; 4
    1478:	8b bb       	out	0x1b, r24	; 27
    147a:	ae cf       	rjmp	.-164    	; 0x13d8 <_ZN5myLCD12HapusPinggirEh+0xb4>
    147c:	eb bb       	out	0x1b, r30	; 27
    147e:	85 cf       	rjmp	.-246    	; 0x138a <_ZN5myLCD12HapusPinggirEh+0x66>
    1480:	8c 60       	ori	r24, 0x0C	; 12
    1482:	8b bb       	out	0x1b, r24	; 27
    1484:	71 cf       	rjmp	.-286    	; 0x1368 <_ZN5myLCD12HapusPinggirEh+0x44>
    1486:	fb bb       	out	0x1b, r31	; 27
    1488:	d4 cf       	rjmp	.-88     	; 0x1432 <_ZN5myLCD12HapusPinggirEh+0x10e>
    148a:	8c 60       	ori	r24, 0x0C	; 12
    148c:	8b bb       	out	0x1b, r24	; 27
    148e:	b5 cf       	rjmp	.-150    	; 0x13fa <_ZN5myLCD12HapusPinggirEh+0xd6>
    1490:	fb bb       	out	0x1b, r31	; 27
    1492:	87 cf       	rjmp	.-242    	; 0x13a2 <_ZN5myLCD12HapusPinggirEh+0x7e>
    1494:	08 95       	ret

00001496 <_ZN5myLCD11TulisTengahEhPKc>:
    1496:	fa 01       	movw	r30, r20
    1498:	62 95       	swap	r22
    149a:	66 0f       	add	r22, r22
    149c:	66 0f       	add	r22, r22
    149e:	60 7c       	andi	r22, 0xC0	; 192
    14a0:	60 58       	subi	r22, 0x80	; 128
    14a2:	38 96       	adiw	r30, 0x08	; 8
    14a4:	38 e0       	ldi	r19, 0x08	; 8
    14a6:	36 0f       	add	r19, r22
    14a8:	69 5f       	subi	r22, 0xF9	; 249
    14aa:	df 01       	movw	r26, r30
    14ac:	47 e0       	ldi	r20, 0x07	; 7
    14ae:	22 2d       	mov	r18, r2
    14b0:	21 70       	andi	r18, 0x01	; 1
    14b2:	a2 c0       	rjmp	.+324    	; 0x15f8 <_ZN5myLCD11TulisTengahEhPKc+0x162>
    14b4:	8c 60       	ori	r24, 0x0C	; 12
    14b6:	8b bb       	out	0x1b, r24	; 27
    14b8:	55 e0       	ldi	r21, 0x05	; 5
    14ba:	5a 95       	dec	r21
    14bc:	f1 f7       	brne	.-4      	; 0x14ba <_ZN5myLCD11TulisTengahEhPKc+0x24>
    14be:	00 00       	nop
    14c0:	da 98       	cbi	0x1b, 2	; 27
    14c2:	8a e1       	ldi	r24, 0x1A	; 26
    14c4:	8a 95       	dec	r24
    14c6:	f1 f7       	brne	.-4      	; 0x14c4 <_ZN5myLCD11TulisTengahEhPKc+0x2e>
    14c8:	00 c0       	rjmp	.+0      	; 0x14ca <_ZN5myLCD11TulisTengahEhPKc+0x34>
    14ca:	50 e1       	ldi	r21, 0x10	; 16
    14cc:	65 9f       	mul	r22, r21
    14ce:	c0 01       	movw	r24, r0
    14d0:	11 24       	eor	r1, r1
    14d2:	21 11       	cpse	r18, r1
    14d4:	a2 c0       	rjmp	.+324    	; 0x161a <_ZN5myLCD11TulisTengahEhPKc+0x184>
    14d6:	84 60       	ori	r24, 0x04	; 4
    14d8:	8b bb       	out	0x1b, r24	; 27
    14da:	85 e0       	ldi	r24, 0x05	; 5
    14dc:	8a 95       	dec	r24
    14de:	f1 f7       	brne	.-4      	; 0x14dc <_ZN5myLCD11TulisTengahEhPKc+0x46>
    14e0:	00 00       	nop
    14e2:	da 98       	cbi	0x1b, 2	; 27
    14e4:	8f ee       	ldi	r24, 0xEF	; 239
    14e6:	9a e0       	ldi	r25, 0x0A	; 10
    14e8:	01 97       	sbiw	r24, 0x01	; 1
    14ea:	f1 f7       	brne	.-4      	; 0x14e8 <_ZN5myLCD11TulisTengahEhPKc+0x52>
    14ec:	00 c0       	rjmp	.+0      	; 0x14ee <_ZN5myLCD11TulisTengahEhPKc+0x58>
    14ee:	00 00       	nop
    14f0:	da 9a       	sbi	0x1b, 2	; 27
    14f2:	8e 91       	ld	r24, -X
    14f4:	d8 9a       	sbi	0x1b, 0	; 27
    14f6:	98 2f       	mov	r25, r24
    14f8:	90 7f       	andi	r25, 0xF0	; 240
    14fa:	22 23       	and	r18, r18
    14fc:	09 f4       	brne	.+2      	; 0x1500 <_ZN5myLCD11TulisTengahEhPKc+0x6a>
    14fe:	8a c0       	rjmp	.+276    	; 0x1614 <_ZN5myLCD11TulisTengahEhPKc+0x17e>
    1500:	9d 60       	ori	r25, 0x0D	; 13
    1502:	9b bb       	out	0x1b, r25	; 27
    1504:	95 e0       	ldi	r25, 0x05	; 5
    1506:	9a 95       	dec	r25
    1508:	f1 f7       	brne	.-4      	; 0x1506 <_ZN5myLCD11TulisTengahEhPKc+0x70>
    150a:	00 00       	nop
    150c:	da 98       	cbi	0x1b, 2	; 27
    150e:	5a e1       	ldi	r21, 0x1A	; 26
    1510:	5a 95       	dec	r21
    1512:	f1 f7       	brne	.-4      	; 0x1510 <_ZN5myLCD11TulisTengahEhPKc+0x7a>
    1514:	00 c0       	rjmp	.+0      	; 0x1516 <_ZN5myLCD11TulisTengahEhPKc+0x80>
    1516:	50 e1       	ldi	r21, 0x10	; 16
    1518:	85 9f       	mul	r24, r21
    151a:	c0 01       	movw	r24, r0
    151c:	11 24       	eor	r1, r1
    151e:	21 11       	cpse	r18, r1
    1520:	85 c0       	rjmp	.+266    	; 0x162c <_ZN5myLCD11TulisTengahEhPKc+0x196>
    1522:	85 60       	ori	r24, 0x05	; 5
    1524:	8b bb       	out	0x1b, r24	; 27
    1526:	85 e0       	ldi	r24, 0x05	; 5
    1528:	8a 95       	dec	r24
    152a:	f1 f7       	brne	.-4      	; 0x1528 <_ZN5myLCD11TulisTengahEhPKc+0x92>
    152c:	00 00       	nop
    152e:	da 98       	cbi	0x1b, 2	; 27
    1530:	95 ed       	ldi	r25, 0xD5	; 213
    1532:	9a 95       	dec	r25
    1534:	f1 f7       	brne	.-4      	; 0x1532 <_ZN5myLCD11TulisTengahEhPKc+0x9c>
    1536:	00 00       	nop
    1538:	da 9a       	sbi	0x1b, 2	; 27
    153a:	5f e7       	ldi	r21, 0x7F	; 127
    153c:	88 e3       	ldi	r24, 0x38	; 56
    153e:	91 e0       	ldi	r25, 0x01	; 1
    1540:	51 50       	subi	r21, 0x01	; 1
    1542:	80 40       	sbci	r24, 0x00	; 0
    1544:	90 40       	sbci	r25, 0x00	; 0
    1546:	e1 f7       	brne	.-8      	; 0x1540 <_ZN5myLCD11TulisTengahEhPKc+0xaa>
    1548:	00 c0       	rjmp	.+0      	; 0x154a <_ZN5myLCD11TulisTengahEhPKc+0xb4>
    154a:	00 00       	nop
    154c:	d8 98       	cbi	0x1b, 0	; 27
    154e:	83 2f       	mov	r24, r19
    1550:	80 7f       	andi	r24, 0xF0	; 240
    1552:	22 23       	and	r18, r18
    1554:	09 f4       	brne	.+2      	; 0x1558 <_ZN5myLCD11TulisTengahEhPKc+0xc2>
    1556:	5b c0       	rjmp	.+182    	; 0x160e <_ZN5myLCD11TulisTengahEhPKc+0x178>
    1558:	8c 60       	ori	r24, 0x0C	; 12
    155a:	8b bb       	out	0x1b, r24	; 27
    155c:	55 e0       	ldi	r21, 0x05	; 5
    155e:	5a 95       	dec	r21
    1560:	f1 f7       	brne	.-4      	; 0x155e <_ZN5myLCD11TulisTengahEhPKc+0xc8>
    1562:	00 00       	nop
    1564:	da 98       	cbi	0x1b, 2	; 27
    1566:	8a e1       	ldi	r24, 0x1A	; 26
    1568:	8a 95       	dec	r24
    156a:	f1 f7       	brne	.-4      	; 0x1568 <_ZN5myLCD11TulisTengahEhPKc+0xd2>
    156c:	00 c0       	rjmp	.+0      	; 0x156e <_ZN5myLCD11TulisTengahEhPKc+0xd8>
    156e:	50 e1       	ldi	r21, 0x10	; 16
    1570:	35 9f       	mul	r19, r21
    1572:	c0 01       	movw	r24, r0
    1574:	11 24       	eor	r1, r1
    1576:	21 11       	cpse	r18, r1
    1578:	56 c0       	rjmp	.+172    	; 0x1626 <_ZN5myLCD11TulisTengahEhPKc+0x190>
    157a:	84 60       	ori	r24, 0x04	; 4
    157c:	8b bb       	out	0x1b, r24	; 27
    157e:	85 e0       	ldi	r24, 0x05	; 5
    1580:	8a 95       	dec	r24
    1582:	f1 f7       	brne	.-4      	; 0x1580 <_ZN5myLCD11TulisTengahEhPKc+0xea>
    1584:	00 00       	nop
    1586:	da 98       	cbi	0x1b, 2	; 27
    1588:	8f ee       	ldi	r24, 0xEF	; 239
    158a:	9a e0       	ldi	r25, 0x0A	; 10
    158c:	01 97       	sbiw	r24, 0x01	; 1
    158e:	f1 f7       	brne	.-4      	; 0x158c <_ZN5myLCD11TulisTengahEhPKc+0xf6>
    1590:	00 c0       	rjmp	.+0      	; 0x1592 <_ZN5myLCD11TulisTengahEhPKc+0xfc>
    1592:	00 00       	nop
    1594:	da 9a       	sbi	0x1b, 2	; 27
    1596:	81 91       	ld	r24, Z+
    1598:	d8 9a       	sbi	0x1b, 0	; 27
    159a:	98 2f       	mov	r25, r24
    159c:	90 7f       	andi	r25, 0xF0	; 240
    159e:	22 23       	and	r18, r18
    15a0:	99 f1       	breq	.+102    	; 0x1608 <_ZN5myLCD11TulisTengahEhPKc+0x172>
    15a2:	9d 60       	ori	r25, 0x0D	; 13
    15a4:	9b bb       	out	0x1b, r25	; 27
    15a6:	95 e0       	ldi	r25, 0x05	; 5
    15a8:	9a 95       	dec	r25
    15aa:	f1 f7       	brne	.-4      	; 0x15a8 <_ZN5myLCD11TulisTengahEhPKc+0x112>
    15ac:	00 00       	nop
    15ae:	da 98       	cbi	0x1b, 2	; 27
    15b0:	5a e1       	ldi	r21, 0x1A	; 26
    15b2:	5a 95       	dec	r21
    15b4:	f1 f7       	brne	.-4      	; 0x15b2 <_ZN5myLCD11TulisTengahEhPKc+0x11c>
    15b6:	00 c0       	rjmp	.+0      	; 0x15b8 <_ZN5myLCD11TulisTengahEhPKc+0x122>
    15b8:	50 e1       	ldi	r21, 0x10	; 16
    15ba:	85 9f       	mul	r24, r21
    15bc:	c0 01       	movw	r24, r0
    15be:	11 24       	eor	r1, r1
    15c0:	21 11       	cpse	r18, r1
    15c2:	2e c0       	rjmp	.+92     	; 0x1620 <_ZN5myLCD11TulisTengahEhPKc+0x18a>
    15c4:	85 60       	ori	r24, 0x05	; 5
    15c6:	8b bb       	out	0x1b, r24	; 27
    15c8:	85 e0       	ldi	r24, 0x05	; 5
    15ca:	8a 95       	dec	r24
    15cc:	f1 f7       	brne	.-4      	; 0x15ca <_ZN5myLCD11TulisTengahEhPKc+0x134>
    15ce:	00 00       	nop
    15d0:	da 98       	cbi	0x1b, 2	; 27
    15d2:	95 ed       	ldi	r25, 0xD5	; 213
    15d4:	9a 95       	dec	r25
    15d6:	f1 f7       	brne	.-4      	; 0x15d4 <_ZN5myLCD11TulisTengahEhPKc+0x13e>
    15d8:	00 00       	nop
    15da:	da 9a       	sbi	0x1b, 2	; 27
    15dc:	5f e7       	ldi	r21, 0x7F	; 127
    15de:	88 e3       	ldi	r24, 0x38	; 56
    15e0:	91 e0       	ldi	r25, 0x01	; 1
    15e2:	51 50       	subi	r21, 0x01	; 1
    15e4:	80 40       	sbci	r24, 0x00	; 0
    15e6:	90 40       	sbci	r25, 0x00	; 0
    15e8:	e1 f7       	brne	.-8      	; 0x15e2 <_ZN5myLCD11TulisTengahEhPKc+0x14c>
    15ea:	00 c0       	rjmp	.+0      	; 0x15ec <_ZN5myLCD11TulisTengahEhPKc+0x156>
    15ec:	00 00       	nop
    15ee:	41 50       	subi	r20, 0x01	; 1
    15f0:	3f 5f       	subi	r19, 0xFF	; 255
    15f2:	61 50       	subi	r22, 0x01	; 1
    15f4:	4f 3f       	cpi	r20, 0xFF	; 255
    15f6:	e9 f0       	breq	.+58     	; 0x1632 <_ZN5myLCD11TulisTengahEhPKc+0x19c>
    15f8:	d8 98       	cbi	0x1b, 0	; 27
    15fa:	86 2f       	mov	r24, r22
    15fc:	80 7f       	andi	r24, 0xF0	; 240
    15fe:	21 11       	cpse	r18, r1
    1600:	59 cf       	rjmp	.-334    	; 0x14b4 <_ZN5myLCD11TulisTengahEhPKc+0x1e>
    1602:	84 60       	ori	r24, 0x04	; 4
    1604:	8b bb       	out	0x1b, r24	; 27
    1606:	58 cf       	rjmp	.-336    	; 0x14b8 <_ZN5myLCD11TulisTengahEhPKc+0x22>
    1608:	95 60       	ori	r25, 0x05	; 5
    160a:	9b bb       	out	0x1b, r25	; 27
    160c:	cc cf       	rjmp	.-104    	; 0x15a6 <_ZN5myLCD11TulisTengahEhPKc+0x110>
    160e:	84 60       	ori	r24, 0x04	; 4
    1610:	8b bb       	out	0x1b, r24	; 27
    1612:	a4 cf       	rjmp	.-184    	; 0x155c <_ZN5myLCD11TulisTengahEhPKc+0xc6>
    1614:	95 60       	ori	r25, 0x05	; 5
    1616:	9b bb       	out	0x1b, r25	; 27
    1618:	75 cf       	rjmp	.-278    	; 0x1504 <_ZN5myLCD11TulisTengahEhPKc+0x6e>
    161a:	8c 60       	ori	r24, 0x0C	; 12
    161c:	8b bb       	out	0x1b, r24	; 27
    161e:	5d cf       	rjmp	.-326    	; 0x14da <_ZN5myLCD11TulisTengahEhPKc+0x44>
    1620:	8d 60       	ori	r24, 0x0D	; 13
    1622:	8b bb       	out	0x1b, r24	; 27
    1624:	d1 cf       	rjmp	.-94     	; 0x15c8 <_ZN5myLCD11TulisTengahEhPKc+0x132>
    1626:	8c 60       	ori	r24, 0x0C	; 12
    1628:	8b bb       	out	0x1b, r24	; 27
    162a:	a9 cf       	rjmp	.-174    	; 0x157e <_ZN5myLCD11TulisTengahEhPKc+0xe8>
    162c:	8d 60       	ori	r24, 0x0D	; 13
    162e:	8b bb       	out	0x1b, r24	; 27
    1630:	7a cf       	rjmp	.-268    	; 0x1526 <_ZN5myLCD11TulisTengahEhPKc+0x90>
    1632:	08 95       	ret

00001634 <_ZN5myLCD12TulisPinggirEhPKc>:
    1634:	62 95       	swap	r22
    1636:	66 0f       	add	r22, r22
    1638:	66 0f       	add	r22, r22
    163a:	60 7c       	andi	r22, 0xC0	; 192
    163c:	60 58       	subi	r22, 0x80	; 128
    163e:	da 01       	movw	r26, r20
    1640:	50 96       	adiw	r26, 0x10	; 16
    1642:	fa 01       	movw	r30, r20
    1644:	3f e0       	ldi	r19, 0x0F	; 15
    1646:	36 0f       	add	r19, r22
    1648:	48 e0       	ldi	r20, 0x08	; 8
    164a:	22 2d       	mov	r18, r2
    164c:	21 70       	andi	r18, 0x01	; 1
    164e:	a2 c0       	rjmp	.+324    	; 0x1794 <_ZN5myLCD12TulisPinggirEhPKc+0x160>
    1650:	8c 60       	ori	r24, 0x0C	; 12
    1652:	8b bb       	out	0x1b, r24	; 27
    1654:	55 e0       	ldi	r21, 0x05	; 5
    1656:	5a 95       	dec	r21
    1658:	f1 f7       	brne	.-4      	; 0x1656 <_ZN5myLCD12TulisPinggirEhPKc+0x22>
    165a:	00 00       	nop
    165c:	da 98       	cbi	0x1b, 2	; 27
    165e:	8a e1       	ldi	r24, 0x1A	; 26
    1660:	8a 95       	dec	r24
    1662:	f1 f7       	brne	.-4      	; 0x1660 <_ZN5myLCD12TulisPinggirEhPKc+0x2c>
    1664:	00 c0       	rjmp	.+0      	; 0x1666 <_ZN5myLCD12TulisPinggirEhPKc+0x32>
    1666:	50 e1       	ldi	r21, 0x10	; 16
    1668:	65 9f       	mul	r22, r21
    166a:	c0 01       	movw	r24, r0
    166c:	11 24       	eor	r1, r1
    166e:	21 11       	cpse	r18, r1
    1670:	a2 c0       	rjmp	.+324    	; 0x17b6 <_ZN5myLCD12TulisPinggirEhPKc+0x182>
    1672:	84 60       	ori	r24, 0x04	; 4
    1674:	8b bb       	out	0x1b, r24	; 27
    1676:	85 e0       	ldi	r24, 0x05	; 5
    1678:	8a 95       	dec	r24
    167a:	f1 f7       	brne	.-4      	; 0x1678 <_ZN5myLCD12TulisPinggirEhPKc+0x44>
    167c:	00 00       	nop
    167e:	da 98       	cbi	0x1b, 2	; 27
    1680:	8f ee       	ldi	r24, 0xEF	; 239
    1682:	9a e0       	ldi	r25, 0x0A	; 10
    1684:	01 97       	sbiw	r24, 0x01	; 1
    1686:	f1 f7       	brne	.-4      	; 0x1684 <_ZN5myLCD12TulisPinggirEhPKc+0x50>
    1688:	00 c0       	rjmp	.+0      	; 0x168a <_ZN5myLCD12TulisPinggirEhPKc+0x56>
    168a:	00 00       	nop
    168c:	da 9a       	sbi	0x1b, 2	; 27
    168e:	81 91       	ld	r24, Z+
    1690:	d8 9a       	sbi	0x1b, 0	; 27
    1692:	98 2f       	mov	r25, r24
    1694:	90 7f       	andi	r25, 0xF0	; 240
    1696:	22 23       	and	r18, r18
    1698:	09 f4       	brne	.+2      	; 0x169c <_ZN5myLCD12TulisPinggirEhPKc+0x68>
    169a:	8a c0       	rjmp	.+276    	; 0x17b0 <_ZN5myLCD12TulisPinggirEhPKc+0x17c>
    169c:	9d 60       	ori	r25, 0x0D	; 13
    169e:	9b bb       	out	0x1b, r25	; 27
    16a0:	95 e0       	ldi	r25, 0x05	; 5
    16a2:	9a 95       	dec	r25
    16a4:	f1 f7       	brne	.-4      	; 0x16a2 <_ZN5myLCD12TulisPinggirEhPKc+0x6e>
    16a6:	00 00       	nop
    16a8:	da 98       	cbi	0x1b, 2	; 27
    16aa:	5a e1       	ldi	r21, 0x1A	; 26
    16ac:	5a 95       	dec	r21
    16ae:	f1 f7       	brne	.-4      	; 0x16ac <_ZN5myLCD12TulisPinggirEhPKc+0x78>
    16b0:	00 c0       	rjmp	.+0      	; 0x16b2 <_ZN5myLCD12TulisPinggirEhPKc+0x7e>
    16b2:	50 e1       	ldi	r21, 0x10	; 16
    16b4:	85 9f       	mul	r24, r21
    16b6:	c0 01       	movw	r24, r0
    16b8:	11 24       	eor	r1, r1
    16ba:	21 11       	cpse	r18, r1
    16bc:	85 c0       	rjmp	.+266    	; 0x17c8 <_ZN5myLCD12TulisPinggirEhPKc+0x194>
    16be:	85 60       	ori	r24, 0x05	; 5
    16c0:	8b bb       	out	0x1b, r24	; 27
    16c2:	85 e0       	ldi	r24, 0x05	; 5
    16c4:	8a 95       	dec	r24
    16c6:	f1 f7       	brne	.-4      	; 0x16c4 <_ZN5myLCD12TulisPinggirEhPKc+0x90>
    16c8:	00 00       	nop
    16ca:	da 98       	cbi	0x1b, 2	; 27
    16cc:	95 ed       	ldi	r25, 0xD5	; 213
    16ce:	9a 95       	dec	r25
    16d0:	f1 f7       	brne	.-4      	; 0x16ce <_ZN5myLCD12TulisPinggirEhPKc+0x9a>
    16d2:	00 00       	nop
    16d4:	da 9a       	sbi	0x1b, 2	; 27
    16d6:	5f e7       	ldi	r21, 0x7F	; 127
    16d8:	88 e3       	ldi	r24, 0x38	; 56
    16da:	91 e0       	ldi	r25, 0x01	; 1
    16dc:	51 50       	subi	r21, 0x01	; 1
    16de:	80 40       	sbci	r24, 0x00	; 0
    16e0:	90 40       	sbci	r25, 0x00	; 0
    16e2:	e1 f7       	brne	.-8      	; 0x16dc <_ZN5myLCD12TulisPinggirEhPKc+0xa8>
    16e4:	00 c0       	rjmp	.+0      	; 0x16e6 <_ZN5myLCD12TulisPinggirEhPKc+0xb2>
    16e6:	00 00       	nop
    16e8:	d8 98       	cbi	0x1b, 0	; 27
    16ea:	83 2f       	mov	r24, r19
    16ec:	80 7f       	andi	r24, 0xF0	; 240
    16ee:	22 23       	and	r18, r18
    16f0:	09 f4       	brne	.+2      	; 0x16f4 <_ZN5myLCD12TulisPinggirEhPKc+0xc0>
    16f2:	5b c0       	rjmp	.+182    	; 0x17aa <_ZN5myLCD12TulisPinggirEhPKc+0x176>
    16f4:	8c 60       	ori	r24, 0x0C	; 12
    16f6:	8b bb       	out	0x1b, r24	; 27
    16f8:	55 e0       	ldi	r21, 0x05	; 5
    16fa:	5a 95       	dec	r21
    16fc:	f1 f7       	brne	.-4      	; 0x16fa <_ZN5myLCD12TulisPinggirEhPKc+0xc6>
    16fe:	00 00       	nop
    1700:	da 98       	cbi	0x1b, 2	; 27
    1702:	8a e1       	ldi	r24, 0x1A	; 26
    1704:	8a 95       	dec	r24
    1706:	f1 f7       	brne	.-4      	; 0x1704 <_ZN5myLCD12TulisPinggirEhPKc+0xd0>
    1708:	00 c0       	rjmp	.+0      	; 0x170a <_ZN5myLCD12TulisPinggirEhPKc+0xd6>
    170a:	50 e1       	ldi	r21, 0x10	; 16
    170c:	35 9f       	mul	r19, r21
    170e:	c0 01       	movw	r24, r0
    1710:	11 24       	eor	r1, r1
    1712:	21 11       	cpse	r18, r1
    1714:	56 c0       	rjmp	.+172    	; 0x17c2 <_ZN5myLCD12TulisPinggirEhPKc+0x18e>
    1716:	84 60       	ori	r24, 0x04	; 4
    1718:	8b bb       	out	0x1b, r24	; 27
    171a:	85 e0       	ldi	r24, 0x05	; 5
    171c:	8a 95       	dec	r24
    171e:	f1 f7       	brne	.-4      	; 0x171c <_ZN5myLCD12TulisPinggirEhPKc+0xe8>
    1720:	00 00       	nop
    1722:	da 98       	cbi	0x1b, 2	; 27
    1724:	8f ee       	ldi	r24, 0xEF	; 239
    1726:	9a e0       	ldi	r25, 0x0A	; 10
    1728:	01 97       	sbiw	r24, 0x01	; 1
    172a:	f1 f7       	brne	.-4      	; 0x1728 <_ZN5myLCD12TulisPinggirEhPKc+0xf4>
    172c:	00 c0       	rjmp	.+0      	; 0x172e <_ZN5myLCD12TulisPinggirEhPKc+0xfa>
    172e:	00 00       	nop
    1730:	da 9a       	sbi	0x1b, 2	; 27
    1732:	8e 91       	ld	r24, -X
    1734:	d8 9a       	sbi	0x1b, 0	; 27
    1736:	98 2f       	mov	r25, r24
    1738:	90 7f       	andi	r25, 0xF0	; 240
    173a:	22 23       	and	r18, r18
    173c:	99 f1       	breq	.+102    	; 0x17a4 <_ZN5myLCD12TulisPinggirEhPKc+0x170>
    173e:	9d 60       	ori	r25, 0x0D	; 13
    1740:	9b bb       	out	0x1b, r25	; 27
    1742:	95 e0       	ldi	r25, 0x05	; 5
    1744:	9a 95       	dec	r25
    1746:	f1 f7       	brne	.-4      	; 0x1744 <_ZN5myLCD12TulisPinggirEhPKc+0x110>
    1748:	00 00       	nop
    174a:	da 98       	cbi	0x1b, 2	; 27
    174c:	5a e1       	ldi	r21, 0x1A	; 26
    174e:	5a 95       	dec	r21
    1750:	f1 f7       	brne	.-4      	; 0x174e <_ZN5myLCD12TulisPinggirEhPKc+0x11a>
    1752:	00 c0       	rjmp	.+0      	; 0x1754 <_ZN5myLCD12TulisPinggirEhPKc+0x120>
    1754:	50 e1       	ldi	r21, 0x10	; 16
    1756:	85 9f       	mul	r24, r21
    1758:	c0 01       	movw	r24, r0
    175a:	11 24       	eor	r1, r1
    175c:	21 11       	cpse	r18, r1
    175e:	2e c0       	rjmp	.+92     	; 0x17bc <_ZN5myLCD12TulisPinggirEhPKc+0x188>
    1760:	85 60       	ori	r24, 0x05	; 5
    1762:	8b bb       	out	0x1b, r24	; 27
    1764:	85 e0       	ldi	r24, 0x05	; 5
    1766:	8a 95       	dec	r24
    1768:	f1 f7       	brne	.-4      	; 0x1766 <_ZN5myLCD12TulisPinggirEhPKc+0x132>
    176a:	00 00       	nop
    176c:	da 98       	cbi	0x1b, 2	; 27
    176e:	95 ed       	ldi	r25, 0xD5	; 213
    1770:	9a 95       	dec	r25
    1772:	f1 f7       	brne	.-4      	; 0x1770 <_ZN5myLCD12TulisPinggirEhPKc+0x13c>
    1774:	00 00       	nop
    1776:	da 9a       	sbi	0x1b, 2	; 27
    1778:	5f e7       	ldi	r21, 0x7F	; 127
    177a:	88 e3       	ldi	r24, 0x38	; 56
    177c:	91 e0       	ldi	r25, 0x01	; 1
    177e:	51 50       	subi	r21, 0x01	; 1
    1780:	80 40       	sbci	r24, 0x00	; 0
    1782:	90 40       	sbci	r25, 0x00	; 0
    1784:	e1 f7       	brne	.-8      	; 0x177e <_ZN5myLCD12TulisPinggirEhPKc+0x14a>
    1786:	00 c0       	rjmp	.+0      	; 0x1788 <_ZN5myLCD12TulisPinggirEhPKc+0x154>
    1788:	00 00       	nop
    178a:	41 50       	subi	r20, 0x01	; 1
    178c:	31 50       	subi	r19, 0x01	; 1
    178e:	6f 5f       	subi	r22, 0xFF	; 255
    1790:	44 23       	and	r20, r20
    1792:	e9 f0       	breq	.+58     	; 0x17ce <_ZN5myLCD12TulisPinggirEhPKc+0x19a>
    1794:	d8 98       	cbi	0x1b, 0	; 27
    1796:	86 2f       	mov	r24, r22
    1798:	80 7f       	andi	r24, 0xF0	; 240
    179a:	21 11       	cpse	r18, r1
    179c:	59 cf       	rjmp	.-334    	; 0x1650 <_ZN5myLCD12TulisPinggirEhPKc+0x1c>
    179e:	84 60       	ori	r24, 0x04	; 4
    17a0:	8b bb       	out	0x1b, r24	; 27
    17a2:	58 cf       	rjmp	.-336    	; 0x1654 <_ZN5myLCD12TulisPinggirEhPKc+0x20>
    17a4:	95 60       	ori	r25, 0x05	; 5
    17a6:	9b bb       	out	0x1b, r25	; 27
    17a8:	cc cf       	rjmp	.-104    	; 0x1742 <_ZN5myLCD12TulisPinggirEhPKc+0x10e>
    17aa:	84 60       	ori	r24, 0x04	; 4
    17ac:	8b bb       	out	0x1b, r24	; 27
    17ae:	a4 cf       	rjmp	.-184    	; 0x16f8 <_ZN5myLCD12TulisPinggirEhPKc+0xc4>
    17b0:	95 60       	ori	r25, 0x05	; 5
    17b2:	9b bb       	out	0x1b, r25	; 27
    17b4:	75 cf       	rjmp	.-278    	; 0x16a0 <_ZN5myLCD12TulisPinggirEhPKc+0x6c>
    17b6:	8c 60       	ori	r24, 0x0C	; 12
    17b8:	8b bb       	out	0x1b, r24	; 27
    17ba:	5d cf       	rjmp	.-326    	; 0x1676 <_ZN5myLCD12TulisPinggirEhPKc+0x42>
    17bc:	8d 60       	ori	r24, 0x0D	; 13
    17be:	8b bb       	out	0x1b, r24	; 27
    17c0:	d1 cf       	rjmp	.-94     	; 0x1764 <_ZN5myLCD12TulisPinggirEhPKc+0x130>
    17c2:	8c 60       	ori	r24, 0x0C	; 12
    17c4:	8b bb       	out	0x1b, r24	; 27
    17c6:	a9 cf       	rjmp	.-174    	; 0x171a <_ZN5myLCD12TulisPinggirEhPKc+0xe6>
    17c8:	8d 60       	ori	r24, 0x0D	; 13
    17ca:	8b bb       	out	0x1b, r24	; 27
    17cc:	7a cf       	rjmp	.-268    	; 0x16c2 <_ZN5myLCD12TulisPinggirEhPKc+0x8e>
    17ce:	08 95       	ret

000017d0 <_ZN13mySensorGaris21TungguTombolKalibrasiEhh>:
    17d0:	9b 9b       	sbis	0x13, 3	; 19
    17d2:	02 c0       	rjmp	.+4      	; 0x17d8 <_ZN13mySensorGaris21TungguTombolKalibrasiEhh+0x8>
    17d4:	98 99       	sbic	0x13, 0	; 19
    17d6:	fc cf       	rjmp	.-8      	; 0x17d0 <_ZN13mySensorGaris21TungguTombolKalibrasiEhh>
    17d8:	9b 99       	sbic	0x13, 3	; 19
    17da:	09 c0       	rjmp	.+18     	; 0x17ee <_ZN13mySensorGaris21TungguTombolKalibrasiEhh+0x1e>
    17dc:	64 2b       	or	r22, r20
    17de:	80 91 9b 00 	lds	r24, 0x009B
    17e2:	85 ff       	sbrs	r24, 5
    17e4:	fc cf       	rjmp	.-8      	; 0x17de <_ZN13mySensorGaris21TungguTombolKalibrasiEhh+0xe>
    17e6:	60 93 9c 00 	sts	0x009C, r22
    17ea:	81 e0       	ldi	r24, 0x01	; 1
    17ec:	08 95       	ret
    17ee:	80 91 9b 00 	lds	r24, 0x009B
    17f2:	85 ff       	sbrs	r24, 5
    17f4:	fc cf       	rjmp	.-8      	; 0x17ee <_ZN13mySensorGaris21TungguTombolKalibrasiEhh+0x1e>
    17f6:	10 92 9c 00 	sts	0x009C, r1
    17fa:	80 e0       	ldi	r24, 0x00	; 0
    17fc:	08 95       	ret

000017fe <_ZN13mySensorGaris22PesanKalibrasiBerhasilEv>:
    17fe:	d8 98       	cbi	0x1b, 0	; 27
    1800:	20 fe       	sbrs	r2, 0
    1802:	09 c1       	rjmp	.+530    	; 0x1a16 <_ZN13mySensorGaris22PesanKalibrasiBerhasilEv+0x218>
    1804:	8c e0       	ldi	r24, 0x0C	; 12
    1806:	8b bb       	out	0x1b, r24	; 27
    1808:	25 e0       	ldi	r18, 0x05	; 5
    180a:	2a 95       	dec	r18
    180c:	f1 f7       	brne	.-4      	; 0x180a <_ZN13mySensorGaris22PesanKalibrasiBerhasilEv+0xc>
    180e:	00 00       	nop
    1810:	da 98       	cbi	0x1b, 2	; 27
    1812:	8a e1       	ldi	r24, 0x1A	; 26
    1814:	8a 95       	dec	r24
    1816:	f1 f7       	brne	.-4      	; 0x1814 <_ZN13mySensorGaris22PesanKalibrasiBerhasilEv+0x16>
    1818:	00 c0       	rjmp	.+0      	; 0x181a <_ZN13mySensorGaris22PesanKalibrasiBerhasilEv+0x1c>
    181a:	20 fc       	sbrc	r2, 0
    181c:	ff c0       	rjmp	.+510    	; 0x1a1c <_ZN13mySensorGaris22PesanKalibrasiBerhasilEv+0x21e>
    181e:	84 e1       	ldi	r24, 0x14	; 20
    1820:	8b bb       	out	0x1b, r24	; 27
    1822:	95 e0       	ldi	r25, 0x05	; 5
    1824:	9a 95       	dec	r25
    1826:	f1 f7       	brne	.-4      	; 0x1824 <_ZN13mySensorGaris22PesanKalibrasiBerhasilEv+0x26>
    1828:	00 00       	nop
    182a:	da 98       	cbi	0x1b, 2	; 27
    182c:	8f ee       	ldi	r24, 0xEF	; 239
    182e:	9a e0       	ldi	r25, 0x0A	; 10
    1830:	01 97       	sbiw	r24, 0x01	; 1
    1832:	f1 f7       	brne	.-4      	; 0x1830 <_ZN13mySensorGaris22PesanKalibrasiBerhasilEv+0x32>
    1834:	00 c0       	rjmp	.+0      	; 0x1836 <_ZN13mySensorGaris22PesanKalibrasiBerhasilEv+0x38>
    1836:	00 00       	nop
    1838:	da 9a       	sbi	0x1b, 2	; 27
    183a:	8f e3       	ldi	r24, 0x3F	; 63
    183c:	9f e1       	ldi	r25, 0x1F	; 31
    183e:	01 97       	sbiw	r24, 0x01	; 1
    1840:	f1 f7       	brne	.-4      	; 0x183e <_ZN13mySensorGaris22PesanKalibrasiBerhasilEv+0x40>
    1842:	00 c0       	rjmp	.+0      	; 0x1844 <_ZN13mySensorGaris22PesanKalibrasiBerhasilEv+0x46>
    1844:	00 00       	nop
    1846:	d8 98       	cbi	0x1b, 0	; 27
    1848:	20 fe       	sbrs	r2, 0
    184a:	e2 c0       	rjmp	.+452    	; 0x1a10 <_ZN13mySensorGaris22PesanKalibrasiBerhasilEv+0x212>
    184c:	8c e8       	ldi	r24, 0x8C	; 140
    184e:	8b bb       	out	0x1b, r24	; 27
    1850:	95 e0       	ldi	r25, 0x05	; 5
    1852:	9a 95       	dec	r25
    1854:	f1 f7       	brne	.-4      	; 0x1852 <_ZN13mySensorGaris22PesanKalibrasiBerhasilEv+0x54>
    1856:	00 00       	nop
    1858:	da 98       	cbi	0x1b, 2	; 27
    185a:	2a e1       	ldi	r18, 0x1A	; 26
    185c:	2a 95       	dec	r18
    185e:	f1 f7       	brne	.-4      	; 0x185c <_ZN13mySensorGaris22PesanKalibrasiBerhasilEv+0x5e>
    1860:	00 c0       	rjmp	.+0      	; 0x1862 <_ZN13mySensorGaris22PesanKalibrasiBerhasilEv+0x64>
    1862:	20 fc       	sbrc	r2, 0
    1864:	e1 c0       	rjmp	.+450    	; 0x1a28 <_ZN13mySensorGaris22PesanKalibrasiBerhasilEv+0x22a>
    1866:	84 e0       	ldi	r24, 0x04	; 4
    1868:	8b bb       	out	0x1b, r24	; 27
    186a:	85 e0       	ldi	r24, 0x05	; 5
    186c:	8a 95       	dec	r24
    186e:	f1 f7       	brne	.-4      	; 0x186c <_ZN13mySensorGaris22PesanKalibrasiBerhasilEv+0x6e>
    1870:	00 00       	nop
    1872:	da 98       	cbi	0x1b, 2	; 27
    1874:	8f ee       	ldi	r24, 0xEF	; 239
    1876:	9a e0       	ldi	r25, 0x0A	; 10
    1878:	01 97       	sbiw	r24, 0x01	; 1
    187a:	f1 f7       	brne	.-4      	; 0x1878 <_ZN13mySensorGaris22PesanKalibrasiBerhasilEv+0x7a>
    187c:	00 c0       	rjmp	.+0      	; 0x187e <_ZN13mySensorGaris22PesanKalibrasiBerhasilEv+0x80>
    187e:	00 00       	nop
    1880:	da 9a       	sbi	0x1b, 2	; 27
    1882:	e5 e2       	ldi	r30, 0x25	; 37
    1884:	f1 e0       	ldi	r31, 0x01	; 1
    1886:	8b e4       	ldi	r24, 0x4B	; 75
    1888:	20 fe       	sbrs	r2, 0
    188a:	70 c0       	rjmp	.+224    	; 0x196c <_ZN13mySensorGaris22PesanKalibrasiBerhasilEv+0x16e>
    188c:	d8 9a       	sbi	0x1b, 0	; 27
    188e:	98 2f       	mov	r25, r24
    1890:	90 7f       	andi	r25, 0xF0	; 240
    1892:	9d 60       	ori	r25, 0x0D	; 13
    1894:	9b bb       	out	0x1b, r25	; 27
    1896:	95 e0       	ldi	r25, 0x05	; 5
    1898:	9a 95       	dec	r25
    189a:	f1 f7       	brne	.-4      	; 0x1898 <_ZN13mySensorGaris22PesanKalibrasiBerhasilEv+0x9a>
    189c:	00 00       	nop
    189e:	da 98       	cbi	0x1b, 2	; 27
    18a0:	2a e1       	ldi	r18, 0x1A	; 26
    18a2:	2a 95       	dec	r18
    18a4:	f1 f7       	brne	.-4      	; 0x18a2 <_ZN13mySensorGaris22PesanKalibrasiBerhasilEv+0xa4>
    18a6:	00 c0       	rjmp	.+0      	; 0x18a8 <_ZN13mySensorGaris22PesanKalibrasiBerhasilEv+0xaa>
    18a8:	20 e1       	ldi	r18, 0x10	; 16
    18aa:	82 9f       	mul	r24, r18
    18ac:	c0 01       	movw	r24, r0
    18ae:	11 24       	eor	r1, r1
    18b0:	8d 60       	ori	r24, 0x0D	; 13
    18b2:	8b bb       	out	0x1b, r24	; 27
    18b4:	85 e0       	ldi	r24, 0x05	; 5
    18b6:	8a 95       	dec	r24
    18b8:	f1 f7       	brne	.-4      	; 0x18b6 <_ZN13mySensorGaris22PesanKalibrasiBerhasilEv+0xb8>
    18ba:	00 00       	nop
    18bc:	da 98       	cbi	0x1b, 2	; 27
    18be:	95 ed       	ldi	r25, 0xD5	; 213
    18c0:	9a 95       	dec	r25
    18c2:	f1 f7       	brne	.-4      	; 0x18c0 <_ZN13mySensorGaris22PesanKalibrasiBerhasilEv+0xc2>
    18c4:	00 00       	nop
    18c6:	da 9a       	sbi	0x1b, 2	; 27
    18c8:	81 91       	ld	r24, Z+
    18ca:	81 11       	cpse	r24, r1
    18cc:	df cf       	rjmp	.-66     	; 0x188c <_ZN13mySensorGaris22PesanKalibrasiBerhasilEv+0x8e>
    18ce:	d8 98       	cbi	0x1b, 0	; 27
    18d0:	20 fe       	sbrs	r2, 0
    18d2:	9b c0       	rjmp	.+310    	; 0x1a0a <_ZN13mySensorGaris22PesanKalibrasiBerhasilEv+0x20c>
    18d4:	8c ec       	ldi	r24, 0xCC	; 204
    18d6:	8b bb       	out	0x1b, r24	; 27
    18d8:	25 e0       	ldi	r18, 0x05	; 5
    18da:	2a 95       	dec	r18
    18dc:	f1 f7       	brne	.-4      	; 0x18da <_ZN13mySensorGaris22PesanKalibrasiBerhasilEv+0xdc>
    18de:	00 00       	nop
    18e0:	da 98       	cbi	0x1b, 2	; 27
    18e2:	8a e1       	ldi	r24, 0x1A	; 26
    18e4:	8a 95       	dec	r24
    18e6:	f1 f7       	brne	.-4      	; 0x18e4 <_ZN13mySensorGaris22PesanKalibrasiBerhasilEv+0xe6>
    18e8:	00 c0       	rjmp	.+0      	; 0x18ea <_ZN13mySensorGaris22PesanKalibrasiBerhasilEv+0xec>
    18ea:	20 fc       	sbrc	r2, 0
    18ec:	9a c0       	rjmp	.+308    	; 0x1a22 <_ZN13mySensorGaris22PesanKalibrasiBerhasilEv+0x224>
    18ee:	84 e0       	ldi	r24, 0x04	; 4
    18f0:	8b bb       	out	0x1b, r24	; 27
    18f2:	95 e0       	ldi	r25, 0x05	; 5
    18f4:	9a 95       	dec	r25
    18f6:	f1 f7       	brne	.-4      	; 0x18f4 <_ZN13mySensorGaris22PesanKalibrasiBerhasilEv+0xf6>
    18f8:	00 00       	nop
    18fa:	da 98       	cbi	0x1b, 2	; 27
    18fc:	8f ee       	ldi	r24, 0xEF	; 239
    18fe:	9a e0       	ldi	r25, 0x0A	; 10
    1900:	01 97       	sbiw	r24, 0x01	; 1
    1902:	f1 f7       	brne	.-4      	; 0x1900 <_ZN13mySensorGaris22PesanKalibrasiBerhasilEv+0x102>
    1904:	00 c0       	rjmp	.+0      	; 0x1906 <_ZN13mySensorGaris22PesanKalibrasiBerhasilEv+0x108>
    1906:	00 00       	nop
    1908:	da 9a       	sbi	0x1b, 2	; 27
    190a:	e5 e3       	ldi	r30, 0x35	; 53
    190c:	f1 e0       	ldi	r31, 0x01	; 1
    190e:	20 fc       	sbrc	r2, 0
    1910:	4f c0       	rjmp	.+158    	; 0x19b0 <_ZN13mySensorGaris22PesanKalibrasiBerhasilEv+0x1b2>
    1912:	81 91       	ld	r24, Z+
    1914:	d8 9a       	sbi	0x1b, 0	; 27
    1916:	98 2f       	mov	r25, r24
    1918:	90 7f       	andi	r25, 0xF0	; 240
    191a:	95 60       	ori	r25, 0x05	; 5
    191c:	9b bb       	out	0x1b, r25	; 27
    191e:	95 e0       	ldi	r25, 0x05	; 5
    1920:	9a 95       	dec	r25
    1922:	f1 f7       	brne	.-4      	; 0x1920 <_ZN13mySensorGaris22PesanKalibrasiBerhasilEv+0x122>
    1924:	00 00       	nop
    1926:	da 98       	cbi	0x1b, 2	; 27
    1928:	2a e1       	ldi	r18, 0x1A	; 26
    192a:	2a 95       	dec	r18
    192c:	f1 f7       	brne	.-4      	; 0x192a <_ZN13mySensorGaris22PesanKalibrasiBerhasilEv+0x12c>
    192e:	00 c0       	rjmp	.+0      	; 0x1930 <_ZN13mySensorGaris22PesanKalibrasiBerhasilEv+0x132>
    1930:	20 e1       	ldi	r18, 0x10	; 16
    1932:	82 9f       	mul	r24, r18
    1934:	c0 01       	movw	r24, r0
    1936:	11 24       	eor	r1, r1
    1938:	85 60       	ori	r24, 0x05	; 5
    193a:	8b bb       	out	0x1b, r24	; 27
    193c:	85 e0       	ldi	r24, 0x05	; 5
    193e:	8a 95       	dec	r24
    1940:	f1 f7       	brne	.-4      	; 0x193e <_ZN13mySensorGaris22PesanKalibrasiBerhasilEv+0x140>
    1942:	00 00       	nop
    1944:	da 98       	cbi	0x1b, 2	; 27
    1946:	95 ed       	ldi	r25, 0xD5	; 213
    1948:	9a 95       	dec	r25
    194a:	f1 f7       	brne	.-4      	; 0x1948 <_ZN13mySensorGaris22PesanKalibrasiBerhasilEv+0x14a>
    194c:	00 00       	nop
    194e:	da 9a       	sbi	0x1b, 2	; 27
    1950:	2f e7       	ldi	r18, 0x7F	; 127
    1952:	88 e3       	ldi	r24, 0x38	; 56
    1954:	91 e0       	ldi	r25, 0x01	; 1
    1956:	21 50       	subi	r18, 0x01	; 1
    1958:	80 40       	sbci	r24, 0x00	; 0
    195a:	90 40       	sbci	r25, 0x00	; 0
    195c:	e1 f7       	brne	.-8      	; 0x1956 <_ZN13mySensorGaris22PesanKalibrasiBerhasilEv+0x158>
    195e:	00 c0       	rjmp	.+0      	; 0x1960 <_ZN13mySensorGaris22PesanKalibrasiBerhasilEv+0x162>
    1960:	00 00       	nop
    1962:	21 e0       	ldi	r18, 0x01	; 1
    1964:	e5 34       	cpi	r30, 0x45	; 69
    1966:	f2 07       	cpc	r31, r18
    1968:	a1 f6       	brne	.-88     	; 0x1912 <_ZN13mySensorGaris22PesanKalibrasiBerhasilEv+0x114>
    196a:	08 95       	ret
    196c:	d8 9a       	sbi	0x1b, 0	; 27
    196e:	98 2f       	mov	r25, r24
    1970:	90 7f       	andi	r25, 0xF0	; 240
    1972:	95 60       	ori	r25, 0x05	; 5
    1974:	9b bb       	out	0x1b, r25	; 27
    1976:	95 e0       	ldi	r25, 0x05	; 5
    1978:	9a 95       	dec	r25
    197a:	f1 f7       	brne	.-4      	; 0x1978 <_ZN13mySensorGaris22PesanKalibrasiBerhasilEv+0x17a>
    197c:	00 00       	nop
    197e:	da 98       	cbi	0x1b, 2	; 27
    1980:	2a e1       	ldi	r18, 0x1A	; 26
    1982:	2a 95       	dec	r18
    1984:	f1 f7       	brne	.-4      	; 0x1982 <_ZN13mySensorGaris22PesanKalibrasiBerhasilEv+0x184>
    1986:	00 c0       	rjmp	.+0      	; 0x1988 <_ZN13mySensorGaris22PesanKalibrasiBerhasilEv+0x18a>
    1988:	20 e1       	ldi	r18, 0x10	; 16
    198a:	82 9f       	mul	r24, r18
    198c:	c0 01       	movw	r24, r0
    198e:	11 24       	eor	r1, r1
    1990:	85 60       	ori	r24, 0x05	; 5
    1992:	8b bb       	out	0x1b, r24	; 27
    1994:	85 e0       	ldi	r24, 0x05	; 5
    1996:	8a 95       	dec	r24
    1998:	f1 f7       	brne	.-4      	; 0x1996 <_ZN13mySensorGaris22PesanKalibrasiBerhasilEv+0x198>
    199a:	00 00       	nop
    199c:	da 98       	cbi	0x1b, 2	; 27
    199e:	95 ed       	ldi	r25, 0xD5	; 213
    19a0:	9a 95       	dec	r25
    19a2:	f1 f7       	brne	.-4      	; 0x19a0 <_ZN13mySensorGaris22PesanKalibrasiBerhasilEv+0x1a2>
    19a4:	00 00       	nop
    19a6:	da 9a       	sbi	0x1b, 2	; 27
    19a8:	81 91       	ld	r24, Z+
    19aa:	81 11       	cpse	r24, r1
    19ac:	df cf       	rjmp	.-66     	; 0x196c <_ZN13mySensorGaris22PesanKalibrasiBerhasilEv+0x16e>
    19ae:	8f cf       	rjmp	.-226    	; 0x18ce <_ZN13mySensorGaris22PesanKalibrasiBerhasilEv+0xd0>
    19b0:	81 91       	ld	r24, Z+
    19b2:	d8 9a       	sbi	0x1b, 0	; 27
    19b4:	98 2f       	mov	r25, r24
    19b6:	90 7f       	andi	r25, 0xF0	; 240
    19b8:	9d 60       	ori	r25, 0x0D	; 13
    19ba:	9b bb       	out	0x1b, r25	; 27
    19bc:	25 e0       	ldi	r18, 0x05	; 5
    19be:	2a 95       	dec	r18
    19c0:	f1 f7       	brne	.-4      	; 0x19be <_ZN13mySensorGaris22PesanKalibrasiBerhasilEv+0x1c0>
    19c2:	00 00       	nop
    19c4:	da 98       	cbi	0x1b, 2	; 27
    19c6:	9a e1       	ldi	r25, 0x1A	; 26
    19c8:	9a 95       	dec	r25
    19ca:	f1 f7       	brne	.-4      	; 0x19c8 <_ZN13mySensorGaris22PesanKalibrasiBerhasilEv+0x1ca>
    19cc:	00 c0       	rjmp	.+0      	; 0x19ce <_ZN13mySensorGaris22PesanKalibrasiBerhasilEv+0x1d0>
    19ce:	20 e1       	ldi	r18, 0x10	; 16
    19d0:	82 9f       	mul	r24, r18
    19d2:	c0 01       	movw	r24, r0
    19d4:	11 24       	eor	r1, r1
    19d6:	8d 60       	ori	r24, 0x0D	; 13
    19d8:	8b bb       	out	0x1b, r24	; 27
    19da:	85 e0       	ldi	r24, 0x05	; 5
    19dc:	8a 95       	dec	r24
    19de:	f1 f7       	brne	.-4      	; 0x19dc <_ZN13mySensorGaris22PesanKalibrasiBerhasilEv+0x1de>
    19e0:	00 00       	nop
    19e2:	da 98       	cbi	0x1b, 2	; 27
    19e4:	95 ed       	ldi	r25, 0xD5	; 213
    19e6:	9a 95       	dec	r25
    19e8:	f1 f7       	brne	.-4      	; 0x19e6 <_ZN13mySensorGaris22PesanKalibrasiBerhasilEv+0x1e8>
    19ea:	00 00       	nop
    19ec:	da 9a       	sbi	0x1b, 2	; 27
    19ee:	2f e7       	ldi	r18, 0x7F	; 127
    19f0:	88 e3       	ldi	r24, 0x38	; 56
    19f2:	91 e0       	ldi	r25, 0x01	; 1
    19f4:	21 50       	subi	r18, 0x01	; 1
    19f6:	80 40       	sbci	r24, 0x00	; 0
    19f8:	90 40       	sbci	r25, 0x00	; 0
    19fa:	e1 f7       	brne	.-8      	; 0x19f4 <_ZN13mySensorGaris22PesanKalibrasiBerhasilEv+0x1f6>
    19fc:	00 c0       	rjmp	.+0      	; 0x19fe <_ZN13mySensorGaris22PesanKalibrasiBerhasilEv+0x200>
    19fe:	00 00       	nop
    1a00:	21 e0       	ldi	r18, 0x01	; 1
    1a02:	e5 34       	cpi	r30, 0x45	; 69
    1a04:	f2 07       	cpc	r31, r18
    1a06:	a1 f6       	brne	.-88     	; 0x19b0 <_ZN13mySensorGaris22PesanKalibrasiBerhasilEv+0x1b2>
    1a08:	08 95       	ret
    1a0a:	84 ec       	ldi	r24, 0xC4	; 196
    1a0c:	8b bb       	out	0x1b, r24	; 27
    1a0e:	64 cf       	rjmp	.-312    	; 0x18d8 <_ZN13mySensorGaris22PesanKalibrasiBerhasilEv+0xda>
    1a10:	84 e8       	ldi	r24, 0x84	; 132
    1a12:	8b bb       	out	0x1b, r24	; 27
    1a14:	1d cf       	rjmp	.-454    	; 0x1850 <_ZN13mySensorGaris22PesanKalibrasiBerhasilEv+0x52>
    1a16:	84 e0       	ldi	r24, 0x04	; 4
    1a18:	8b bb       	out	0x1b, r24	; 27
    1a1a:	f6 ce       	rjmp	.-532    	; 0x1808 <_ZN13mySensorGaris22PesanKalibrasiBerhasilEv+0xa>
    1a1c:	8c e1       	ldi	r24, 0x1C	; 28
    1a1e:	8b bb       	out	0x1b, r24	; 27
    1a20:	00 cf       	rjmp	.-512    	; 0x1822 <_ZN13mySensorGaris22PesanKalibrasiBerhasilEv+0x24>
    1a22:	8c e0       	ldi	r24, 0x0C	; 12
    1a24:	8b bb       	out	0x1b, r24	; 27
    1a26:	65 cf       	rjmp	.-310    	; 0x18f2 <_ZN13mySensorGaris22PesanKalibrasiBerhasilEv+0xf4>
    1a28:	8c e0       	ldi	r24, 0x0C	; 12
    1a2a:	8b bb       	out	0x1b, r24	; 27
    1a2c:	1e cf       	rjmp	.-452    	; 0x186a <_ZN13mySensorGaris22PesanKalibrasiBerhasilEv+0x6c>

00001a2e <_ZN13mySensorGaris12KalibrasiRGBEh>:
    1a2e:	0f 93       	push	r16
    1a30:	1f 93       	push	r17
    1a32:	cf 93       	push	r28
    1a34:	df 93       	push	r29
    1a36:	ec 01       	movw	r28, r24
    1a38:	16 2f       	mov	r17, r22
    1a3a:	61 e0       	ldi	r22, 0x01	; 1
    1a3c:	81 e4       	ldi	r24, 0x41	; 65
    1a3e:	92 e0       	ldi	r25, 0x02	; 2
    1a40:	0e 94 0e 03 	call	0x61c	; 0x61c <_ZN5myLCD8PerintahEh>
    1a44:	8f e3       	ldi	r24, 0x3F	; 63
    1a46:	9f e1       	ldi	r25, 0x1F	; 31
    1a48:	01 97       	sbiw	r24, 0x01	; 1
    1a4a:	f1 f7       	brne	.-4      	; 0x1a48 <_ZN13mySensorGaris12KalibrasiRGBEh+0x1a>
    1a4c:	00 c0       	rjmp	.+0      	; 0x1a4e <_ZN13mySensorGaris12KalibrasiRGBEh+0x20>
    1a4e:	00 00       	nop
    1a50:	60 e8       	ldi	r22, 0x80	; 128
    1a52:	81 e4       	ldi	r24, 0x41	; 65
    1a54:	92 e0       	ldi	r25, 0x02	; 2
    1a56:	0e 94 0e 03 	call	0x61c	; 0x61c <_ZN5myLCD8PerintahEh>
    1a5a:	e5 e2       	ldi	r30, 0x25	; 37
    1a5c:	f1 e0       	ldi	r31, 0x01	; 1
    1a5e:	8b e4       	ldi	r24, 0x4B	; 75
    1a60:	20 fc       	sbrc	r2, 0
    1a62:	15 c1       	rjmp	.+554    	; 0x1c8e <_ZN13mySensorGaris12KalibrasiRGBEh+0x260>
    1a64:	d8 9a       	sbi	0x1b, 0	; 27
    1a66:	98 2f       	mov	r25, r24
    1a68:	90 7f       	andi	r25, 0xF0	; 240
    1a6a:	95 60       	ori	r25, 0x05	; 5
    1a6c:	9b bb       	out	0x1b, r25	; 27
    1a6e:	95 e0       	ldi	r25, 0x05	; 5
    1a70:	9a 95       	dec	r25
    1a72:	f1 f7       	brne	.-4      	; 0x1a70 <_ZN13mySensorGaris12KalibrasiRGBEh+0x42>
    1a74:	00 00       	nop
    1a76:	da 98       	cbi	0x1b, 2	; 27
    1a78:	2a e1       	ldi	r18, 0x1A	; 26
    1a7a:	2a 95       	dec	r18
    1a7c:	f1 f7       	brne	.-4      	; 0x1a7a <_ZN13mySensorGaris12KalibrasiRGBEh+0x4c>
    1a7e:	00 c0       	rjmp	.+0      	; 0x1a80 <_ZN13mySensorGaris12KalibrasiRGBEh+0x52>
    1a80:	70 e1       	ldi	r23, 0x10	; 16
    1a82:	87 9f       	mul	r24, r23
    1a84:	c0 01       	movw	r24, r0
    1a86:	11 24       	eor	r1, r1
    1a88:	85 60       	ori	r24, 0x05	; 5
    1a8a:	8b bb       	out	0x1b, r24	; 27
    1a8c:	85 e0       	ldi	r24, 0x05	; 5
    1a8e:	8a 95       	dec	r24
    1a90:	f1 f7       	brne	.-4      	; 0x1a8e <_ZN13mySensorGaris12KalibrasiRGBEh+0x60>
    1a92:	00 00       	nop
    1a94:	da 98       	cbi	0x1b, 2	; 27
    1a96:	95 ed       	ldi	r25, 0xD5	; 213
    1a98:	9a 95       	dec	r25
    1a9a:	f1 f7       	brne	.-4      	; 0x1a98 <_ZN13mySensorGaris12KalibrasiRGBEh+0x6a>
    1a9c:	00 00       	nop
    1a9e:	da 9a       	sbi	0x1b, 2	; 27
    1aa0:	81 91       	ld	r24, Z+
    1aa2:	81 11       	cpse	r24, r1
    1aa4:	df cf       	rjmp	.-66     	; 0x1a64 <_ZN13mySensorGaris12KalibrasiRGBEh+0x36>
    1aa6:	60 ec       	ldi	r22, 0xC0	; 192
    1aa8:	81 e4       	ldi	r24, 0x41	; 65
    1aaa:	92 e0       	ldi	r25, 0x02	; 2
    1aac:	0e 94 0e 03 	call	0x61c	; 0x61c <_ZN5myLCD8PerintahEh>
    1ab0:	ed ea       	ldi	r30, 0xAD	; 173
    1ab2:	f1 e0       	ldi	r31, 0x01	; 1
    1ab4:	8d e4       	ldi	r24, 0x4D	; 77
    1ab6:	20 fc       	sbrc	r2, 0
    1ab8:	0c c1       	rjmp	.+536    	; 0x1cd2 <_ZN13mySensorGaris12KalibrasiRGBEh+0x2a4>
    1aba:	d8 9a       	sbi	0x1b, 0	; 27
    1abc:	98 2f       	mov	r25, r24
    1abe:	90 7f       	andi	r25, 0xF0	; 240
    1ac0:	95 60       	ori	r25, 0x05	; 5
    1ac2:	9b bb       	out	0x1b, r25	; 27
    1ac4:	25 e0       	ldi	r18, 0x05	; 5
    1ac6:	2a 95       	dec	r18
    1ac8:	f1 f7       	brne	.-4      	; 0x1ac6 <_ZN13mySensorGaris12KalibrasiRGBEh+0x98>
    1aca:	00 00       	nop
    1acc:	da 98       	cbi	0x1b, 2	; 27
    1ace:	7a e1       	ldi	r23, 0x1A	; 26
    1ad0:	7a 95       	dec	r23
    1ad2:	f1 f7       	brne	.-4      	; 0x1ad0 <_ZN13mySensorGaris12KalibrasiRGBEh+0xa2>
    1ad4:	00 c0       	rjmp	.+0      	; 0x1ad6 <_ZN13mySensorGaris12KalibrasiRGBEh+0xa8>
    1ad6:	20 e1       	ldi	r18, 0x10	; 16
    1ad8:	82 9f       	mul	r24, r18
    1ada:	c0 01       	movw	r24, r0
    1adc:	11 24       	eor	r1, r1
    1ade:	85 60       	ori	r24, 0x05	; 5
    1ae0:	8b bb       	out	0x1b, r24	; 27
    1ae2:	75 e0       	ldi	r23, 0x05	; 5
    1ae4:	7a 95       	dec	r23
    1ae6:	f1 f7       	brne	.-4      	; 0x1ae4 <_ZN13mySensorGaris12KalibrasiRGBEh+0xb6>
    1ae8:	00 00       	nop
    1aea:	da 98       	cbi	0x1b, 2	; 27
    1aec:	85 ed       	ldi	r24, 0xD5	; 213
    1aee:	8a 95       	dec	r24
    1af0:	f1 f7       	brne	.-4      	; 0x1aee <_ZN13mySensorGaris12KalibrasiRGBEh+0xc0>
    1af2:	00 00       	nop
    1af4:	da 9a       	sbi	0x1b, 2	; 27
    1af6:	81 91       	ld	r24, Z+
    1af8:	81 11       	cpse	r24, r1
    1afa:	df cf       	rjmp	.-66     	; 0x1aba <_ZN13mySensorGaris12KalibrasiRGBEh+0x8c>
    1afc:	8b e1       	ldi	r24, 0x1B	; 27
    1afe:	83 bf       	out	0x33, r24	; 51
    1b00:	12 be       	out	0x32, r1	; 50
    1b02:	83 e5       	ldi	r24, 0x53	; 83
    1b04:	81 bf       	out	0x31, r24	; 49
    1b06:	24 ef       	ldi	r18, 0xF4	; 244
    1b08:	31 e0       	ldi	r19, 0x01	; 1
    1b0a:	ef e9       	ldi	r30, 0x9F	; 159
    1b0c:	ff e0       	ldi	r31, 0x0F	; 15
    1b0e:	31 97       	sbiw	r30, 0x01	; 1
    1b10:	f1 f7       	brne	.-4      	; 0x1b0e <_ZN13mySensorGaris12KalibrasiRGBEh+0xe0>
    1b12:	00 c0       	rjmp	.+0      	; 0x1b14 <_ZN13mySensorGaris12KalibrasiRGBEh+0xe6>
    1b14:	00 00       	nop
    1b16:	21 50       	subi	r18, 0x01	; 1
    1b18:	31 09       	sbc	r19, r1
    1b1a:	21 15       	cp	r18, r1
    1b1c:	31 05       	cpc	r19, r1
    1b1e:	a9 f7       	brne	.-22     	; 0x1b0a <_ZN13mySensorGaris12KalibrasiRGBEh+0xdc>
    1b20:	13 be       	out	0x33, r1	; 51
    1b22:	10 be       	out	0x30, r1	; 48
    1b24:	c4 98       	cbi	0x18, 4	; 24
    1b26:	ff ef       	ldi	r31, 0xFF	; 255
    1b28:	23 ed       	ldi	r18, 0xD3	; 211
    1b2a:	70 e3       	ldi	r23, 0x30	; 48
    1b2c:	f1 50       	subi	r31, 0x01	; 1
    1b2e:	20 40       	sbci	r18, 0x00	; 0
    1b30:	70 40       	sbci	r23, 0x00	; 0
    1b32:	e1 f7       	brne	.-8      	; 0x1b2c <_ZN13mySensorGaris12KalibrasiRGBEh+0xfe>
    1b34:	00 c0       	rjmp	.+0      	; 0x1b36 <_ZN13mySensorGaris12KalibrasiRGBEh+0x108>
    1b36:	00 00       	nop
    1b38:	61 e0       	ldi	r22, 0x01	; 1
    1b3a:	81 e4       	ldi	r24, 0x41	; 65
    1b3c:	92 e0       	ldi	r25, 0x02	; 2
    1b3e:	0e 94 0e 03 	call	0x61c	; 0x61c <_ZN5myLCD8PerintahEh>
    1b42:	8f e3       	ldi	r24, 0x3F	; 63
    1b44:	9f e1       	ldi	r25, 0x1F	; 31
    1b46:	01 97       	sbiw	r24, 0x01	; 1
    1b48:	f1 f7       	brne	.-4      	; 0x1b46 <_ZN13mySensorGaris12KalibrasiRGBEh+0x118>
    1b4a:	00 c0       	rjmp	.+0      	; 0x1b4c <_ZN13mySensorGaris12KalibrasiRGBEh+0x11e>
    1b4c:	00 00       	nop
    1b4e:	01 2f       	mov	r16, r17
    1b50:	00 6f       	ori	r16, 0xF0	; 240
    1b52:	80 91 9b 00 	lds	r24, 0x009B
    1b56:	85 ff       	sbrs	r24, 5
    1b58:	fc cf       	rjmp	.-8      	; 0x1b52 <_ZN13mySensorGaris12KalibrasiRGBEh+0x124>
    1b5a:	00 93 9c 00 	sts	0x009C, r16
    1b5e:	60 e8       	ldi	r22, 0x80	; 128
    1b60:	81 e4       	ldi	r24, 0x41	; 65
    1b62:	92 e0       	ldi	r25, 0x02	; 2
    1b64:	0e 94 0e 03 	call	0x61c	; 0x61c <_ZN5myLCD8PerintahEh>
    1b68:	e8 e6       	ldi	r30, 0x68	; 104
    1b6a:	f1 e0       	ldi	r31, 0x01	; 1
    1b6c:	20 fc       	sbrc	r2, 0
    1b6e:	d3 c0       	rjmp	.+422    	; 0x1d16 <_ZN13mySensorGaris12KalibrasiRGBEh+0x2e8>
    1b70:	81 91       	ld	r24, Z+
    1b72:	d8 9a       	sbi	0x1b, 0	; 27
    1b74:	98 2f       	mov	r25, r24
    1b76:	90 7f       	andi	r25, 0xF0	; 240
    1b78:	95 60       	ori	r25, 0x05	; 5
    1b7a:	9b bb       	out	0x1b, r25	; 27
    1b7c:	95 e0       	ldi	r25, 0x05	; 5
    1b7e:	9a 95       	dec	r25
    1b80:	f1 f7       	brne	.-4      	; 0x1b7e <_ZN13mySensorGaris12KalibrasiRGBEh+0x150>
    1b82:	00 00       	nop
    1b84:	da 98       	cbi	0x1b, 2	; 27
    1b86:	2a e1       	ldi	r18, 0x1A	; 26
    1b88:	2a 95       	dec	r18
    1b8a:	f1 f7       	brne	.-4      	; 0x1b88 <_ZN13mySensorGaris12KalibrasiRGBEh+0x15a>
    1b8c:	00 c0       	rjmp	.+0      	; 0x1b8e <_ZN13mySensorGaris12KalibrasiRGBEh+0x160>
    1b8e:	70 e1       	ldi	r23, 0x10	; 16
    1b90:	87 9f       	mul	r24, r23
    1b92:	c0 01       	movw	r24, r0
    1b94:	11 24       	eor	r1, r1
    1b96:	85 60       	ori	r24, 0x05	; 5
    1b98:	8b bb       	out	0x1b, r24	; 27
    1b9a:	85 e0       	ldi	r24, 0x05	; 5
    1b9c:	8a 95       	dec	r24
    1b9e:	f1 f7       	brne	.-4      	; 0x1b9c <_ZN13mySensorGaris12KalibrasiRGBEh+0x16e>
    1ba0:	00 00       	nop
    1ba2:	da 98       	cbi	0x1b, 2	; 27
    1ba4:	95 ed       	ldi	r25, 0xD5	; 213
    1ba6:	9a 95       	dec	r25
    1ba8:	f1 f7       	brne	.-4      	; 0x1ba6 <_ZN13mySensorGaris12KalibrasiRGBEh+0x178>
    1baa:	00 00       	nop
    1bac:	da 9a       	sbi	0x1b, 2	; 27
    1bae:	2f e7       	ldi	r18, 0x7F	; 127
    1bb0:	78 e3       	ldi	r23, 0x38	; 56
    1bb2:	81 e0       	ldi	r24, 0x01	; 1
    1bb4:	21 50       	subi	r18, 0x01	; 1
    1bb6:	70 40       	sbci	r23, 0x00	; 0
    1bb8:	80 40       	sbci	r24, 0x00	; 0
    1bba:	e1 f7       	brne	.-8      	; 0x1bb4 <_ZN13mySensorGaris12KalibrasiRGBEh+0x186>
    1bbc:	00 c0       	rjmp	.+0      	; 0x1bbe <_ZN13mySensorGaris12KalibrasiRGBEh+0x190>
    1bbe:	00 00       	nop
    1bc0:	91 e0       	ldi	r25, 0x01	; 1
    1bc2:	e8 37       	cpi	r30, 0x78	; 120
    1bc4:	f9 07       	cpc	r31, r25
    1bc6:	a1 f6       	brne	.-88     	; 0x1b70 <_ZN13mySensorGaris12KalibrasiRGBEh+0x142>
    1bc8:	e7 e6       	ldi	r30, 0x67	; 103
    1bca:	f1 e0       	ldi	r31, 0x01	; 1
    1bcc:	2f ec       	ldi	r18, 0xCF	; 207
    1bce:	30 e0       	ldi	r19, 0x00	; 0
    1bd0:	42 2d       	mov	r20, r2
    1bd2:	41 70       	andi	r20, 0x01	; 1
    1bd4:	64 ec       	ldi	r22, 0xC4	; 196
    1bd6:	5c ec       	ldi	r21, 0xCC	; 204
    1bd8:	55 c0       	rjmp	.+170    	; 0x1c84 <_ZN13mySensorGaris12KalibrasiRGBEh+0x256>
    1bda:	5b bb       	out	0x1b, r21	; 27
    1bdc:	75 e0       	ldi	r23, 0x05	; 5
    1bde:	7a 95       	dec	r23
    1be0:	f1 f7       	brne	.-4      	; 0x1bde <_ZN13mySensorGaris12KalibrasiRGBEh+0x1b0>
    1be2:	00 00       	nop
    1be4:	da 98       	cbi	0x1b, 2	; 27
    1be6:	8a e1       	ldi	r24, 0x1A	; 26
    1be8:	8a 95       	dec	r24
    1bea:	f1 f7       	brne	.-4      	; 0x1be8 <_ZN13mySensorGaris12KalibrasiRGBEh+0x1ba>
    1bec:	00 c0       	rjmp	.+0      	; 0x1bee <_ZN13mySensorGaris12KalibrasiRGBEh+0x1c0>
    1bee:	c9 01       	movw	r24, r18
    1bf0:	82 95       	swap	r24
    1bf2:	92 95       	swap	r25
    1bf4:	90 7f       	andi	r25, 0xF0	; 240
    1bf6:	98 27       	eor	r25, r24
    1bf8:	80 7f       	andi	r24, 0xF0	; 240
    1bfa:	98 27       	eor	r25, r24
    1bfc:	41 11       	cpse	r20, r1
    1bfe:	4a c2       	rjmp	.+1172   	; 0x2094 <_ZN13mySensorGaris12KalibrasiRGBEh+0x666>
    1c00:	84 60       	ori	r24, 0x04	; 4
    1c02:	8b bb       	out	0x1b, r24	; 27
    1c04:	95 e0       	ldi	r25, 0x05	; 5
    1c06:	9a 95       	dec	r25
    1c08:	f1 f7       	brne	.-4      	; 0x1c06 <_ZN13mySensorGaris12KalibrasiRGBEh+0x1d8>
    1c0a:	00 00       	nop
    1c0c:	da 98       	cbi	0x1b, 2	; 27
    1c0e:	8f ee       	ldi	r24, 0xEF	; 239
    1c10:	9a e0       	ldi	r25, 0x0A	; 10
    1c12:	01 97       	sbiw	r24, 0x01	; 1
    1c14:	f1 f7       	brne	.-4      	; 0x1c12 <_ZN13mySensorGaris12KalibrasiRGBEh+0x1e4>
    1c16:	00 c0       	rjmp	.+0      	; 0x1c18 <_ZN13mySensorGaris12KalibrasiRGBEh+0x1ea>
    1c18:	00 00       	nop
    1c1a:	da 9a       	sbi	0x1b, 2	; 27
    1c1c:	82 91       	ld	r24, -Z
    1c1e:	d8 9a       	sbi	0x1b, 0	; 27
    1c20:	98 2f       	mov	r25, r24
    1c22:	90 7f       	andi	r25, 0xF0	; 240
    1c24:	44 23       	and	r20, r20
    1c26:	09 f4       	brne	.+2      	; 0x1c2a <_ZN13mySensorGaris12KalibrasiRGBEh+0x1fc>
    1c28:	2f c2       	rjmp	.+1118   	; 0x2088 <_ZN13mySensorGaris12KalibrasiRGBEh+0x65a>
    1c2a:	9d 60       	ori	r25, 0x0D	; 13
    1c2c:	9b bb       	out	0x1b, r25	; 27
    1c2e:	95 e0       	ldi	r25, 0x05	; 5
    1c30:	9a 95       	dec	r25
    1c32:	f1 f7       	brne	.-4      	; 0x1c30 <_ZN13mySensorGaris12KalibrasiRGBEh+0x202>
    1c34:	00 00       	nop
    1c36:	da 98       	cbi	0x1b, 2	; 27
    1c38:	7a e1       	ldi	r23, 0x1A	; 26
    1c3a:	7a 95       	dec	r23
    1c3c:	f1 f7       	brne	.-4      	; 0x1c3a <_ZN13mySensorGaris12KalibrasiRGBEh+0x20c>
    1c3e:	00 c0       	rjmp	.+0      	; 0x1c40 <_ZN13mySensorGaris12KalibrasiRGBEh+0x212>
    1c40:	70 e1       	ldi	r23, 0x10	; 16
    1c42:	87 9f       	mul	r24, r23
    1c44:	c0 01       	movw	r24, r0
    1c46:	11 24       	eor	r1, r1
    1c48:	41 11       	cpse	r20, r1
    1c4a:	21 c2       	rjmp	.+1090   	; 0x208e <_ZN13mySensorGaris12KalibrasiRGBEh+0x660>
    1c4c:	85 60       	ori	r24, 0x05	; 5
    1c4e:	8b bb       	out	0x1b, r24	; 27
    1c50:	85 e0       	ldi	r24, 0x05	; 5
    1c52:	8a 95       	dec	r24
    1c54:	f1 f7       	brne	.-4      	; 0x1c52 <_ZN13mySensorGaris12KalibrasiRGBEh+0x224>
    1c56:	00 00       	nop
    1c58:	da 98       	cbi	0x1b, 2	; 27
    1c5a:	95 ed       	ldi	r25, 0xD5	; 213
    1c5c:	9a 95       	dec	r25
    1c5e:	f1 f7       	brne	.-4      	; 0x1c5c <_ZN13mySensorGaris12KalibrasiRGBEh+0x22e>
    1c60:	00 00       	nop
    1c62:	da 9a       	sbi	0x1b, 2	; 27
    1c64:	7f e7       	ldi	r23, 0x7F	; 127
    1c66:	88 e3       	ldi	r24, 0x38	; 56
    1c68:	91 e0       	ldi	r25, 0x01	; 1
    1c6a:	71 50       	subi	r23, 0x01	; 1
    1c6c:	80 40       	sbci	r24, 0x00	; 0
    1c6e:	90 40       	sbci	r25, 0x00	; 0
    1c70:	e1 f7       	brne	.-8      	; 0x1c6a <_ZN13mySensorGaris12KalibrasiRGBEh+0x23c>
    1c72:	00 c0       	rjmp	.+0      	; 0x1c74 <_ZN13mySensorGaris12KalibrasiRGBEh+0x246>
    1c74:	00 00       	nop
    1c76:	21 50       	subi	r18, 0x01	; 1
    1c78:	31 09       	sbc	r19, r1
    1c7a:	71 e0       	ldi	r23, 0x01	; 1
    1c7c:	e7 35       	cpi	r30, 0x57	; 87
    1c7e:	f7 07       	cpc	r31, r23
    1c80:	09 f4       	brne	.+2      	; 0x1c84 <_ZN13mySensorGaris12KalibrasiRGBEh+0x256>
    1c82:	76 c0       	rjmp	.+236    	; 0x1d70 <_ZN13mySensorGaris12KalibrasiRGBEh+0x342>
    1c84:	d8 98       	cbi	0x1b, 0	; 27
    1c86:	41 11       	cpse	r20, r1
    1c88:	a8 cf       	rjmp	.-176    	; 0x1bda <_ZN13mySensorGaris12KalibrasiRGBEh+0x1ac>
    1c8a:	6b bb       	out	0x1b, r22	; 27
    1c8c:	a7 cf       	rjmp	.-178    	; 0x1bdc <_ZN13mySensorGaris12KalibrasiRGBEh+0x1ae>
    1c8e:	d8 9a       	sbi	0x1b, 0	; 27
    1c90:	98 2f       	mov	r25, r24
    1c92:	90 7f       	andi	r25, 0xF0	; 240
    1c94:	9d 60       	ori	r25, 0x0D	; 13
    1c96:	9b bb       	out	0x1b, r25	; 27
    1c98:	25 e0       	ldi	r18, 0x05	; 5
    1c9a:	2a 95       	dec	r18
    1c9c:	f1 f7       	brne	.-4      	; 0x1c9a <_ZN13mySensorGaris12KalibrasiRGBEh+0x26c>
    1c9e:	00 00       	nop
    1ca0:	da 98       	cbi	0x1b, 2	; 27
    1ca2:	7a e1       	ldi	r23, 0x1A	; 26
    1ca4:	7a 95       	dec	r23
    1ca6:	f1 f7       	brne	.-4      	; 0x1ca4 <_ZN13mySensorGaris12KalibrasiRGBEh+0x276>
    1ca8:	00 c0       	rjmp	.+0      	; 0x1caa <_ZN13mySensorGaris12KalibrasiRGBEh+0x27c>
    1caa:	20 e1       	ldi	r18, 0x10	; 16
    1cac:	82 9f       	mul	r24, r18
    1cae:	c0 01       	movw	r24, r0
    1cb0:	11 24       	eor	r1, r1
    1cb2:	8d 60       	ori	r24, 0x0D	; 13
    1cb4:	8b bb       	out	0x1b, r24	; 27
    1cb6:	75 e0       	ldi	r23, 0x05	; 5
    1cb8:	7a 95       	dec	r23
    1cba:	f1 f7       	brne	.-4      	; 0x1cb8 <_ZN13mySensorGaris12KalibrasiRGBEh+0x28a>
    1cbc:	00 00       	nop
    1cbe:	da 98       	cbi	0x1b, 2	; 27
    1cc0:	85 ed       	ldi	r24, 0xD5	; 213
    1cc2:	8a 95       	dec	r24
    1cc4:	f1 f7       	brne	.-4      	; 0x1cc2 <_ZN13mySensorGaris12KalibrasiRGBEh+0x294>
    1cc6:	00 00       	nop
    1cc8:	da 9a       	sbi	0x1b, 2	; 27
    1cca:	81 91       	ld	r24, Z+
    1ccc:	81 11       	cpse	r24, r1
    1cce:	df cf       	rjmp	.-66     	; 0x1c8e <_ZN13mySensorGaris12KalibrasiRGBEh+0x260>
    1cd0:	ea ce       	rjmp	.-556    	; 0x1aa6 <_ZN13mySensorGaris12KalibrasiRGBEh+0x78>
    1cd2:	d8 9a       	sbi	0x1b, 0	; 27
    1cd4:	98 2f       	mov	r25, r24
    1cd6:	90 7f       	andi	r25, 0xF0	; 240
    1cd8:	9d 60       	ori	r25, 0x0D	; 13
    1cda:	9b bb       	out	0x1b, r25	; 27
    1cdc:	95 e0       	ldi	r25, 0x05	; 5
    1cde:	9a 95       	dec	r25
    1ce0:	f1 f7       	brne	.-4      	; 0x1cde <_ZN13mySensorGaris12KalibrasiRGBEh+0x2b0>
    1ce2:	00 00       	nop
    1ce4:	da 98       	cbi	0x1b, 2	; 27
    1ce6:	2a e1       	ldi	r18, 0x1A	; 26
    1ce8:	2a 95       	dec	r18
    1cea:	f1 f7       	brne	.-4      	; 0x1ce8 <_ZN13mySensorGaris12KalibrasiRGBEh+0x2ba>
    1cec:	00 c0       	rjmp	.+0      	; 0x1cee <_ZN13mySensorGaris12KalibrasiRGBEh+0x2c0>
    1cee:	70 e1       	ldi	r23, 0x10	; 16
    1cf0:	87 9f       	mul	r24, r23
    1cf2:	c0 01       	movw	r24, r0
    1cf4:	11 24       	eor	r1, r1
    1cf6:	8d 60       	ori	r24, 0x0D	; 13
    1cf8:	8b bb       	out	0x1b, r24	; 27
    1cfa:	85 e0       	ldi	r24, 0x05	; 5
    1cfc:	8a 95       	dec	r24
    1cfe:	f1 f7       	brne	.-4      	; 0x1cfc <_ZN13mySensorGaris12KalibrasiRGBEh+0x2ce>
    1d00:	00 00       	nop
    1d02:	da 98       	cbi	0x1b, 2	; 27
    1d04:	95 ed       	ldi	r25, 0xD5	; 213
    1d06:	9a 95       	dec	r25
    1d08:	f1 f7       	brne	.-4      	; 0x1d06 <_ZN13mySensorGaris12KalibrasiRGBEh+0x2d8>
    1d0a:	00 00       	nop
    1d0c:	da 9a       	sbi	0x1b, 2	; 27
    1d0e:	81 91       	ld	r24, Z+
    1d10:	81 11       	cpse	r24, r1
    1d12:	df cf       	rjmp	.-66     	; 0x1cd2 <_ZN13mySensorGaris12KalibrasiRGBEh+0x2a4>
    1d14:	f3 ce       	rjmp	.-538    	; 0x1afc <_ZN13mySensorGaris12KalibrasiRGBEh+0xce>
    1d16:	81 91       	ld	r24, Z+
    1d18:	d8 9a       	sbi	0x1b, 0	; 27
    1d1a:	98 2f       	mov	r25, r24
    1d1c:	90 7f       	andi	r25, 0xF0	; 240
    1d1e:	9d 60       	ori	r25, 0x0D	; 13
    1d20:	9b bb       	out	0x1b, r25	; 27
    1d22:	25 e0       	ldi	r18, 0x05	; 5
    1d24:	2a 95       	dec	r18
    1d26:	f1 f7       	brne	.-4      	; 0x1d24 <_ZN13mySensorGaris12KalibrasiRGBEh+0x2f6>
    1d28:	00 00       	nop
    1d2a:	da 98       	cbi	0x1b, 2	; 27
    1d2c:	7a e1       	ldi	r23, 0x1A	; 26
    1d2e:	7a 95       	dec	r23
    1d30:	f1 f7       	brne	.-4      	; 0x1d2e <_ZN13mySensorGaris12KalibrasiRGBEh+0x300>
    1d32:	00 c0       	rjmp	.+0      	; 0x1d34 <_ZN13mySensorGaris12KalibrasiRGBEh+0x306>
    1d34:	20 e1       	ldi	r18, 0x10	; 16
    1d36:	82 9f       	mul	r24, r18
    1d38:	c0 01       	movw	r24, r0
    1d3a:	11 24       	eor	r1, r1
    1d3c:	8d 60       	ori	r24, 0x0D	; 13
    1d3e:	8b bb       	out	0x1b, r24	; 27
    1d40:	75 e0       	ldi	r23, 0x05	; 5
    1d42:	7a 95       	dec	r23
    1d44:	f1 f7       	brne	.-4      	; 0x1d42 <_ZN13mySensorGaris12KalibrasiRGBEh+0x314>
    1d46:	00 00       	nop
    1d48:	da 98       	cbi	0x1b, 2	; 27
    1d4a:	85 ed       	ldi	r24, 0xD5	; 213
    1d4c:	8a 95       	dec	r24
    1d4e:	f1 f7       	brne	.-4      	; 0x1d4c <_ZN13mySensorGaris12KalibrasiRGBEh+0x31e>
    1d50:	00 00       	nop
    1d52:	da 9a       	sbi	0x1b, 2	; 27
    1d54:	9f e7       	ldi	r25, 0x7F	; 127
    1d56:	28 e3       	ldi	r18, 0x38	; 56
    1d58:	71 e0       	ldi	r23, 0x01	; 1
    1d5a:	91 50       	subi	r25, 0x01	; 1
    1d5c:	20 40       	sbci	r18, 0x00	; 0
    1d5e:	70 40       	sbci	r23, 0x00	; 0
    1d60:	e1 f7       	brne	.-8      	; 0x1d5a <_ZN13mySensorGaris12KalibrasiRGBEh+0x32c>
    1d62:	00 c0       	rjmp	.+0      	; 0x1d64 <_ZN13mySensorGaris12KalibrasiRGBEh+0x336>
    1d64:	00 00       	nop
    1d66:	81 e0       	ldi	r24, 0x01	; 1
    1d68:	e8 37       	cpi	r30, 0x78	; 120
    1d6a:	f8 07       	cpc	r31, r24
    1d6c:	a1 f6       	brne	.-88     	; 0x1d16 <_ZN13mySensorGaris12KalibrasiRGBEh+0x2e8>
    1d6e:	2c cf       	rjmp	.-424    	; 0x1bc8 <_ZN13mySensorGaris12KalibrasiRGBEh+0x19a>
    1d70:	9b 9b       	sbis	0x13, 3	; 19
    1d72:	02 c0       	rjmp	.+4      	; 0x1d78 <_ZN13mySensorGaris12KalibrasiRGBEh+0x34a>
    1d74:	98 99       	sbic	0x13, 0	; 19
    1d76:	fc cf       	rjmp	.-8      	; 0x1d70 <_ZN13mySensorGaris12KalibrasiRGBEh+0x342>
    1d78:	9b 99       	sbic	0x13, 3	; 19
    1d7a:	b7 c0       	rjmp	.+366    	; 0x1eea <_ZN13mySensorGaris12KalibrasiRGBEh+0x4bc>
    1d7c:	80 91 9b 00 	lds	r24, 0x009B
    1d80:	85 ff       	sbrs	r24, 5
    1d82:	fc cf       	rjmp	.-8      	; 0x1d7c <_ZN13mySensorGaris12KalibrasiRGBEh+0x34e>
    1d84:	00 93 9c 00 	sts	0x009C, r16
    1d88:	8b e1       	ldi	r24, 0x1B	; 27
    1d8a:	83 bf       	out	0x33, r24	; 51
    1d8c:	12 be       	out	0x32, r1	; 50
    1d8e:	83 e5       	ldi	r24, 0x53	; 83
    1d90:	81 bf       	out	0x31, r24	; 49
    1d92:	84 ef       	ldi	r24, 0xF4	; 244
    1d94:	91 e0       	ldi	r25, 0x01	; 1
    1d96:	ef e9       	ldi	r30, 0x9F	; 159
    1d98:	ff e0       	ldi	r31, 0x0F	; 15
    1d9a:	31 97       	sbiw	r30, 0x01	; 1
    1d9c:	f1 f7       	brne	.-4      	; 0x1d9a <_ZN13mySensorGaris12KalibrasiRGBEh+0x36c>
    1d9e:	00 c0       	rjmp	.+0      	; 0x1da0 <_ZN13mySensorGaris12KalibrasiRGBEh+0x372>
    1da0:	00 00       	nop
    1da2:	01 97       	sbiw	r24, 0x01	; 1
    1da4:	00 97       	sbiw	r24, 0x00	; 0
    1da6:	b9 f7       	brne	.-18     	; 0x1d96 <_ZN13mySensorGaris12KalibrasiRGBEh+0x368>
    1da8:	13 be       	out	0x33, r1	; 51
    1daa:	10 be       	out	0x30, r1	; 48
    1dac:	c4 98       	cbi	0x18, 4	; 24
    1dae:	60 e0       	ldi	r22, 0x00	; 0
    1db0:	81 e4       	ldi	r24, 0x41	; 65
    1db2:	92 e0       	ldi	r25, 0x02	; 2
    1db4:	0e 94 75 08 	call	0x10ea	; 0x10ea <_ZN5myLCD10HapusKananEh>
    1db8:	89 e7       	ldi	r24, 0x79	; 121
    1dba:	91 e0       	ldi	r25, 0x01	; 1
    1dbc:	0e 94 3d 03 	call	0x67a	; 0x67a <_ZN5myLCD9TulisKiriEhPKc.constprop.18>
    1dc0:	9b 9b       	sbis	0x13, 3	; 19
    1dc2:	02 c0       	rjmp	.+4      	; 0x1dc8 <_ZN13mySensorGaris12KalibrasiRGBEh+0x39a>
    1dc4:	98 99       	sbic	0x13, 0	; 19
    1dc6:	fc cf       	rjmp	.-8      	; 0x1dc0 <_ZN13mySensorGaris12KalibrasiRGBEh+0x392>
    1dc8:	9b 99       	sbic	0x13, 3	; 19
    1dca:	28 c1       	rjmp	.+592    	; 0x201c <_ZN13mySensorGaris12KalibrasiRGBEh+0x5ee>
    1dcc:	80 91 9b 00 	lds	r24, 0x009B
    1dd0:	85 ff       	sbrs	r24, 5
    1dd2:	fc cf       	rjmp	.-8      	; 0x1dcc <_ZN13mySensorGaris12KalibrasiRGBEh+0x39e>
    1dd4:	00 93 9c 00 	sts	0x009C, r16
    1dd8:	8b e1       	ldi	r24, 0x1B	; 27
    1dda:	83 bf       	out	0x33, r24	; 51
    1ddc:	12 be       	out	0x32, r1	; 50
    1dde:	83 e5       	ldi	r24, 0x53	; 83
    1de0:	81 bf       	out	0x31, r24	; 49
    1de2:	84 ef       	ldi	r24, 0xF4	; 244
    1de4:	91 e0       	ldi	r25, 0x01	; 1
    1de6:	ef e9       	ldi	r30, 0x9F	; 159
    1de8:	ff e0       	ldi	r31, 0x0F	; 15
    1dea:	31 97       	sbiw	r30, 0x01	; 1
    1dec:	f1 f7       	brne	.-4      	; 0x1dea <_ZN13mySensorGaris12KalibrasiRGBEh+0x3bc>
    1dee:	00 c0       	rjmp	.+0      	; 0x1df0 <_ZN13mySensorGaris12KalibrasiRGBEh+0x3c2>
    1df0:	00 00       	nop
    1df2:	01 97       	sbiw	r24, 0x01	; 1
    1df4:	00 97       	sbiw	r24, 0x00	; 0
    1df6:	b9 f7       	brne	.-18     	; 0x1de6 <_ZN13mySensorGaris12KalibrasiRGBEh+0x3b8>
    1df8:	13 be       	out	0x33, r1	; 51
    1dfa:	10 be       	out	0x30, r1	; 48
    1dfc:	c4 98       	cbi	0x18, 4	; 24
    1dfe:	60 e0       	ldi	r22, 0x00	; 0
    1e00:	81 e4       	ldi	r24, 0x41	; 65
    1e02:	92 e0       	ldi	r25, 0x02	; 2
    1e04:	0e 94 75 08 	call	0x10ea	; 0x10ea <_ZN5myLCD10HapusKananEh>
    1e08:	8a e8       	ldi	r24, 0x8A	; 138
    1e0a:	91 e0       	ldi	r25, 0x01	; 1
    1e0c:	0e 94 3d 03 	call	0x67a	; 0x67a <_ZN5myLCD9TulisKiriEhPKc.constprop.18>
    1e10:	40 ef       	ldi	r20, 0xF0	; 240
    1e12:	61 2f       	mov	r22, r17
    1e14:	ce 01       	movw	r24, r28
    1e16:	0e 94 e8 0b 	call	0x17d0	; 0x17d0 <_ZN13mySensorGaris21TungguTombolKalibrasiEhh>
    1e1a:	88 23       	and	r24, r24
    1e1c:	09 f4       	brne	.+2      	; 0x1e20 <_ZN13mySensorGaris12KalibrasiRGBEh+0x3f2>
    1e1e:	6b c0       	rjmp	.+214    	; 0x1ef6 <_ZN13mySensorGaris12KalibrasiRGBEh+0x4c8>
    1e20:	8b e1       	ldi	r24, 0x1B	; 27
    1e22:	83 bf       	out	0x33, r24	; 51
    1e24:	12 be       	out	0x32, r1	; 50
    1e26:	83 e5       	ldi	r24, 0x53	; 83
    1e28:	81 bf       	out	0x31, r24	; 49
    1e2a:	84 ef       	ldi	r24, 0xF4	; 244
    1e2c:	91 e0       	ldi	r25, 0x01	; 1
    1e2e:	ef e9       	ldi	r30, 0x9F	; 159
    1e30:	ff e0       	ldi	r31, 0x0F	; 15
    1e32:	31 97       	sbiw	r30, 0x01	; 1
    1e34:	f1 f7       	brne	.-4      	; 0x1e32 <_ZN13mySensorGaris12KalibrasiRGBEh+0x404>
    1e36:	00 c0       	rjmp	.+0      	; 0x1e38 <_ZN13mySensorGaris12KalibrasiRGBEh+0x40a>
    1e38:	00 00       	nop
    1e3a:	01 97       	sbiw	r24, 0x01	; 1
    1e3c:	00 97       	sbiw	r24, 0x00	; 0
    1e3e:	b9 f7       	brne	.-18     	; 0x1e2e <_ZN13mySensorGaris12KalibrasiRGBEh+0x400>
    1e40:	13 be       	out	0x33, r1	; 51
    1e42:	10 be       	out	0x30, r1	; 48
    1e44:	c4 98       	cbi	0x18, 4	; 24
    1e46:	60 e0       	ldi	r22, 0x00	; 0
    1e48:	81 e4       	ldi	r24, 0x41	; 65
    1e4a:	92 e0       	ldi	r25, 0x02	; 2
    1e4c:	0e 94 75 08 	call	0x10ea	; 0x10ea <_ZN5myLCD10HapusKananEh>
    1e50:	8b e9       	ldi	r24, 0x9B	; 155
    1e52:	91 e0       	ldi	r25, 0x01	; 1
    1e54:	0e 94 3d 03 	call	0x67a	; 0x67a <_ZN5myLCD9TulisKiriEhPKc.constprop.18>
    1e58:	40 ef       	ldi	r20, 0xF0	; 240
    1e5a:	61 2f       	mov	r22, r17
    1e5c:	ce 01       	movw	r24, r28
    1e5e:	0e 94 e8 0b 	call	0x17d0	; 0x17d0 <_ZN13mySensorGaris21TungguTombolKalibrasiEhh>
    1e62:	88 23       	and	r24, r24
    1e64:	09 f4       	brne	.+2      	; 0x1e68 <_ZN13mySensorGaris12KalibrasiRGBEh+0x43a>
    1e66:	47 c0       	rjmp	.+142    	; 0x1ef6 <_ZN13mySensorGaris12KalibrasiRGBEh+0x4c8>
    1e68:	8b e1       	ldi	r24, 0x1B	; 27
    1e6a:	83 bf       	out	0x33, r24	; 51
    1e6c:	12 be       	out	0x32, r1	; 50
    1e6e:	83 e5       	ldi	r24, 0x53	; 83
    1e70:	81 bf       	out	0x31, r24	; 49
    1e72:	88 ec       	ldi	r24, 0xC8	; 200
    1e74:	90 e0       	ldi	r25, 0x00	; 0
    1e76:	ef e9       	ldi	r30, 0x9F	; 159
    1e78:	ff e0       	ldi	r31, 0x0F	; 15
    1e7a:	31 97       	sbiw	r30, 0x01	; 1
    1e7c:	f1 f7       	brne	.-4      	; 0x1e7a <_ZN13mySensorGaris12KalibrasiRGBEh+0x44c>
    1e7e:	00 c0       	rjmp	.+0      	; 0x1e80 <_ZN13mySensorGaris12KalibrasiRGBEh+0x452>
    1e80:	00 00       	nop
    1e82:	01 97       	sbiw	r24, 0x01	; 1
    1e84:	00 97       	sbiw	r24, 0x00	; 0
    1e86:	b9 f7       	brne	.-18     	; 0x1e76 <_ZN13mySensorGaris12KalibrasiRGBEh+0x448>
    1e88:	13 be       	out	0x33, r1	; 51
    1e8a:	10 be       	out	0x30, r1	; 48
    1e8c:	c4 98       	cbi	0x18, 4	; 24
    1e8e:	88 e8       	ldi	r24, 0x88	; 136
    1e90:	93 e1       	ldi	r25, 0x13	; 19
    1e92:	08 c0       	rjmp	.+16     	; 0x1ea4 <_ZN13mySensorGaris12KalibrasiRGBEh+0x476>
    1e94:	f5 e0       	ldi	r31, 0x05	; 5
    1e96:	fa 95       	dec	r31
    1e98:	f1 f7       	brne	.-4      	; 0x1e96 <_ZN13mySensorGaris12KalibrasiRGBEh+0x468>
    1e9a:	00 00       	nop
    1e9c:	01 97       	sbiw	r24, 0x01	; 1
    1e9e:	00 97       	sbiw	r24, 0x00	; 0
    1ea0:	09 f4       	brne	.+2      	; 0x1ea4 <_ZN13mySensorGaris12KalibrasiRGBEh+0x476>
    1ea2:	fb c0       	rjmp	.+502    	; 0x209a <_ZN13mySensorGaris12KalibrasiRGBEh+0x66c>
    1ea4:	20 91 4f 02 	lds	r18, 0x024F
    1ea8:	22 23       	and	r18, r18
    1eaa:	a1 f3       	breq	.-24     	; 0x1e94 <_ZN13mySensorGaris12KalibrasiRGBEh+0x466>
    1eac:	e8 94       	clt
    1eae:	21 f8       	bld	r2, 1
    1eb0:	e0 91 50 02 	lds	r30, 0x0250
    1eb4:	f0 e0       	ldi	r31, 0x00	; 0
    1eb6:	ee 5a       	subi	r30, 0xAE	; 174
    1eb8:	fd 4f       	sbci	r31, 0xFD	; 253
    1eba:	90 81       	ld	r25, Z
    1ebc:	80 91 50 02 	lds	r24, 0x0250
    1ec0:	8f 5f       	subi	r24, 0xFF	; 255
    1ec2:	80 93 50 02 	sts	0x0250, r24
    1ec6:	80 31       	cpi	r24, 0x10	; 16
    1ec8:	11 f4       	brne	.+4      	; 0x1ece <_ZN13mySensorGaris12KalibrasiRGBEh+0x4a0>
    1eca:	10 92 50 02 	sts	0x0250, r1
    1ece:	f8 94       	cli
    1ed0:	80 91 4f 02 	lds	r24, 0x024F
    1ed4:	81 50       	subi	r24, 0x01	; 1
    1ed6:	80 93 4f 02 	sts	0x024F, r24
    1eda:	78 94       	sei
    1edc:	90 3f       	cpi	r25, 0xF0	; 240
    1ede:	59 f4       	brne	.+22     	; 0x1ef6 <_ZN13mySensorGaris12KalibrasiRGBEh+0x4c8>
    1ee0:	ce 01       	movw	r24, r28
    1ee2:	0e 94 ff 0b 	call	0x17fe	; 0x17fe <_ZN13mySensorGaris22PesanKalibrasiBerhasilEv>
    1ee6:	81 e0       	ldi	r24, 0x01	; 1
    1ee8:	72 c0       	rjmp	.+228    	; 0x1fce <_ZN13mySensorGaris12KalibrasiRGBEh+0x5a0>
    1eea:	80 91 9b 00 	lds	r24, 0x009B
    1eee:	85 ff       	sbrs	r24, 5
    1ef0:	fc cf       	rjmp	.-8      	; 0x1eea <_ZN13mySensorGaris12KalibrasiRGBEh+0x4bc>
    1ef2:	10 92 9c 00 	sts	0x009C, r1
    1ef6:	61 e0       	ldi	r22, 0x01	; 1
    1ef8:	81 e4       	ldi	r24, 0x41	; 65
    1efa:	92 e0       	ldi	r25, 0x02	; 2
    1efc:	0e 94 0e 03 	call	0x61c	; 0x61c <_ZN5myLCD8PerintahEh>
    1f00:	ef e3       	ldi	r30, 0x3F	; 63
    1f02:	ff e1       	ldi	r31, 0x1F	; 31
    1f04:	31 97       	sbiw	r30, 0x01	; 1
    1f06:	f1 f7       	brne	.-4      	; 0x1f04 <_ZN13mySensorGaris12KalibrasiRGBEh+0x4d6>
    1f08:	00 c0       	rjmp	.+0      	; 0x1f0a <_ZN13mySensorGaris12KalibrasiRGBEh+0x4dc>
    1f0a:	00 00       	nop
    1f0c:	60 e8       	ldi	r22, 0x80	; 128
    1f0e:	81 e4       	ldi	r24, 0x41	; 65
    1f10:	92 e0       	ldi	r25, 0x02	; 2
    1f12:	0e 94 0e 03 	call	0x61c	; 0x61c <_ZN5myLCD8PerintahEh>
    1f16:	e5 e2       	ldi	r30, 0x25	; 37
    1f18:	f1 e0       	ldi	r31, 0x01	; 1
    1f1a:	8b e4       	ldi	r24, 0x4B	; 75
    1f1c:	20 fc       	sbrc	r2, 0
    1f1e:	5c c0       	rjmp	.+184    	; 0x1fd8 <_ZN13mySensorGaris12KalibrasiRGBEh+0x5aa>
    1f20:	d8 9a       	sbi	0x1b, 0	; 27
    1f22:	98 2f       	mov	r25, r24
    1f24:	90 7f       	andi	r25, 0xF0	; 240
    1f26:	95 60       	ori	r25, 0x05	; 5
    1f28:	9b bb       	out	0x1b, r25	; 27
    1f2a:	25 e0       	ldi	r18, 0x05	; 5
    1f2c:	2a 95       	dec	r18
    1f2e:	f1 f7       	brne	.-4      	; 0x1f2c <_ZN13mySensorGaris12KalibrasiRGBEh+0x4fe>
    1f30:	00 00       	nop
    1f32:	da 98       	cbi	0x1b, 2	; 27
    1f34:	7a e1       	ldi	r23, 0x1A	; 26
    1f36:	7a 95       	dec	r23
    1f38:	f1 f7       	brne	.-4      	; 0x1f36 <_ZN13mySensorGaris12KalibrasiRGBEh+0x508>
    1f3a:	00 c0       	rjmp	.+0      	; 0x1f3c <_ZN13mySensorGaris12KalibrasiRGBEh+0x50e>
    1f3c:	20 e1       	ldi	r18, 0x10	; 16
    1f3e:	82 9f       	mul	r24, r18
    1f40:	c0 01       	movw	r24, r0
    1f42:	11 24       	eor	r1, r1
    1f44:	85 60       	ori	r24, 0x05	; 5
    1f46:	8b bb       	out	0x1b, r24	; 27
    1f48:	75 e0       	ldi	r23, 0x05	; 5
    1f4a:	7a 95       	dec	r23
    1f4c:	f1 f7       	brne	.-4      	; 0x1f4a <_ZN13mySensorGaris12KalibrasiRGBEh+0x51c>
    1f4e:	00 00       	nop
    1f50:	da 98       	cbi	0x1b, 2	; 27
    1f52:	85 ed       	ldi	r24, 0xD5	; 213
    1f54:	8a 95       	dec	r24
    1f56:	f1 f7       	brne	.-4      	; 0x1f54 <_ZN13mySensorGaris12KalibrasiRGBEh+0x526>
    1f58:	00 00       	nop
    1f5a:	da 9a       	sbi	0x1b, 2	; 27
    1f5c:	81 91       	ld	r24, Z+
    1f5e:	81 11       	cpse	r24, r1
    1f60:	df cf       	rjmp	.-66     	; 0x1f20 <_ZN13mySensorGaris12KalibrasiRGBEh+0x4f2>
    1f62:	60 ec       	ldi	r22, 0xC0	; 192
    1f64:	81 e4       	ldi	r24, 0x41	; 65
    1f66:	92 e0       	ldi	r25, 0x02	; 2
    1f68:	0e 94 0e 03 	call	0x61c	; 0x61c <_ZN5myLCD8PerintahEh>
    1f6c:	e6 e4       	ldi	r30, 0x46	; 70
    1f6e:	f1 e0       	ldi	r31, 0x01	; 1
    1f70:	20 fc       	sbrc	r2, 0
    1f72:	5d c0       	rjmp	.+186    	; 0x202e <_ZN13mySensorGaris12KalibrasiRGBEh+0x600>
    1f74:	81 91       	ld	r24, Z+
    1f76:	d8 9a       	sbi	0x1b, 0	; 27
    1f78:	98 2f       	mov	r25, r24
    1f7a:	90 7f       	andi	r25, 0xF0	; 240
    1f7c:	95 60       	ori	r25, 0x05	; 5
    1f7e:	9b bb       	out	0x1b, r25	; 27
    1f80:	95 e0       	ldi	r25, 0x05	; 5
    1f82:	9a 95       	dec	r25
    1f84:	f1 f7       	brne	.-4      	; 0x1f82 <_ZN13mySensorGaris12KalibrasiRGBEh+0x554>
    1f86:	00 00       	nop
    1f88:	da 98       	cbi	0x1b, 2	; 27
    1f8a:	2a e1       	ldi	r18, 0x1A	; 26
    1f8c:	2a 95       	dec	r18
    1f8e:	f1 f7       	brne	.-4      	; 0x1f8c <_ZN13mySensorGaris12KalibrasiRGBEh+0x55e>
    1f90:	00 c0       	rjmp	.+0      	; 0x1f92 <_ZN13mySensorGaris12KalibrasiRGBEh+0x564>
    1f92:	70 e1       	ldi	r23, 0x10	; 16
    1f94:	87 9f       	mul	r24, r23
    1f96:	c0 01       	movw	r24, r0
    1f98:	11 24       	eor	r1, r1
    1f9a:	85 60       	ori	r24, 0x05	; 5
    1f9c:	8b bb       	out	0x1b, r24	; 27
    1f9e:	85 e0       	ldi	r24, 0x05	; 5
    1fa0:	8a 95       	dec	r24
    1fa2:	f1 f7       	brne	.-4      	; 0x1fa0 <_ZN13mySensorGaris12KalibrasiRGBEh+0x572>
    1fa4:	00 00       	nop
    1fa6:	da 98       	cbi	0x1b, 2	; 27
    1fa8:	95 ed       	ldi	r25, 0xD5	; 213
    1faa:	9a 95       	dec	r25
    1fac:	f1 f7       	brne	.-4      	; 0x1faa <_ZN13mySensorGaris12KalibrasiRGBEh+0x57c>
    1fae:	00 00       	nop
    1fb0:	da 9a       	sbi	0x1b, 2	; 27
    1fb2:	2f e7       	ldi	r18, 0x7F	; 127
    1fb4:	78 e3       	ldi	r23, 0x38	; 56
    1fb6:	81 e0       	ldi	r24, 0x01	; 1
    1fb8:	21 50       	subi	r18, 0x01	; 1
    1fba:	70 40       	sbci	r23, 0x00	; 0
    1fbc:	80 40       	sbci	r24, 0x00	; 0
    1fbe:	e1 f7       	brne	.-8      	; 0x1fb8 <_ZN13mySensorGaris12KalibrasiRGBEh+0x58a>
    1fc0:	00 c0       	rjmp	.+0      	; 0x1fc2 <_ZN13mySensorGaris12KalibrasiRGBEh+0x594>
    1fc2:	00 00       	nop
    1fc4:	91 e0       	ldi	r25, 0x01	; 1
    1fc6:	e6 35       	cpi	r30, 0x56	; 86
    1fc8:	f9 07       	cpc	r31, r25
    1fca:	a1 f6       	brne	.-88     	; 0x1f74 <_ZN13mySensorGaris12KalibrasiRGBEh+0x546>
    1fcc:	80 e0       	ldi	r24, 0x00	; 0
    1fce:	df 91       	pop	r29
    1fd0:	cf 91       	pop	r28
    1fd2:	1f 91       	pop	r17
    1fd4:	0f 91       	pop	r16
    1fd6:	08 95       	ret
    1fd8:	d8 9a       	sbi	0x1b, 0	; 27
    1fda:	98 2f       	mov	r25, r24
    1fdc:	90 7f       	andi	r25, 0xF0	; 240
    1fde:	9d 60       	ori	r25, 0x0D	; 13
    1fe0:	9b bb       	out	0x1b, r25	; 27
    1fe2:	95 e0       	ldi	r25, 0x05	; 5
    1fe4:	9a 95       	dec	r25
    1fe6:	f1 f7       	brne	.-4      	; 0x1fe4 <_ZN13mySensorGaris12KalibrasiRGBEh+0x5b6>
    1fe8:	00 00       	nop
    1fea:	da 98       	cbi	0x1b, 2	; 27
    1fec:	2a e1       	ldi	r18, 0x1A	; 26
    1fee:	2a 95       	dec	r18
    1ff0:	f1 f7       	brne	.-4      	; 0x1fee <_ZN13mySensorGaris12KalibrasiRGBEh+0x5c0>
    1ff2:	00 c0       	rjmp	.+0      	; 0x1ff4 <_ZN13mySensorGaris12KalibrasiRGBEh+0x5c6>
    1ff4:	70 e1       	ldi	r23, 0x10	; 16
    1ff6:	87 9f       	mul	r24, r23
    1ff8:	c0 01       	movw	r24, r0
    1ffa:	11 24       	eor	r1, r1
    1ffc:	8d 60       	ori	r24, 0x0D	; 13
    1ffe:	8b bb       	out	0x1b, r24	; 27
    2000:	85 e0       	ldi	r24, 0x05	; 5
    2002:	8a 95       	dec	r24
    2004:	f1 f7       	brne	.-4      	; 0x2002 <_ZN13mySensorGaris12KalibrasiRGBEh+0x5d4>
    2006:	00 00       	nop
    2008:	da 98       	cbi	0x1b, 2	; 27
    200a:	95 ed       	ldi	r25, 0xD5	; 213
    200c:	9a 95       	dec	r25
    200e:	f1 f7       	brne	.-4      	; 0x200c <_ZN13mySensorGaris12KalibrasiRGBEh+0x5de>
    2010:	00 00       	nop
    2012:	da 9a       	sbi	0x1b, 2	; 27
    2014:	81 91       	ld	r24, Z+
    2016:	81 11       	cpse	r24, r1
    2018:	df cf       	rjmp	.-66     	; 0x1fd8 <_ZN13mySensorGaris12KalibrasiRGBEh+0x5aa>
    201a:	a3 cf       	rjmp	.-186    	; 0x1f62 <_ZN13mySensorGaris12KalibrasiRGBEh+0x534>
    201c:	80 91 9b 00 	lds	r24, 0x009B
    2020:	85 fd       	sbrc	r24, 5
    2022:	67 cf       	rjmp	.-306    	; 0x1ef2 <_ZN13mySensorGaris12KalibrasiRGBEh+0x4c4>
    2024:	80 91 9b 00 	lds	r24, 0x009B
    2028:	85 ff       	sbrs	r24, 5
    202a:	f8 cf       	rjmp	.-16     	; 0x201c <_ZN13mySensorGaris12KalibrasiRGBEh+0x5ee>
    202c:	62 cf       	rjmp	.-316    	; 0x1ef2 <_ZN13mySensorGaris12KalibrasiRGBEh+0x4c4>
    202e:	81 91       	ld	r24, Z+
    2030:	d8 9a       	sbi	0x1b, 0	; 27
    2032:	98 2f       	mov	r25, r24
    2034:	90 7f       	andi	r25, 0xF0	; 240
    2036:	9d 60       	ori	r25, 0x0D	; 13
    2038:	9b bb       	out	0x1b, r25	; 27
    203a:	25 e0       	ldi	r18, 0x05	; 5
    203c:	2a 95       	dec	r18
    203e:	f1 f7       	brne	.-4      	; 0x203c <_ZN13mySensorGaris12KalibrasiRGBEh+0x60e>
    2040:	00 00       	nop
    2042:	da 98       	cbi	0x1b, 2	; 27
    2044:	7a e1       	ldi	r23, 0x1A	; 26
    2046:	7a 95       	dec	r23
    2048:	f1 f7       	brne	.-4      	; 0x2046 <_ZN13mySensorGaris12KalibrasiRGBEh+0x618>
    204a:	00 c0       	rjmp	.+0      	; 0x204c <_ZN13mySensorGaris12KalibrasiRGBEh+0x61e>
    204c:	20 e1       	ldi	r18, 0x10	; 16
    204e:	82 9f       	mul	r24, r18
    2050:	c0 01       	movw	r24, r0
    2052:	11 24       	eor	r1, r1
    2054:	8d 60       	ori	r24, 0x0D	; 13
    2056:	8b bb       	out	0x1b, r24	; 27
    2058:	75 e0       	ldi	r23, 0x05	; 5
    205a:	7a 95       	dec	r23
    205c:	f1 f7       	brne	.-4      	; 0x205a <_ZN13mySensorGaris12KalibrasiRGBEh+0x62c>
    205e:	00 00       	nop
    2060:	da 98       	cbi	0x1b, 2	; 27
    2062:	85 ed       	ldi	r24, 0xD5	; 213
    2064:	8a 95       	dec	r24
    2066:	f1 f7       	brne	.-4      	; 0x2064 <_ZN13mySensorGaris12KalibrasiRGBEh+0x636>
    2068:	00 00       	nop
    206a:	da 9a       	sbi	0x1b, 2	; 27
    206c:	9f e7       	ldi	r25, 0x7F	; 127
    206e:	28 e3       	ldi	r18, 0x38	; 56
    2070:	71 e0       	ldi	r23, 0x01	; 1
    2072:	91 50       	subi	r25, 0x01	; 1
    2074:	20 40       	sbci	r18, 0x00	; 0
    2076:	70 40       	sbci	r23, 0x00	; 0
    2078:	e1 f7       	brne	.-8      	; 0x2072 <_ZN13mySensorGaris12KalibrasiRGBEh+0x644>
    207a:	00 c0       	rjmp	.+0      	; 0x207c <_ZN13mySensorGaris12KalibrasiRGBEh+0x64e>
    207c:	00 00       	nop
    207e:	81 e0       	ldi	r24, 0x01	; 1
    2080:	e6 35       	cpi	r30, 0x56	; 86
    2082:	f8 07       	cpc	r31, r24
    2084:	a1 f6       	brne	.-88     	; 0x202e <_ZN13mySensorGaris12KalibrasiRGBEh+0x600>
    2086:	a2 cf       	rjmp	.-188    	; 0x1fcc <_ZN13mySensorGaris12KalibrasiRGBEh+0x59e>
    2088:	95 60       	ori	r25, 0x05	; 5
    208a:	9b bb       	out	0x1b, r25	; 27
    208c:	d0 cd       	rjmp	.-1120   	; 0x1c2e <_ZN13mySensorGaris12KalibrasiRGBEh+0x200>
    208e:	8d 60       	ori	r24, 0x0D	; 13
    2090:	8b bb       	out	0x1b, r24	; 27
    2092:	de cd       	rjmp	.-1092   	; 0x1c50 <_ZN13mySensorGaris12KalibrasiRGBEh+0x222>
    2094:	8c 60       	ori	r24, 0x0C	; 12
    2096:	8b bb       	out	0x1b, r24	; 27
    2098:	b5 cd       	rjmp	.-1174   	; 0x1c04 <_ZN13mySensorGaris12KalibrasiRGBEh+0x1d6>
    209a:	68 94       	set
    209c:	21 f8       	bld	r2, 1
    209e:	2b cf       	rjmp	.-426    	; 0x1ef6 <_ZN13mySensorGaris12KalibrasiRGBEh+0x4c8>

000020a0 <_ZN13mySensorGaris11KalibrasiRBEh>:
    20a0:	0f 93       	push	r16
    20a2:	1f 93       	push	r17
    20a4:	cf 93       	push	r28
    20a6:	df 93       	push	r29
    20a8:	ec 01       	movw	r28, r24
    20aa:	16 2f       	mov	r17, r22
    20ac:	61 e0       	ldi	r22, 0x01	; 1
    20ae:	81 e4       	ldi	r24, 0x41	; 65
    20b0:	92 e0       	ldi	r25, 0x02	; 2
    20b2:	0e 94 0e 03 	call	0x61c	; 0x61c <_ZN5myLCD8PerintahEh>
    20b6:	8f e3       	ldi	r24, 0x3F	; 63
    20b8:	9f e1       	ldi	r25, 0x1F	; 31
    20ba:	01 97       	sbiw	r24, 0x01	; 1
    20bc:	f1 f7       	brne	.-4      	; 0x20ba <_ZN13mySensorGaris11KalibrasiRBEh+0x1a>
    20be:	00 c0       	rjmp	.+0      	; 0x20c0 <_ZN13mySensorGaris11KalibrasiRBEh+0x20>
    20c0:	00 00       	nop
    20c2:	60 e8       	ldi	r22, 0x80	; 128
    20c4:	81 e4       	ldi	r24, 0x41	; 65
    20c6:	92 e0       	ldi	r25, 0x02	; 2
    20c8:	0e 94 0e 03 	call	0x61c	; 0x61c <_ZN5myLCD8PerintahEh>
    20cc:	e5 e2       	ldi	r30, 0x25	; 37
    20ce:	f1 e0       	ldi	r31, 0x01	; 1
    20d0:	8b e4       	ldi	r24, 0x4B	; 75
    20d2:	20 fc       	sbrc	r2, 0
    20d4:	15 c1       	rjmp	.+554    	; 0x2300 <_ZN13mySensorGaris11KalibrasiRBEh+0x260>
    20d6:	d8 9a       	sbi	0x1b, 0	; 27
    20d8:	98 2f       	mov	r25, r24
    20da:	90 7f       	andi	r25, 0xF0	; 240
    20dc:	95 60       	ori	r25, 0x05	; 5
    20de:	9b bb       	out	0x1b, r25	; 27
    20e0:	95 e0       	ldi	r25, 0x05	; 5
    20e2:	9a 95       	dec	r25
    20e4:	f1 f7       	brne	.-4      	; 0x20e2 <_ZN13mySensorGaris11KalibrasiRBEh+0x42>
    20e6:	00 00       	nop
    20e8:	da 98       	cbi	0x1b, 2	; 27
    20ea:	2a e1       	ldi	r18, 0x1A	; 26
    20ec:	2a 95       	dec	r18
    20ee:	f1 f7       	brne	.-4      	; 0x20ec <_ZN13mySensorGaris11KalibrasiRBEh+0x4c>
    20f0:	00 c0       	rjmp	.+0      	; 0x20f2 <_ZN13mySensorGaris11KalibrasiRBEh+0x52>
    20f2:	70 e1       	ldi	r23, 0x10	; 16
    20f4:	87 9f       	mul	r24, r23
    20f6:	c0 01       	movw	r24, r0
    20f8:	11 24       	eor	r1, r1
    20fa:	85 60       	ori	r24, 0x05	; 5
    20fc:	8b bb       	out	0x1b, r24	; 27
    20fe:	85 e0       	ldi	r24, 0x05	; 5
    2100:	8a 95       	dec	r24
    2102:	f1 f7       	brne	.-4      	; 0x2100 <_ZN13mySensorGaris11KalibrasiRBEh+0x60>
    2104:	00 00       	nop
    2106:	da 98       	cbi	0x1b, 2	; 27
    2108:	95 ed       	ldi	r25, 0xD5	; 213
    210a:	9a 95       	dec	r25
    210c:	f1 f7       	brne	.-4      	; 0x210a <_ZN13mySensorGaris11KalibrasiRBEh+0x6a>
    210e:	00 00       	nop
    2110:	da 9a       	sbi	0x1b, 2	; 27
    2112:	81 91       	ld	r24, Z+
    2114:	81 11       	cpse	r24, r1
    2116:	df cf       	rjmp	.-66     	; 0x20d6 <_ZN13mySensorGaris11KalibrasiRBEh+0x36>
    2118:	60 ec       	ldi	r22, 0xC0	; 192
    211a:	81 e4       	ldi	r24, 0x41	; 65
    211c:	92 e0       	ldi	r25, 0x02	; 2
    211e:	0e 94 0e 03 	call	0x61c	; 0x61c <_ZN5myLCD8PerintahEh>
    2122:	e1 ee       	ldi	r30, 0xE1	; 225
    2124:	f1 e0       	ldi	r31, 0x01	; 1
    2126:	80 e2       	ldi	r24, 0x20	; 32
    2128:	20 fc       	sbrc	r2, 0
    212a:	0c c1       	rjmp	.+536    	; 0x2344 <_ZN13mySensorGaris11KalibrasiRBEh+0x2a4>
    212c:	d8 9a       	sbi	0x1b, 0	; 27
    212e:	98 2f       	mov	r25, r24
    2130:	90 7f       	andi	r25, 0xF0	; 240
    2132:	95 60       	ori	r25, 0x05	; 5
    2134:	9b bb       	out	0x1b, r25	; 27
    2136:	25 e0       	ldi	r18, 0x05	; 5
    2138:	2a 95       	dec	r18
    213a:	f1 f7       	brne	.-4      	; 0x2138 <_ZN13mySensorGaris11KalibrasiRBEh+0x98>
    213c:	00 00       	nop
    213e:	da 98       	cbi	0x1b, 2	; 27
    2140:	7a e1       	ldi	r23, 0x1A	; 26
    2142:	7a 95       	dec	r23
    2144:	f1 f7       	brne	.-4      	; 0x2142 <_ZN13mySensorGaris11KalibrasiRBEh+0xa2>
    2146:	00 c0       	rjmp	.+0      	; 0x2148 <_ZN13mySensorGaris11KalibrasiRBEh+0xa8>
    2148:	20 e1       	ldi	r18, 0x10	; 16
    214a:	82 9f       	mul	r24, r18
    214c:	c0 01       	movw	r24, r0
    214e:	11 24       	eor	r1, r1
    2150:	85 60       	ori	r24, 0x05	; 5
    2152:	8b bb       	out	0x1b, r24	; 27
    2154:	75 e0       	ldi	r23, 0x05	; 5
    2156:	7a 95       	dec	r23
    2158:	f1 f7       	brne	.-4      	; 0x2156 <_ZN13mySensorGaris11KalibrasiRBEh+0xb6>
    215a:	00 00       	nop
    215c:	da 98       	cbi	0x1b, 2	; 27
    215e:	85 ed       	ldi	r24, 0xD5	; 213
    2160:	8a 95       	dec	r24
    2162:	f1 f7       	brne	.-4      	; 0x2160 <_ZN13mySensorGaris11KalibrasiRBEh+0xc0>
    2164:	00 00       	nop
    2166:	da 9a       	sbi	0x1b, 2	; 27
    2168:	81 91       	ld	r24, Z+
    216a:	81 11       	cpse	r24, r1
    216c:	df cf       	rjmp	.-66     	; 0x212c <_ZN13mySensorGaris11KalibrasiRBEh+0x8c>
    216e:	8b e1       	ldi	r24, 0x1B	; 27
    2170:	83 bf       	out	0x33, r24	; 51
    2172:	12 be       	out	0x32, r1	; 50
    2174:	83 e5       	ldi	r24, 0x53	; 83
    2176:	81 bf       	out	0x31, r24	; 49
    2178:	24 ef       	ldi	r18, 0xF4	; 244
    217a:	31 e0       	ldi	r19, 0x01	; 1
    217c:	ef e9       	ldi	r30, 0x9F	; 159
    217e:	ff e0       	ldi	r31, 0x0F	; 15
    2180:	31 97       	sbiw	r30, 0x01	; 1
    2182:	f1 f7       	brne	.-4      	; 0x2180 <_ZN13mySensorGaris11KalibrasiRBEh+0xe0>
    2184:	00 c0       	rjmp	.+0      	; 0x2186 <_ZN13mySensorGaris11KalibrasiRBEh+0xe6>
    2186:	00 00       	nop
    2188:	21 50       	subi	r18, 0x01	; 1
    218a:	31 09       	sbc	r19, r1
    218c:	21 15       	cp	r18, r1
    218e:	31 05       	cpc	r19, r1
    2190:	a9 f7       	brne	.-22     	; 0x217c <_ZN13mySensorGaris11KalibrasiRBEh+0xdc>
    2192:	13 be       	out	0x33, r1	; 51
    2194:	10 be       	out	0x30, r1	; 48
    2196:	c4 98       	cbi	0x18, 4	; 24
    2198:	ff ef       	ldi	r31, 0xFF	; 255
    219a:	23 ed       	ldi	r18, 0xD3	; 211
    219c:	70 e3       	ldi	r23, 0x30	; 48
    219e:	f1 50       	subi	r31, 0x01	; 1
    21a0:	20 40       	sbci	r18, 0x00	; 0
    21a2:	70 40       	sbci	r23, 0x00	; 0
    21a4:	e1 f7       	brne	.-8      	; 0x219e <_ZN13mySensorGaris11KalibrasiRBEh+0xfe>
    21a6:	00 c0       	rjmp	.+0      	; 0x21a8 <_ZN13mySensorGaris11KalibrasiRBEh+0x108>
    21a8:	00 00       	nop
    21aa:	61 e0       	ldi	r22, 0x01	; 1
    21ac:	81 e4       	ldi	r24, 0x41	; 65
    21ae:	92 e0       	ldi	r25, 0x02	; 2
    21b0:	0e 94 0e 03 	call	0x61c	; 0x61c <_ZN5myLCD8PerintahEh>
    21b4:	8f e3       	ldi	r24, 0x3F	; 63
    21b6:	9f e1       	ldi	r25, 0x1F	; 31
    21b8:	01 97       	sbiw	r24, 0x01	; 1
    21ba:	f1 f7       	brne	.-4      	; 0x21b8 <_ZN13mySensorGaris11KalibrasiRBEh+0x118>
    21bc:	00 c0       	rjmp	.+0      	; 0x21be <_ZN13mySensorGaris11KalibrasiRBEh+0x11e>
    21be:	00 00       	nop
    21c0:	01 2f       	mov	r16, r17
    21c2:	00 6d       	ori	r16, 0xD0	; 208
    21c4:	80 91 9b 00 	lds	r24, 0x009B
    21c8:	85 ff       	sbrs	r24, 5
    21ca:	fc cf       	rjmp	.-8      	; 0x21c4 <_ZN13mySensorGaris11KalibrasiRBEh+0x124>
    21cc:	00 93 9c 00 	sts	0x009C, r16
    21d0:	60 e8       	ldi	r22, 0x80	; 128
    21d2:	81 e4       	ldi	r24, 0x41	; 65
    21d4:	92 e0       	ldi	r25, 0x02	; 2
    21d6:	0e 94 0e 03 	call	0x61c	; 0x61c <_ZN5myLCD8PerintahEh>
    21da:	e8 e6       	ldi	r30, 0x68	; 104
    21dc:	f1 e0       	ldi	r31, 0x01	; 1
    21de:	20 fc       	sbrc	r2, 0
    21e0:	d3 c0       	rjmp	.+422    	; 0x2388 <_ZN13mySensorGaris11KalibrasiRBEh+0x2e8>
    21e2:	81 91       	ld	r24, Z+
    21e4:	d8 9a       	sbi	0x1b, 0	; 27
    21e6:	98 2f       	mov	r25, r24
    21e8:	90 7f       	andi	r25, 0xF0	; 240
    21ea:	95 60       	ori	r25, 0x05	; 5
    21ec:	9b bb       	out	0x1b, r25	; 27
    21ee:	95 e0       	ldi	r25, 0x05	; 5
    21f0:	9a 95       	dec	r25
    21f2:	f1 f7       	brne	.-4      	; 0x21f0 <_ZN13mySensorGaris11KalibrasiRBEh+0x150>
    21f4:	00 00       	nop
    21f6:	da 98       	cbi	0x1b, 2	; 27
    21f8:	2a e1       	ldi	r18, 0x1A	; 26
    21fa:	2a 95       	dec	r18
    21fc:	f1 f7       	brne	.-4      	; 0x21fa <_ZN13mySensorGaris11KalibrasiRBEh+0x15a>
    21fe:	00 c0       	rjmp	.+0      	; 0x2200 <_ZN13mySensorGaris11KalibrasiRBEh+0x160>
    2200:	70 e1       	ldi	r23, 0x10	; 16
    2202:	87 9f       	mul	r24, r23
    2204:	c0 01       	movw	r24, r0
    2206:	11 24       	eor	r1, r1
    2208:	85 60       	ori	r24, 0x05	; 5
    220a:	8b bb       	out	0x1b, r24	; 27
    220c:	85 e0       	ldi	r24, 0x05	; 5
    220e:	8a 95       	dec	r24
    2210:	f1 f7       	brne	.-4      	; 0x220e <_ZN13mySensorGaris11KalibrasiRBEh+0x16e>
    2212:	00 00       	nop
    2214:	da 98       	cbi	0x1b, 2	; 27
    2216:	95 ed       	ldi	r25, 0xD5	; 213
    2218:	9a 95       	dec	r25
    221a:	f1 f7       	brne	.-4      	; 0x2218 <_ZN13mySensorGaris11KalibrasiRBEh+0x178>
    221c:	00 00       	nop
    221e:	da 9a       	sbi	0x1b, 2	; 27
    2220:	2f e7       	ldi	r18, 0x7F	; 127
    2222:	78 e3       	ldi	r23, 0x38	; 56
    2224:	81 e0       	ldi	r24, 0x01	; 1
    2226:	21 50       	subi	r18, 0x01	; 1
    2228:	70 40       	sbci	r23, 0x00	; 0
    222a:	80 40       	sbci	r24, 0x00	; 0
    222c:	e1 f7       	brne	.-8      	; 0x2226 <_ZN13mySensorGaris11KalibrasiRBEh+0x186>
    222e:	00 c0       	rjmp	.+0      	; 0x2230 <_ZN13mySensorGaris11KalibrasiRBEh+0x190>
    2230:	00 00       	nop
    2232:	91 e0       	ldi	r25, 0x01	; 1
    2234:	e8 37       	cpi	r30, 0x78	; 120
    2236:	f9 07       	cpc	r31, r25
    2238:	a1 f6       	brne	.-88     	; 0x21e2 <_ZN13mySensorGaris11KalibrasiRBEh+0x142>
    223a:	e7 e6       	ldi	r30, 0x67	; 103
    223c:	f1 e0       	ldi	r31, 0x01	; 1
    223e:	2f ec       	ldi	r18, 0xCF	; 207
    2240:	30 e0       	ldi	r19, 0x00	; 0
    2242:	42 2d       	mov	r20, r2
    2244:	41 70       	andi	r20, 0x01	; 1
    2246:	64 ec       	ldi	r22, 0xC4	; 196
    2248:	5c ec       	ldi	r21, 0xCC	; 204
    224a:	55 c0       	rjmp	.+170    	; 0x22f6 <_ZN13mySensorGaris11KalibrasiRBEh+0x256>
    224c:	5b bb       	out	0x1b, r21	; 27
    224e:	75 e0       	ldi	r23, 0x05	; 5
    2250:	7a 95       	dec	r23
    2252:	f1 f7       	brne	.-4      	; 0x2250 <_ZN13mySensorGaris11KalibrasiRBEh+0x1b0>
    2254:	00 00       	nop
    2256:	da 98       	cbi	0x1b, 2	; 27
    2258:	8a e1       	ldi	r24, 0x1A	; 26
    225a:	8a 95       	dec	r24
    225c:	f1 f7       	brne	.-4      	; 0x225a <_ZN13mySensorGaris11KalibrasiRBEh+0x1ba>
    225e:	00 c0       	rjmp	.+0      	; 0x2260 <_ZN13mySensorGaris11KalibrasiRBEh+0x1c0>
    2260:	c9 01       	movw	r24, r18
    2262:	82 95       	swap	r24
    2264:	92 95       	swap	r25
    2266:	90 7f       	andi	r25, 0xF0	; 240
    2268:	98 27       	eor	r25, r24
    226a:	80 7f       	andi	r24, 0xF0	; 240
    226c:	98 27       	eor	r25, r24
    226e:	41 11       	cpse	r20, r1
    2270:	26 c2       	rjmp	.+1100   	; 0x26be <_ZN13mySensorGaris11KalibrasiRBEh+0x61e>
    2272:	84 60       	ori	r24, 0x04	; 4
    2274:	8b bb       	out	0x1b, r24	; 27
    2276:	95 e0       	ldi	r25, 0x05	; 5
    2278:	9a 95       	dec	r25
    227a:	f1 f7       	brne	.-4      	; 0x2278 <_ZN13mySensorGaris11KalibrasiRBEh+0x1d8>
    227c:	00 00       	nop
    227e:	da 98       	cbi	0x1b, 2	; 27
    2280:	8f ee       	ldi	r24, 0xEF	; 239
    2282:	9a e0       	ldi	r25, 0x0A	; 10
    2284:	01 97       	sbiw	r24, 0x01	; 1
    2286:	f1 f7       	brne	.-4      	; 0x2284 <_ZN13mySensorGaris11KalibrasiRBEh+0x1e4>
    2288:	00 c0       	rjmp	.+0      	; 0x228a <_ZN13mySensorGaris11KalibrasiRBEh+0x1ea>
    228a:	00 00       	nop
    228c:	da 9a       	sbi	0x1b, 2	; 27
    228e:	82 91       	ld	r24, -Z
    2290:	d8 9a       	sbi	0x1b, 0	; 27
    2292:	98 2f       	mov	r25, r24
    2294:	90 7f       	andi	r25, 0xF0	; 240
    2296:	44 23       	and	r20, r20
    2298:	09 f4       	brne	.+2      	; 0x229c <_ZN13mySensorGaris11KalibrasiRBEh+0x1fc>
    229a:	0b c2       	rjmp	.+1046   	; 0x26b2 <_ZN13mySensorGaris11KalibrasiRBEh+0x612>
    229c:	9d 60       	ori	r25, 0x0D	; 13
    229e:	9b bb       	out	0x1b, r25	; 27
    22a0:	95 e0       	ldi	r25, 0x05	; 5
    22a2:	9a 95       	dec	r25
    22a4:	f1 f7       	brne	.-4      	; 0x22a2 <_ZN13mySensorGaris11KalibrasiRBEh+0x202>
    22a6:	00 00       	nop
    22a8:	da 98       	cbi	0x1b, 2	; 27
    22aa:	7a e1       	ldi	r23, 0x1A	; 26
    22ac:	7a 95       	dec	r23
    22ae:	f1 f7       	brne	.-4      	; 0x22ac <_ZN13mySensorGaris11KalibrasiRBEh+0x20c>
    22b0:	00 c0       	rjmp	.+0      	; 0x22b2 <_ZN13mySensorGaris11KalibrasiRBEh+0x212>
    22b2:	70 e1       	ldi	r23, 0x10	; 16
    22b4:	87 9f       	mul	r24, r23
    22b6:	c0 01       	movw	r24, r0
    22b8:	11 24       	eor	r1, r1
    22ba:	41 11       	cpse	r20, r1
    22bc:	fd c1       	rjmp	.+1018   	; 0x26b8 <_ZN13mySensorGaris11KalibrasiRBEh+0x618>
    22be:	85 60       	ori	r24, 0x05	; 5
    22c0:	8b bb       	out	0x1b, r24	; 27
    22c2:	85 e0       	ldi	r24, 0x05	; 5
    22c4:	8a 95       	dec	r24
    22c6:	f1 f7       	brne	.-4      	; 0x22c4 <_ZN13mySensorGaris11KalibrasiRBEh+0x224>
    22c8:	00 00       	nop
    22ca:	da 98       	cbi	0x1b, 2	; 27
    22cc:	95 ed       	ldi	r25, 0xD5	; 213
    22ce:	9a 95       	dec	r25
    22d0:	f1 f7       	brne	.-4      	; 0x22ce <_ZN13mySensorGaris11KalibrasiRBEh+0x22e>
    22d2:	00 00       	nop
    22d4:	da 9a       	sbi	0x1b, 2	; 27
    22d6:	7f e7       	ldi	r23, 0x7F	; 127
    22d8:	88 e3       	ldi	r24, 0x38	; 56
    22da:	91 e0       	ldi	r25, 0x01	; 1
    22dc:	71 50       	subi	r23, 0x01	; 1
    22de:	80 40       	sbci	r24, 0x00	; 0
    22e0:	90 40       	sbci	r25, 0x00	; 0
    22e2:	e1 f7       	brne	.-8      	; 0x22dc <_ZN13mySensorGaris11KalibrasiRBEh+0x23c>
    22e4:	00 c0       	rjmp	.+0      	; 0x22e6 <_ZN13mySensorGaris11KalibrasiRBEh+0x246>
    22e6:	00 00       	nop
    22e8:	21 50       	subi	r18, 0x01	; 1
    22ea:	31 09       	sbc	r19, r1
    22ec:	71 e0       	ldi	r23, 0x01	; 1
    22ee:	e7 35       	cpi	r30, 0x57	; 87
    22f0:	f7 07       	cpc	r31, r23
    22f2:	09 f4       	brne	.+2      	; 0x22f6 <_ZN13mySensorGaris11KalibrasiRBEh+0x256>
    22f4:	76 c0       	rjmp	.+236    	; 0x23e2 <_ZN13mySensorGaris11KalibrasiRBEh+0x342>
    22f6:	d8 98       	cbi	0x1b, 0	; 27
    22f8:	41 11       	cpse	r20, r1
    22fa:	a8 cf       	rjmp	.-176    	; 0x224c <_ZN13mySensorGaris11KalibrasiRBEh+0x1ac>
    22fc:	6b bb       	out	0x1b, r22	; 27
    22fe:	a7 cf       	rjmp	.-178    	; 0x224e <_ZN13mySensorGaris11KalibrasiRBEh+0x1ae>
    2300:	d8 9a       	sbi	0x1b, 0	; 27
    2302:	98 2f       	mov	r25, r24
    2304:	90 7f       	andi	r25, 0xF0	; 240
    2306:	9d 60       	ori	r25, 0x0D	; 13
    2308:	9b bb       	out	0x1b, r25	; 27
    230a:	25 e0       	ldi	r18, 0x05	; 5
    230c:	2a 95       	dec	r18
    230e:	f1 f7       	brne	.-4      	; 0x230c <_ZN13mySensorGaris11KalibrasiRBEh+0x26c>
    2310:	00 00       	nop
    2312:	da 98       	cbi	0x1b, 2	; 27
    2314:	7a e1       	ldi	r23, 0x1A	; 26
    2316:	7a 95       	dec	r23
    2318:	f1 f7       	brne	.-4      	; 0x2316 <_ZN13mySensorGaris11KalibrasiRBEh+0x276>
    231a:	00 c0       	rjmp	.+0      	; 0x231c <_ZN13mySensorGaris11KalibrasiRBEh+0x27c>
    231c:	20 e1       	ldi	r18, 0x10	; 16
    231e:	82 9f       	mul	r24, r18
    2320:	c0 01       	movw	r24, r0
    2322:	11 24       	eor	r1, r1
    2324:	8d 60       	ori	r24, 0x0D	; 13
    2326:	8b bb       	out	0x1b, r24	; 27
    2328:	75 e0       	ldi	r23, 0x05	; 5
    232a:	7a 95       	dec	r23
    232c:	f1 f7       	brne	.-4      	; 0x232a <_ZN13mySensorGaris11KalibrasiRBEh+0x28a>
    232e:	00 00       	nop
    2330:	da 98       	cbi	0x1b, 2	; 27
    2332:	85 ed       	ldi	r24, 0xD5	; 213
    2334:	8a 95       	dec	r24
    2336:	f1 f7       	brne	.-4      	; 0x2334 <_ZN13mySensorGaris11KalibrasiRBEh+0x294>
    2338:	00 00       	nop
    233a:	da 9a       	sbi	0x1b, 2	; 27
    233c:	81 91       	ld	r24, Z+
    233e:	81 11       	cpse	r24, r1
    2340:	df cf       	rjmp	.-66     	; 0x2300 <_ZN13mySensorGaris11KalibrasiRBEh+0x260>
    2342:	ea ce       	rjmp	.-556    	; 0x2118 <_ZN13mySensorGaris11KalibrasiRBEh+0x78>
    2344:	d8 9a       	sbi	0x1b, 0	; 27
    2346:	98 2f       	mov	r25, r24
    2348:	90 7f       	andi	r25, 0xF0	; 240
    234a:	9d 60       	ori	r25, 0x0D	; 13
    234c:	9b bb       	out	0x1b, r25	; 27
    234e:	95 e0       	ldi	r25, 0x05	; 5
    2350:	9a 95       	dec	r25
    2352:	f1 f7       	brne	.-4      	; 0x2350 <_ZN13mySensorGaris11KalibrasiRBEh+0x2b0>
    2354:	00 00       	nop
    2356:	da 98       	cbi	0x1b, 2	; 27
    2358:	2a e1       	ldi	r18, 0x1A	; 26
    235a:	2a 95       	dec	r18
    235c:	f1 f7       	brne	.-4      	; 0x235a <_ZN13mySensorGaris11KalibrasiRBEh+0x2ba>
    235e:	00 c0       	rjmp	.+0      	; 0x2360 <_ZN13mySensorGaris11KalibrasiRBEh+0x2c0>
    2360:	70 e1       	ldi	r23, 0x10	; 16
    2362:	87 9f       	mul	r24, r23
    2364:	c0 01       	movw	r24, r0
    2366:	11 24       	eor	r1, r1
    2368:	8d 60       	ori	r24, 0x0D	; 13
    236a:	8b bb       	out	0x1b, r24	; 27
    236c:	85 e0       	ldi	r24, 0x05	; 5
    236e:	8a 95       	dec	r24
    2370:	f1 f7       	brne	.-4      	; 0x236e <_ZN13mySensorGaris11KalibrasiRBEh+0x2ce>
    2372:	00 00       	nop
    2374:	da 98       	cbi	0x1b, 2	; 27
    2376:	95 ed       	ldi	r25, 0xD5	; 213
    2378:	9a 95       	dec	r25
    237a:	f1 f7       	brne	.-4      	; 0x2378 <_ZN13mySensorGaris11KalibrasiRBEh+0x2d8>
    237c:	00 00       	nop
    237e:	da 9a       	sbi	0x1b, 2	; 27
    2380:	81 91       	ld	r24, Z+
    2382:	81 11       	cpse	r24, r1
    2384:	df cf       	rjmp	.-66     	; 0x2344 <_ZN13mySensorGaris11KalibrasiRBEh+0x2a4>
    2386:	f3 ce       	rjmp	.-538    	; 0x216e <_ZN13mySensorGaris11KalibrasiRBEh+0xce>
    2388:	81 91       	ld	r24, Z+
    238a:	d8 9a       	sbi	0x1b, 0	; 27
    238c:	98 2f       	mov	r25, r24
    238e:	90 7f       	andi	r25, 0xF0	; 240
    2390:	9d 60       	ori	r25, 0x0D	; 13
    2392:	9b bb       	out	0x1b, r25	; 27
    2394:	25 e0       	ldi	r18, 0x05	; 5
    2396:	2a 95       	dec	r18
    2398:	f1 f7       	brne	.-4      	; 0x2396 <_ZN13mySensorGaris11KalibrasiRBEh+0x2f6>
    239a:	00 00       	nop
    239c:	da 98       	cbi	0x1b, 2	; 27
    239e:	7a e1       	ldi	r23, 0x1A	; 26
    23a0:	7a 95       	dec	r23
    23a2:	f1 f7       	brne	.-4      	; 0x23a0 <_ZN13mySensorGaris11KalibrasiRBEh+0x300>
    23a4:	00 c0       	rjmp	.+0      	; 0x23a6 <_ZN13mySensorGaris11KalibrasiRBEh+0x306>
    23a6:	20 e1       	ldi	r18, 0x10	; 16
    23a8:	82 9f       	mul	r24, r18
    23aa:	c0 01       	movw	r24, r0
    23ac:	11 24       	eor	r1, r1
    23ae:	8d 60       	ori	r24, 0x0D	; 13
    23b0:	8b bb       	out	0x1b, r24	; 27
    23b2:	75 e0       	ldi	r23, 0x05	; 5
    23b4:	7a 95       	dec	r23
    23b6:	f1 f7       	brne	.-4      	; 0x23b4 <_ZN13mySensorGaris11KalibrasiRBEh+0x314>
    23b8:	00 00       	nop
    23ba:	da 98       	cbi	0x1b, 2	; 27
    23bc:	85 ed       	ldi	r24, 0xD5	; 213
    23be:	8a 95       	dec	r24
    23c0:	f1 f7       	brne	.-4      	; 0x23be <_ZN13mySensorGaris11KalibrasiRBEh+0x31e>
    23c2:	00 00       	nop
    23c4:	da 9a       	sbi	0x1b, 2	; 27
    23c6:	9f e7       	ldi	r25, 0x7F	; 127
    23c8:	28 e3       	ldi	r18, 0x38	; 56
    23ca:	71 e0       	ldi	r23, 0x01	; 1
    23cc:	91 50       	subi	r25, 0x01	; 1
    23ce:	20 40       	sbci	r18, 0x00	; 0
    23d0:	70 40       	sbci	r23, 0x00	; 0
    23d2:	e1 f7       	brne	.-8      	; 0x23cc <_ZN13mySensorGaris11KalibrasiRBEh+0x32c>
    23d4:	00 c0       	rjmp	.+0      	; 0x23d6 <_ZN13mySensorGaris11KalibrasiRBEh+0x336>
    23d6:	00 00       	nop
    23d8:	81 e0       	ldi	r24, 0x01	; 1
    23da:	e8 37       	cpi	r30, 0x78	; 120
    23dc:	f8 07       	cpc	r31, r24
    23de:	a1 f6       	brne	.-88     	; 0x2388 <_ZN13mySensorGaris11KalibrasiRBEh+0x2e8>
    23e0:	2c cf       	rjmp	.-424    	; 0x223a <_ZN13mySensorGaris11KalibrasiRBEh+0x19a>
    23e2:	9b 9b       	sbis	0x13, 3	; 19
    23e4:	02 c0       	rjmp	.+4      	; 0x23ea <_ZN13mySensorGaris11KalibrasiRBEh+0x34a>
    23e6:	98 99       	sbic	0x13, 0	; 19
    23e8:	fc cf       	rjmp	.-8      	; 0x23e2 <_ZN13mySensorGaris11KalibrasiRBEh+0x342>
    23ea:	9b 99       	sbic	0x13, 3	; 19
    23ec:	93 c0       	rjmp	.+294    	; 0x2514 <_ZN13mySensorGaris11KalibrasiRBEh+0x474>
    23ee:	80 91 9b 00 	lds	r24, 0x009B
    23f2:	85 ff       	sbrs	r24, 5
    23f4:	fc cf       	rjmp	.-8      	; 0x23ee <_ZN13mySensorGaris11KalibrasiRBEh+0x34e>
    23f6:	00 93 9c 00 	sts	0x009C, r16
    23fa:	8b e1       	ldi	r24, 0x1B	; 27
    23fc:	83 bf       	out	0x33, r24	; 51
    23fe:	12 be       	out	0x32, r1	; 50
    2400:	83 e5       	ldi	r24, 0x53	; 83
    2402:	81 bf       	out	0x31, r24	; 49
    2404:	88 ec       	ldi	r24, 0xC8	; 200
    2406:	90 e0       	ldi	r25, 0x00	; 0
    2408:	ef e9       	ldi	r30, 0x9F	; 159
    240a:	ff e0       	ldi	r31, 0x0F	; 15
    240c:	31 97       	sbiw	r30, 0x01	; 1
    240e:	f1 f7       	brne	.-4      	; 0x240c <_ZN13mySensorGaris11KalibrasiRBEh+0x36c>
    2410:	00 c0       	rjmp	.+0      	; 0x2412 <_ZN13mySensorGaris11KalibrasiRBEh+0x372>
    2412:	00 00       	nop
    2414:	01 97       	sbiw	r24, 0x01	; 1
    2416:	00 97       	sbiw	r24, 0x00	; 0
    2418:	b9 f7       	brne	.-18     	; 0x2408 <_ZN13mySensorGaris11KalibrasiRBEh+0x368>
    241a:	13 be       	out	0x33, r1	; 51
    241c:	10 be       	out	0x30, r1	; 48
    241e:	c4 98       	cbi	0x18, 4	; 24
    2420:	60 e0       	ldi	r22, 0x00	; 0
    2422:	81 e4       	ldi	r24, 0x41	; 65
    2424:	92 e0       	ldi	r25, 0x02	; 2
    2426:	0e 94 75 08 	call	0x10ea	; 0x10ea <_ZN5myLCD10HapusKananEh>
    242a:	8d eb       	ldi	r24, 0xBD	; 189
    242c:	91 e0       	ldi	r25, 0x01	; 1
    242e:	0e 94 3d 03 	call	0x67a	; 0x67a <_ZN5myLCD9TulisKiriEhPKc.constprop.18>
    2432:	9b 9b       	sbis	0x13, 3	; 19
    2434:	02 c0       	rjmp	.+4      	; 0x243a <_ZN13mySensorGaris11KalibrasiRBEh+0x39a>
    2436:	98 99       	sbic	0x13, 0	; 19
    2438:	fc cf       	rjmp	.-8      	; 0x2432 <_ZN13mySensorGaris11KalibrasiRBEh+0x392>
    243a:	9b 99       	sbic	0x13, 3	; 19
    243c:	04 c1       	rjmp	.+520    	; 0x2646 <_ZN13mySensorGaris11KalibrasiRBEh+0x5a6>
    243e:	80 91 9b 00 	lds	r24, 0x009B
    2442:	85 ff       	sbrs	r24, 5
    2444:	fc cf       	rjmp	.-8      	; 0x243e <_ZN13mySensorGaris11KalibrasiRBEh+0x39e>
    2446:	00 93 9c 00 	sts	0x009C, r16
    244a:	8b e1       	ldi	r24, 0x1B	; 27
    244c:	83 bf       	out	0x33, r24	; 51
    244e:	12 be       	out	0x32, r1	; 50
    2450:	83 e5       	ldi	r24, 0x53	; 83
    2452:	81 bf       	out	0x31, r24	; 49
    2454:	88 ec       	ldi	r24, 0xC8	; 200
    2456:	90 e0       	ldi	r25, 0x00	; 0
    2458:	ef e9       	ldi	r30, 0x9F	; 159
    245a:	ff e0       	ldi	r31, 0x0F	; 15
    245c:	31 97       	sbiw	r30, 0x01	; 1
    245e:	f1 f7       	brne	.-4      	; 0x245c <_ZN13mySensorGaris11KalibrasiRBEh+0x3bc>
    2460:	00 c0       	rjmp	.+0      	; 0x2462 <_ZN13mySensorGaris11KalibrasiRBEh+0x3c2>
    2462:	00 00       	nop
    2464:	01 97       	sbiw	r24, 0x01	; 1
    2466:	00 97       	sbiw	r24, 0x00	; 0
    2468:	b9 f7       	brne	.-18     	; 0x2458 <_ZN13mySensorGaris11KalibrasiRBEh+0x3b8>
    246a:	13 be       	out	0x33, r1	; 51
    246c:	10 be       	out	0x30, r1	; 48
    246e:	c4 98       	cbi	0x18, 4	; 24
    2470:	60 e0       	ldi	r22, 0x00	; 0
    2472:	81 e4       	ldi	r24, 0x41	; 65
    2474:	92 e0       	ldi	r25, 0x02	; 2
    2476:	0e 94 75 08 	call	0x10ea	; 0x10ea <_ZN5myLCD10HapusKananEh>
    247a:	8e ec       	ldi	r24, 0xCE	; 206
    247c:	91 e0       	ldi	r25, 0x01	; 1
    247e:	0e 94 3d 03 	call	0x67a	; 0x67a <_ZN5myLCD9TulisKiriEhPKc.constprop.18>
    2482:	40 ed       	ldi	r20, 0xD0	; 208
    2484:	61 2f       	mov	r22, r17
    2486:	ce 01       	movw	r24, r28
    2488:	0e 94 e8 0b 	call	0x17d0	; 0x17d0 <_ZN13mySensorGaris21TungguTombolKalibrasiEhh>
    248c:	88 23       	and	r24, r24
    248e:	09 f4       	brne	.+2      	; 0x2492 <_ZN13mySensorGaris11KalibrasiRBEh+0x3f2>
    2490:	47 c0       	rjmp	.+142    	; 0x2520 <_ZN13mySensorGaris11KalibrasiRBEh+0x480>
    2492:	8b e1       	ldi	r24, 0x1B	; 27
    2494:	83 bf       	out	0x33, r24	; 51
    2496:	12 be       	out	0x32, r1	; 50
    2498:	83 e5       	ldi	r24, 0x53	; 83
    249a:	81 bf       	out	0x31, r24	; 49
    249c:	88 ec       	ldi	r24, 0xC8	; 200
    249e:	90 e0       	ldi	r25, 0x00	; 0
    24a0:	ef e9       	ldi	r30, 0x9F	; 159
    24a2:	ff e0       	ldi	r31, 0x0F	; 15
    24a4:	31 97       	sbiw	r30, 0x01	; 1
    24a6:	f1 f7       	brne	.-4      	; 0x24a4 <_ZN13mySensorGaris11KalibrasiRBEh+0x404>
    24a8:	00 c0       	rjmp	.+0      	; 0x24aa <_ZN13mySensorGaris11KalibrasiRBEh+0x40a>
    24aa:	00 00       	nop
    24ac:	01 97       	sbiw	r24, 0x01	; 1
    24ae:	00 97       	sbiw	r24, 0x00	; 0
    24b0:	b9 f7       	brne	.-18     	; 0x24a0 <_ZN13mySensorGaris11KalibrasiRBEh+0x400>
    24b2:	13 be       	out	0x33, r1	; 51
    24b4:	10 be       	out	0x30, r1	; 48
    24b6:	c4 98       	cbi	0x18, 4	; 24
    24b8:	88 e8       	ldi	r24, 0x88	; 136
    24ba:	93 e1       	ldi	r25, 0x13	; 19
    24bc:	08 c0       	rjmp	.+16     	; 0x24ce <_ZN13mySensorGaris11KalibrasiRBEh+0x42e>
    24be:	f5 e0       	ldi	r31, 0x05	; 5
    24c0:	fa 95       	dec	r31
    24c2:	f1 f7       	brne	.-4      	; 0x24c0 <_ZN13mySensorGaris11KalibrasiRBEh+0x420>
    24c4:	00 00       	nop
    24c6:	01 97       	sbiw	r24, 0x01	; 1
    24c8:	00 97       	sbiw	r24, 0x00	; 0
    24ca:	09 f4       	brne	.+2      	; 0x24ce <_ZN13mySensorGaris11KalibrasiRBEh+0x42e>
    24cc:	fb c0       	rjmp	.+502    	; 0x26c4 <_ZN13mySensorGaris11KalibrasiRBEh+0x624>
    24ce:	20 91 4f 02 	lds	r18, 0x024F
    24d2:	22 23       	and	r18, r18
    24d4:	a1 f3       	breq	.-24     	; 0x24be <_ZN13mySensorGaris11KalibrasiRBEh+0x41e>
    24d6:	e8 94       	clt
    24d8:	21 f8       	bld	r2, 1
    24da:	e0 91 50 02 	lds	r30, 0x0250
    24de:	f0 e0       	ldi	r31, 0x00	; 0
    24e0:	ee 5a       	subi	r30, 0xAE	; 174
    24e2:	fd 4f       	sbci	r31, 0xFD	; 253
    24e4:	90 81       	ld	r25, Z
    24e6:	80 91 50 02 	lds	r24, 0x0250
    24ea:	8f 5f       	subi	r24, 0xFF	; 255
    24ec:	80 93 50 02 	sts	0x0250, r24
    24f0:	80 31       	cpi	r24, 0x10	; 16
    24f2:	11 f4       	brne	.+4      	; 0x24f8 <_ZN13mySensorGaris11KalibrasiRBEh+0x458>
    24f4:	10 92 50 02 	sts	0x0250, r1
    24f8:	f8 94       	cli
    24fa:	80 91 4f 02 	lds	r24, 0x024F
    24fe:	81 50       	subi	r24, 0x01	; 1
    2500:	80 93 4f 02 	sts	0x024F, r24
    2504:	78 94       	sei
    2506:	09 13       	cpse	r16, r25
    2508:	0b c0       	rjmp	.+22     	; 0x2520 <_ZN13mySensorGaris11KalibrasiRBEh+0x480>
    250a:	ce 01       	movw	r24, r28
    250c:	0e 94 ff 0b 	call	0x17fe	; 0x17fe <_ZN13mySensorGaris22PesanKalibrasiBerhasilEv>
    2510:	81 e0       	ldi	r24, 0x01	; 1
    2512:	72 c0       	rjmp	.+228    	; 0x25f8 <_ZN13mySensorGaris11KalibrasiRBEh+0x558>
    2514:	80 91 9b 00 	lds	r24, 0x009B
    2518:	85 ff       	sbrs	r24, 5
    251a:	fc cf       	rjmp	.-8      	; 0x2514 <_ZN13mySensorGaris11KalibrasiRBEh+0x474>
    251c:	10 92 9c 00 	sts	0x009C, r1
    2520:	61 e0       	ldi	r22, 0x01	; 1
    2522:	81 e4       	ldi	r24, 0x41	; 65
    2524:	92 e0       	ldi	r25, 0x02	; 2
    2526:	0e 94 0e 03 	call	0x61c	; 0x61c <_ZN5myLCD8PerintahEh>
    252a:	ef e3       	ldi	r30, 0x3F	; 63
    252c:	ff e1       	ldi	r31, 0x1F	; 31
    252e:	31 97       	sbiw	r30, 0x01	; 1
    2530:	f1 f7       	brne	.-4      	; 0x252e <_ZN13mySensorGaris11KalibrasiRBEh+0x48e>
    2532:	00 c0       	rjmp	.+0      	; 0x2534 <_ZN13mySensorGaris11KalibrasiRBEh+0x494>
    2534:	00 00       	nop
    2536:	60 e8       	ldi	r22, 0x80	; 128
    2538:	81 e4       	ldi	r24, 0x41	; 65
    253a:	92 e0       	ldi	r25, 0x02	; 2
    253c:	0e 94 0e 03 	call	0x61c	; 0x61c <_ZN5myLCD8PerintahEh>
    2540:	e5 e2       	ldi	r30, 0x25	; 37
    2542:	f1 e0       	ldi	r31, 0x01	; 1
    2544:	8b e4       	ldi	r24, 0x4B	; 75
    2546:	20 fc       	sbrc	r2, 0
    2548:	5c c0       	rjmp	.+184    	; 0x2602 <_ZN13mySensorGaris11KalibrasiRBEh+0x562>
    254a:	d8 9a       	sbi	0x1b, 0	; 27
    254c:	98 2f       	mov	r25, r24
    254e:	90 7f       	andi	r25, 0xF0	; 240
    2550:	95 60       	ori	r25, 0x05	; 5
    2552:	9b bb       	out	0x1b, r25	; 27
    2554:	25 e0       	ldi	r18, 0x05	; 5
    2556:	2a 95       	dec	r18
    2558:	f1 f7       	brne	.-4      	; 0x2556 <_ZN13mySensorGaris11KalibrasiRBEh+0x4b6>
    255a:	00 00       	nop
    255c:	da 98       	cbi	0x1b, 2	; 27
    255e:	7a e1       	ldi	r23, 0x1A	; 26
    2560:	7a 95       	dec	r23
    2562:	f1 f7       	brne	.-4      	; 0x2560 <_ZN13mySensorGaris11KalibrasiRBEh+0x4c0>
    2564:	00 c0       	rjmp	.+0      	; 0x2566 <_ZN13mySensorGaris11KalibrasiRBEh+0x4c6>
    2566:	20 e1       	ldi	r18, 0x10	; 16
    2568:	82 9f       	mul	r24, r18
    256a:	c0 01       	movw	r24, r0
    256c:	11 24       	eor	r1, r1
    256e:	85 60       	ori	r24, 0x05	; 5
    2570:	8b bb       	out	0x1b, r24	; 27
    2572:	75 e0       	ldi	r23, 0x05	; 5
    2574:	7a 95       	dec	r23
    2576:	f1 f7       	brne	.-4      	; 0x2574 <_ZN13mySensorGaris11KalibrasiRBEh+0x4d4>
    2578:	00 00       	nop
    257a:	da 98       	cbi	0x1b, 2	; 27
    257c:	85 ed       	ldi	r24, 0xD5	; 213
    257e:	8a 95       	dec	r24
    2580:	f1 f7       	brne	.-4      	; 0x257e <_ZN13mySensorGaris11KalibrasiRBEh+0x4de>
    2582:	00 00       	nop
    2584:	da 9a       	sbi	0x1b, 2	; 27
    2586:	81 91       	ld	r24, Z+
    2588:	81 11       	cpse	r24, r1
    258a:	df cf       	rjmp	.-66     	; 0x254a <_ZN13mySensorGaris11KalibrasiRBEh+0x4aa>
    258c:	60 ec       	ldi	r22, 0xC0	; 192
    258e:	81 e4       	ldi	r24, 0x41	; 65
    2590:	92 e0       	ldi	r25, 0x02	; 2
    2592:	0e 94 0e 03 	call	0x61c	; 0x61c <_ZN5myLCD8PerintahEh>
    2596:	e6 e4       	ldi	r30, 0x46	; 70
    2598:	f1 e0       	ldi	r31, 0x01	; 1
    259a:	20 fc       	sbrc	r2, 0
    259c:	5d c0       	rjmp	.+186    	; 0x2658 <_ZN13mySensorGaris11KalibrasiRBEh+0x5b8>
    259e:	81 91       	ld	r24, Z+
    25a0:	d8 9a       	sbi	0x1b, 0	; 27
    25a2:	98 2f       	mov	r25, r24
    25a4:	90 7f       	andi	r25, 0xF0	; 240
    25a6:	95 60       	ori	r25, 0x05	; 5
    25a8:	9b bb       	out	0x1b, r25	; 27
    25aa:	95 e0       	ldi	r25, 0x05	; 5
    25ac:	9a 95       	dec	r25
    25ae:	f1 f7       	brne	.-4      	; 0x25ac <_ZN13mySensorGaris11KalibrasiRBEh+0x50c>
    25b0:	00 00       	nop
    25b2:	da 98       	cbi	0x1b, 2	; 27
    25b4:	2a e1       	ldi	r18, 0x1A	; 26
    25b6:	2a 95       	dec	r18
    25b8:	f1 f7       	brne	.-4      	; 0x25b6 <_ZN13mySensorGaris11KalibrasiRBEh+0x516>
    25ba:	00 c0       	rjmp	.+0      	; 0x25bc <_ZN13mySensorGaris11KalibrasiRBEh+0x51c>
    25bc:	70 e1       	ldi	r23, 0x10	; 16
    25be:	87 9f       	mul	r24, r23
    25c0:	c0 01       	movw	r24, r0
    25c2:	11 24       	eor	r1, r1
    25c4:	85 60       	ori	r24, 0x05	; 5
    25c6:	8b bb       	out	0x1b, r24	; 27
    25c8:	85 e0       	ldi	r24, 0x05	; 5
    25ca:	8a 95       	dec	r24
    25cc:	f1 f7       	brne	.-4      	; 0x25ca <_ZN13mySensorGaris11KalibrasiRBEh+0x52a>
    25ce:	00 00       	nop
    25d0:	da 98       	cbi	0x1b, 2	; 27
    25d2:	95 ed       	ldi	r25, 0xD5	; 213
    25d4:	9a 95       	dec	r25
    25d6:	f1 f7       	brne	.-4      	; 0x25d4 <_ZN13mySensorGaris11KalibrasiRBEh+0x534>
    25d8:	00 00       	nop
    25da:	da 9a       	sbi	0x1b, 2	; 27
    25dc:	2f e7       	ldi	r18, 0x7F	; 127
    25de:	78 e3       	ldi	r23, 0x38	; 56
    25e0:	81 e0       	ldi	r24, 0x01	; 1
    25e2:	21 50       	subi	r18, 0x01	; 1
    25e4:	70 40       	sbci	r23, 0x00	; 0
    25e6:	80 40       	sbci	r24, 0x00	; 0
    25e8:	e1 f7       	brne	.-8      	; 0x25e2 <_ZN13mySensorGaris11KalibrasiRBEh+0x542>
    25ea:	00 c0       	rjmp	.+0      	; 0x25ec <_ZN13mySensorGaris11KalibrasiRBEh+0x54c>
    25ec:	00 00       	nop
    25ee:	91 e0       	ldi	r25, 0x01	; 1
    25f0:	e6 35       	cpi	r30, 0x56	; 86
    25f2:	f9 07       	cpc	r31, r25
    25f4:	a1 f6       	brne	.-88     	; 0x259e <_ZN13mySensorGaris11KalibrasiRBEh+0x4fe>
    25f6:	80 e0       	ldi	r24, 0x00	; 0
    25f8:	df 91       	pop	r29
    25fa:	cf 91       	pop	r28
    25fc:	1f 91       	pop	r17
    25fe:	0f 91       	pop	r16
    2600:	08 95       	ret
    2602:	d8 9a       	sbi	0x1b, 0	; 27
    2604:	98 2f       	mov	r25, r24
    2606:	90 7f       	andi	r25, 0xF0	; 240
    2608:	9d 60       	ori	r25, 0x0D	; 13
    260a:	9b bb       	out	0x1b, r25	; 27
    260c:	95 e0       	ldi	r25, 0x05	; 5
    260e:	9a 95       	dec	r25
    2610:	f1 f7       	brne	.-4      	; 0x260e <_ZN13mySensorGaris11KalibrasiRBEh+0x56e>
    2612:	00 00       	nop
    2614:	da 98       	cbi	0x1b, 2	; 27
    2616:	2a e1       	ldi	r18, 0x1A	; 26
    2618:	2a 95       	dec	r18
    261a:	f1 f7       	brne	.-4      	; 0x2618 <_ZN13mySensorGaris11KalibrasiRBEh+0x578>
    261c:	00 c0       	rjmp	.+0      	; 0x261e <_ZN13mySensorGaris11KalibrasiRBEh+0x57e>
    261e:	70 e1       	ldi	r23, 0x10	; 16
    2620:	87 9f       	mul	r24, r23
    2622:	c0 01       	movw	r24, r0
    2624:	11 24       	eor	r1, r1
    2626:	8d 60       	ori	r24, 0x0D	; 13
    2628:	8b bb       	out	0x1b, r24	; 27
    262a:	85 e0       	ldi	r24, 0x05	; 5
    262c:	8a 95       	dec	r24
    262e:	f1 f7       	brne	.-4      	; 0x262c <_ZN13mySensorGaris11KalibrasiRBEh+0x58c>
    2630:	00 00       	nop
    2632:	da 98       	cbi	0x1b, 2	; 27
    2634:	95 ed       	ldi	r25, 0xD5	; 213
    2636:	9a 95       	dec	r25
    2638:	f1 f7       	brne	.-4      	; 0x2636 <_ZN13mySensorGaris11KalibrasiRBEh+0x596>
    263a:	00 00       	nop
    263c:	da 9a       	sbi	0x1b, 2	; 27
    263e:	81 91       	ld	r24, Z+
    2640:	81 11       	cpse	r24, r1
    2642:	df cf       	rjmp	.-66     	; 0x2602 <_ZN13mySensorGaris11KalibrasiRBEh+0x562>
    2644:	a3 cf       	rjmp	.-186    	; 0x258c <_ZN13mySensorGaris11KalibrasiRBEh+0x4ec>
    2646:	80 91 9b 00 	lds	r24, 0x009B
    264a:	85 fd       	sbrc	r24, 5
    264c:	67 cf       	rjmp	.-306    	; 0x251c <_ZN13mySensorGaris11KalibrasiRBEh+0x47c>
    264e:	80 91 9b 00 	lds	r24, 0x009B
    2652:	85 ff       	sbrs	r24, 5
    2654:	f8 cf       	rjmp	.-16     	; 0x2646 <_ZN13mySensorGaris11KalibrasiRBEh+0x5a6>
    2656:	62 cf       	rjmp	.-316    	; 0x251c <_ZN13mySensorGaris11KalibrasiRBEh+0x47c>
    2658:	81 91       	ld	r24, Z+
    265a:	d8 9a       	sbi	0x1b, 0	; 27
    265c:	98 2f       	mov	r25, r24
    265e:	90 7f       	andi	r25, 0xF0	; 240
    2660:	9d 60       	ori	r25, 0x0D	; 13
    2662:	9b bb       	out	0x1b, r25	; 27
    2664:	25 e0       	ldi	r18, 0x05	; 5
    2666:	2a 95       	dec	r18
    2668:	f1 f7       	brne	.-4      	; 0x2666 <_ZN13mySensorGaris11KalibrasiRBEh+0x5c6>
    266a:	00 00       	nop
    266c:	da 98       	cbi	0x1b, 2	; 27
    266e:	7a e1       	ldi	r23, 0x1A	; 26
    2670:	7a 95       	dec	r23
    2672:	f1 f7       	brne	.-4      	; 0x2670 <_ZN13mySensorGaris11KalibrasiRBEh+0x5d0>
    2674:	00 c0       	rjmp	.+0      	; 0x2676 <_ZN13mySensorGaris11KalibrasiRBEh+0x5d6>
    2676:	20 e1       	ldi	r18, 0x10	; 16
    2678:	82 9f       	mul	r24, r18
    267a:	c0 01       	movw	r24, r0
    267c:	11 24       	eor	r1, r1
    267e:	8d 60       	ori	r24, 0x0D	; 13
    2680:	8b bb       	out	0x1b, r24	; 27
    2682:	75 e0       	ldi	r23, 0x05	; 5
    2684:	7a 95       	dec	r23
    2686:	f1 f7       	brne	.-4      	; 0x2684 <_ZN13mySensorGaris11KalibrasiRBEh+0x5e4>
    2688:	00 00       	nop
    268a:	da 98       	cbi	0x1b, 2	; 27
    268c:	85 ed       	ldi	r24, 0xD5	; 213
    268e:	8a 95       	dec	r24
    2690:	f1 f7       	brne	.-4      	; 0x268e <_ZN13mySensorGaris11KalibrasiRBEh+0x5ee>
    2692:	00 00       	nop
    2694:	da 9a       	sbi	0x1b, 2	; 27
    2696:	9f e7       	ldi	r25, 0x7F	; 127
    2698:	28 e3       	ldi	r18, 0x38	; 56
    269a:	71 e0       	ldi	r23, 0x01	; 1
    269c:	91 50       	subi	r25, 0x01	; 1
    269e:	20 40       	sbci	r18, 0x00	; 0
    26a0:	70 40       	sbci	r23, 0x00	; 0
    26a2:	e1 f7       	brne	.-8      	; 0x269c <_ZN13mySensorGaris11KalibrasiRBEh+0x5fc>
    26a4:	00 c0       	rjmp	.+0      	; 0x26a6 <_ZN13mySensorGaris11KalibrasiRBEh+0x606>
    26a6:	00 00       	nop
    26a8:	81 e0       	ldi	r24, 0x01	; 1
    26aa:	e6 35       	cpi	r30, 0x56	; 86
    26ac:	f8 07       	cpc	r31, r24
    26ae:	a1 f6       	brne	.-88     	; 0x2658 <_ZN13mySensorGaris11KalibrasiRBEh+0x5b8>
    26b0:	a2 cf       	rjmp	.-188    	; 0x25f6 <_ZN13mySensorGaris11KalibrasiRBEh+0x556>
    26b2:	95 60       	ori	r25, 0x05	; 5
    26b4:	9b bb       	out	0x1b, r25	; 27
    26b6:	f4 cd       	rjmp	.-1048   	; 0x22a0 <_ZN13mySensorGaris11KalibrasiRBEh+0x200>
    26b8:	8d 60       	ori	r24, 0x0D	; 13
    26ba:	8b bb       	out	0x1b, r24	; 27
    26bc:	02 ce       	rjmp	.-1020   	; 0x22c2 <_ZN13mySensorGaris11KalibrasiRBEh+0x222>
    26be:	8c 60       	ori	r24, 0x0C	; 12
    26c0:	8b bb       	out	0x1b, r24	; 27
    26c2:	d9 cd       	rjmp	.-1102   	; 0x2276 <_ZN13mySensorGaris11KalibrasiRBEh+0x1d6>
    26c4:	68 94       	set
    26c6:	21 f8       	bld	r2, 1
    26c8:	2b cf       	rjmp	.-426    	; 0x2520 <_ZN13mySensorGaris11KalibrasiRBEh+0x480>

000026ca <_ZN11myScanGaris17UpdateSensorGarisEhh>:
    26ca:	42 30       	cpi	r20, 0x02	; 2
    26cc:	c9 f1       	breq	.+114    	; 0x2740 <_ZN11myScanGaris17UpdateSensorGarisEhh+0x76>
    26ce:	90 f4       	brcc	.+36     	; 0x26f4 <_ZN11myScanGaris17UpdateSensorGarisEhh+0x2a>
    26d0:	44 23       	and	r20, r20
    26d2:	61 f1       	breq	.+88     	; 0x272c <_ZN11myScanGaris17UpdateSensorGarisEhh+0x62>
    26d4:	41 30       	cpi	r20, 0x01	; 1
    26d6:	41 f4       	brne	.+16     	; 0x26e8 <_ZN11myScanGaris17UpdateSensorGarisEhh+0x1e>
    26d8:	66 23       	and	r22, r22
    26da:	c1 f0       	breq	.+48     	; 0x270c <_ZN11myScanGaris17UpdateSensorGarisEhh+0x42>
    26dc:	63 30       	cpi	r22, 0x03	; 3
    26de:	b1 f0       	breq	.+44     	; 0x270c <_ZN11myScanGaris17UpdateSensorGarisEhh+0x42>
    26e0:	64 30       	cpi	r22, 0x04	; 4
    26e2:	61 f1       	breq	.+88     	; 0x273c <_ZN11myScanGaris17UpdateSensorGarisEhh+0x72>
    26e4:	62 30       	cpi	r22, 0x02	; 2
    26e6:	91 f0       	breq	.+36     	; 0x270c <_ZN11myScanGaris17UpdateSensorGarisEhh+0x42>
    26e8:	20 e4       	ldi	r18, 0x40	; 64
    26ea:	fc 01       	movw	r30, r24
    26ec:	21 83       	std	Z+1, r18	; 0x01
    26ee:	e8 94       	clt
    26f0:	31 f8       	bld	r3, 1
    26f2:	08 95       	ret
    26f4:	43 30       	cpi	r20, 0x03	; 3
    26f6:	81 f0       	breq	.+32     	; 0x2718 <_ZN11myScanGaris17UpdateSensorGarisEhh+0x4e>
    26f8:	44 30       	cpi	r20, 0x04	; 4
    26fa:	b1 f7       	brne	.-20     	; 0x26e8 <_ZN11myScanGaris17UpdateSensorGarisEhh+0x1e>
    26fc:	61 30       	cpi	r22, 0x01	; 1
    26fe:	31 f4       	brne	.+12     	; 0x270c <_ZN11myScanGaris17UpdateSensorGarisEhh+0x42>
    2700:	20 e1       	ldi	r18, 0x10	; 16
    2702:	fc 01       	movw	r30, r24
    2704:	21 83       	std	Z+1, r18	; 0x01
    2706:	68 94       	set
    2708:	31 f8       	bld	r3, 1
    270a:	08 95       	ret
    270c:	20 e4       	ldi	r18, 0x40	; 64
    270e:	fc 01       	movw	r30, r24
    2710:	21 83       	std	Z+1, r18	; 0x01
    2712:	68 94       	set
    2714:	31 f8       	bld	r3, 1
    2716:	08 95       	ret
    2718:	66 23       	and	r22, r22
    271a:	81 f0       	breq	.+32     	; 0x273c <_ZN11myScanGaris17UpdateSensorGarisEhh+0x72>
    271c:	62 30       	cpi	r22, 0x02	; 2
    271e:	21 f7       	brne	.-56     	; 0x26e8 <_ZN11myScanGaris17UpdateSensorGarisEhh+0x1e>
    2720:	20 e2       	ldi	r18, 0x20	; 32
    2722:	fc 01       	movw	r30, r24
    2724:	21 83       	std	Z+1, r18	; 0x01
    2726:	e8 94       	clt
    2728:	31 f8       	bld	r3, 1
    272a:	08 95       	ret
    272c:	61 30       	cpi	r22, 0x01	; 1
    272e:	e1 f2       	breq	.-72     	; 0x26e8 <_ZN11myScanGaris17UpdateSensorGarisEhh+0x1e>
    2730:	64 30       	cpi	r22, 0x04	; 4
    2732:	d1 f2       	breq	.-76     	; 0x26e8 <_ZN11myScanGaris17UpdateSensorGarisEhh+0x1e>
    2734:	62 30       	cpi	r22, 0x02	; 2
    2736:	a1 f3       	breq	.-24     	; 0x2720 <_ZN11myScanGaris17UpdateSensorGarisEhh+0x56>
    2738:	63 30       	cpi	r22, 0x03	; 3
    273a:	b1 f6       	brne	.-84     	; 0x26e8 <_ZN11myScanGaris17UpdateSensorGarisEhh+0x1e>
    273c:	20 e1       	ldi	r18, 0x10	; 16
    273e:	d5 cf       	rjmp	.-86     	; 0x26ea <_ZN11myScanGaris17UpdateSensorGarisEhh+0x20>
    2740:	66 23       	and	r22, r22
    2742:	71 f3       	breq	.-36     	; 0x2720 <_ZN11myScanGaris17UpdateSensorGarisEhh+0x56>
    2744:	63 30       	cpi	r22, 0x03	; 3
    2746:	81 f6       	brne	.-96     	; 0x26e8 <_ZN11myScanGaris17UpdateSensorGarisEhh+0x1e>
    2748:	20 e2       	ldi	r18, 0x20	; 32
    274a:	eb cf       	rjmp	.-42     	; 0x2722 <_ZN11myScanGaris17UpdateSensorGarisEhh+0x58>

0000274c <_ZN11myScanGaris21UpdateSensorPertigaanEhh>:
    274c:	42 30       	cpi	r20, 0x02	; 2
    274e:	c9 f1       	breq	.+114    	; 0x27c2 <_ZN11myScanGaris21UpdateSensorPertigaanEhh+0x76>
    2750:	90 f4       	brcc	.+36     	; 0x2776 <_ZN11myScanGaris21UpdateSensorPertigaanEhh+0x2a>
    2752:	44 23       	and	r20, r20
    2754:	61 f1       	breq	.+88     	; 0x27ae <_ZN11myScanGaris21UpdateSensorPertigaanEhh+0x62>
    2756:	41 30       	cpi	r20, 0x01	; 1
    2758:	41 f4       	brne	.+16     	; 0x276a <_ZN11myScanGaris21UpdateSensorPertigaanEhh+0x1e>
    275a:	66 23       	and	r22, r22
    275c:	c1 f0       	breq	.+48     	; 0x278e <_ZN11myScanGaris21UpdateSensorPertigaanEhh+0x42>
    275e:	63 30       	cpi	r22, 0x03	; 3
    2760:	b1 f0       	breq	.+44     	; 0x278e <_ZN11myScanGaris21UpdateSensorPertigaanEhh+0x42>
    2762:	64 30       	cpi	r22, 0x04	; 4
    2764:	61 f1       	breq	.+88     	; 0x27be <_ZN11myScanGaris21UpdateSensorPertigaanEhh+0x72>
    2766:	62 30       	cpi	r22, 0x02	; 2
    2768:	91 f0       	breq	.+36     	; 0x278e <_ZN11myScanGaris21UpdateSensorPertigaanEhh+0x42>
    276a:	20 e4       	ldi	r18, 0x40	; 64
    276c:	fc 01       	movw	r30, r24
    276e:	22 83       	std	Z+2, r18	; 0x02
    2770:	e8 94       	clt
    2772:	32 f8       	bld	r3, 2
    2774:	08 95       	ret
    2776:	43 30       	cpi	r20, 0x03	; 3
    2778:	81 f0       	breq	.+32     	; 0x279a <_ZN11myScanGaris21UpdateSensorPertigaanEhh+0x4e>
    277a:	44 30       	cpi	r20, 0x04	; 4
    277c:	b1 f7       	brne	.-20     	; 0x276a <_ZN11myScanGaris21UpdateSensorPertigaanEhh+0x1e>
    277e:	61 30       	cpi	r22, 0x01	; 1
    2780:	31 f4       	brne	.+12     	; 0x278e <_ZN11myScanGaris21UpdateSensorPertigaanEhh+0x42>
    2782:	20 e1       	ldi	r18, 0x10	; 16
    2784:	fc 01       	movw	r30, r24
    2786:	22 83       	std	Z+2, r18	; 0x02
    2788:	68 94       	set
    278a:	32 f8       	bld	r3, 2
    278c:	08 95       	ret
    278e:	20 e4       	ldi	r18, 0x40	; 64
    2790:	fc 01       	movw	r30, r24
    2792:	22 83       	std	Z+2, r18	; 0x02
    2794:	68 94       	set
    2796:	32 f8       	bld	r3, 2
    2798:	08 95       	ret
    279a:	66 23       	and	r22, r22
    279c:	81 f0       	breq	.+32     	; 0x27be <_ZN11myScanGaris21UpdateSensorPertigaanEhh+0x72>
    279e:	62 30       	cpi	r22, 0x02	; 2
    27a0:	21 f7       	brne	.-56     	; 0x276a <_ZN11myScanGaris21UpdateSensorPertigaanEhh+0x1e>
    27a2:	20 e2       	ldi	r18, 0x20	; 32
    27a4:	fc 01       	movw	r30, r24
    27a6:	22 83       	std	Z+2, r18	; 0x02
    27a8:	e8 94       	clt
    27aa:	32 f8       	bld	r3, 2
    27ac:	08 95       	ret
    27ae:	61 30       	cpi	r22, 0x01	; 1
    27b0:	e1 f2       	breq	.-72     	; 0x276a <_ZN11myScanGaris21UpdateSensorPertigaanEhh+0x1e>
    27b2:	64 30       	cpi	r22, 0x04	; 4
    27b4:	d1 f2       	breq	.-76     	; 0x276a <_ZN11myScanGaris21UpdateSensorPertigaanEhh+0x1e>
    27b6:	62 30       	cpi	r22, 0x02	; 2
    27b8:	a1 f3       	breq	.-24     	; 0x27a2 <_ZN11myScanGaris21UpdateSensorPertigaanEhh+0x56>
    27ba:	63 30       	cpi	r22, 0x03	; 3
    27bc:	b1 f6       	brne	.-84     	; 0x276a <_ZN11myScanGaris21UpdateSensorPertigaanEhh+0x1e>
    27be:	20 e1       	ldi	r18, 0x10	; 16
    27c0:	d5 cf       	rjmp	.-86     	; 0x276c <_ZN11myScanGaris21UpdateSensorPertigaanEhh+0x20>
    27c2:	66 23       	and	r22, r22
    27c4:	71 f3       	breq	.-36     	; 0x27a2 <_ZN11myScanGaris21UpdateSensorPertigaanEhh+0x56>
    27c6:	63 30       	cpi	r22, 0x03	; 3
    27c8:	81 f6       	brne	.-96     	; 0x276a <_ZN11myScanGaris21UpdateSensorPertigaanEhh+0x1e>
    27ca:	20 e2       	ldi	r18, 0x20	; 32
    27cc:	eb cf       	rjmp	.-42     	; 0x27a4 <_ZN11myScanGaris21UpdateSensorPertigaanEhh+0x58>

000027ce <__vector_7>:
    27ce:	1f 92       	push	r1
    27d0:	0f 92       	push	r0
    27d2:	0f b6       	in	r0, 0x3f	; 63
    27d4:	0f 92       	push	r0
    27d6:	11 24       	eor	r1, r1
    27d8:	8f 93       	push	r24
    27da:	9f 93       	push	r25
    27dc:	0e 9b       	sbis	0x01, 6	; 1
    27de:	18 c0       	rjmp	.+48     	; 0x2810 <__vector_7+0x42>
    27e0:	b0 9b       	sbis	0x16, 0	; 22
    27e2:	18 c0       	rjmp	.+48     	; 0x2814 <__vector_7+0x46>
    27e4:	f8 94       	cli
    27e6:	80 91 49 02 	lds	r24, 0x0249
    27ea:	90 91 4a 02 	lds	r25, 0x024A
    27ee:	01 97       	sbiw	r24, 0x01	; 1
    27f0:	90 93 4a 02 	sts	0x024A, r25
    27f4:	80 93 49 02 	sts	0x0249, r24
    27f8:	80 91 47 02 	lds	r24, 0x0247
    27fc:	8f 5f       	subi	r24, 0xFF	; 255
    27fe:	80 93 47 02 	sts	0x0247, r24
    2802:	9f 91       	pop	r25
    2804:	8f 91       	pop	r24
    2806:	0f 90       	pop	r0
    2808:	0f be       	out	0x3f, r0	; 63
    280a:	0f 90       	pop	r0
    280c:	1f 90       	pop	r1
    280e:	18 95       	reti
    2810:	b0 9b       	sbis	0x16, 0	; 22
    2812:	e8 cf       	rjmp	.-48     	; 0x27e4 <__vector_7+0x16>
    2814:	f8 94       	cli
    2816:	80 91 49 02 	lds	r24, 0x0249
    281a:	90 91 4a 02 	lds	r25, 0x024A
    281e:	01 96       	adiw	r24, 0x01	; 1
    2820:	90 93 4a 02 	sts	0x024A, r25
    2824:	80 93 49 02 	sts	0x0249, r24
    2828:	e7 cf       	rjmp	.-50     	; 0x27f8 <__vector_7+0x2a>

0000282a <__vector_8>:
    282a:	1f 92       	push	r1
    282c:	0f 92       	push	r0
    282e:	0f b6       	in	r0, 0x3f	; 63
    2830:	0f 92       	push	r0
    2832:	11 24       	eor	r1, r1
    2834:	8f 93       	push	r24
    2836:	9f 93       	push	r25
    2838:	0f 99       	sbic	0x01, 7	; 1
    283a:	18 c0       	rjmp	.+48     	; 0x286c <__vector_8+0x42>
    283c:	b2 99       	sbic	0x16, 2	; 22
    283e:	18 c0       	rjmp	.+48     	; 0x2870 <__vector_8+0x46>
    2840:	f8 94       	cli
    2842:	80 91 4b 02 	lds	r24, 0x024B
    2846:	90 91 4c 02 	lds	r25, 0x024C
    284a:	01 96       	adiw	r24, 0x01	; 1
    284c:	90 93 4c 02 	sts	0x024C, r25
    2850:	80 93 4b 02 	sts	0x024B, r24
    2854:	80 91 48 02 	lds	r24, 0x0248
    2858:	8f 5f       	subi	r24, 0xFF	; 255
    285a:	80 93 48 02 	sts	0x0248, r24
    285e:	9f 91       	pop	r25
    2860:	8f 91       	pop	r24
    2862:	0f 90       	pop	r0
    2864:	0f be       	out	0x3f, r0	; 63
    2866:	0f 90       	pop	r0
    2868:	1f 90       	pop	r1
    286a:	18 95       	reti
    286c:	b2 99       	sbic	0x16, 2	; 22
    286e:	e8 cf       	rjmp	.-48     	; 0x2840 <__vector_8+0x16>
    2870:	f8 94       	cli
    2872:	80 91 4b 02 	lds	r24, 0x024B
    2876:	90 91 4c 02 	lds	r25, 0x024C
    287a:	01 97       	sbiw	r24, 0x01	; 1
    287c:	90 93 4c 02 	sts	0x024C, r25
    2880:	80 93 4b 02 	sts	0x024B, r24
    2884:	e7 cf       	rjmp	.-50     	; 0x2854 <__vector_8+0x2a>

00002886 <__vector_28>:
    2886:	1f 92       	push	r1
    2888:	0f 92       	push	r0
    288a:	0f b6       	in	r0, 0x3f	; 63
    288c:	0f 92       	push	r0
    288e:	11 24       	eor	r1, r1
    2890:	2f 93       	push	r18
    2892:	8f 93       	push	r24
    2894:	9f 93       	push	r25
    2896:	80 91 64 02 	lds	r24, 0x0264
    289a:	90 91 65 02 	lds	r25, 0x0265
    289e:	01 96       	adiw	r24, 0x01	; 1
    28a0:	89 3e       	cpi	r24, 0xE9	; 233
    28a2:	23 e0       	ldi	r18, 0x03	; 3
    28a4:	92 07       	cpc	r25, r18
    28a6:	60 f0       	brcs	.+24     	; 0x28c0 <__vector_28+0x3a>
    28a8:	10 92 65 02 	sts	0x0265, r1
    28ac:	10 92 64 02 	sts	0x0264, r1
    28b0:	9f 91       	pop	r25
    28b2:	8f 91       	pop	r24
    28b4:	2f 91       	pop	r18
    28b6:	0f 90       	pop	r0
    28b8:	0f be       	out	0x3f, r0	; 63
    28ba:	0f 90       	pop	r0
    28bc:	1f 90       	pop	r1
    28be:	18 95       	reti
    28c0:	90 93 65 02 	sts	0x0265, r25
    28c4:	80 93 64 02 	sts	0x0264, r24
    28c8:	9f 91       	pop	r25
    28ca:	8f 91       	pop	r24
    28cc:	2f 91       	pop	r18
    28ce:	0f 90       	pop	r0
    28d0:	0f be       	out	0x3f, r0	; 63
    28d2:	0f 90       	pop	r0
    28d4:	1f 90       	pop	r1
    28d6:	18 95       	reti

000028d8 <__vector_11>:
    28d8:	1f 92       	push	r1
    28da:	0f 92       	push	r0
    28dc:	0f b6       	in	r0, 0x3f	; 63
    28de:	0f 92       	push	r0
    28e0:	11 24       	eor	r1, r1
    28e2:	8f 93       	push	r24
    28e4:	80 91 01 01 	lds	r24, 0x0101
    28e8:	81 50       	subi	r24, 0x01	; 1
    28ea:	80 93 01 01 	sts	0x0101, r24
    28ee:	88 23       	and	r24, r24
    28f0:	49 f0       	breq	.+18     	; 0x2904 <__vector_11+0x2c>
    28f2:	82 e0       	ldi	r24, 0x02	; 2
    28f4:	8f bd       	out	0x2f, r24	; 47
    28f6:	78 94       	sei
    28f8:	8f 91       	pop	r24
    28fa:	0f 90       	pop	r0
    28fc:	0f be       	out	0x3f, r0	; 63
    28fe:	0f 90       	pop	r0
    2900:	1f 90       	pop	r1
    2902:	18 95       	reti
    2904:	82 e0       	ldi	r24, 0x02	; 2
    2906:	80 93 01 01 	sts	0x0101, r24
    290a:	8a ea       	ldi	r24, 0xAA	; 170
    290c:	8f bd       	out	0x2f, r24	; 47
    290e:	78 94       	sei
    2910:	8f 91       	pop	r24
    2912:	0f 90       	pop	r0
    2914:	0f be       	out	0x3f, r0	; 63
    2916:	0f 90       	pop	r0
    2918:	1f 90       	pop	r1
    291a:	18 95       	reti

0000291c <__vector_14>:
    291c:	1f 92       	push	r1
    291e:	0f 92       	push	r0
    2920:	0f b6       	in	r0, 0x3f	; 63
    2922:	0f 92       	push	r0
    2924:	11 24       	eor	r1, r1
    2926:	78 94       	sei
    2928:	0f 90       	pop	r0
    292a:	0f be       	out	0x3f, r0	; 63
    292c:	0f 90       	pop	r0
    292e:	1f 90       	pop	r1
    2930:	18 95       	reti

00002932 <__vector_9>:
    2932:	1f 92       	push	r1
    2934:	0f 92       	push	r0
    2936:	0f b6       	in	r0, 0x3f	; 63
    2938:	0f 92       	push	r0
    293a:	11 24       	eor	r1, r1
    293c:	2f 93       	push	r18
    293e:	3f 93       	push	r19
    2940:	4f 93       	push	r20
    2942:	8f 93       	push	r24
    2944:	9f 93       	push	r25
    2946:	78 94       	sei
    2948:	80 91 00 01 	lds	r24, 0x0100
    294c:	81 50       	subi	r24, 0x01	; 1
    294e:	80 93 00 01 	sts	0x0100, r24
    2952:	81 11       	cpse	r24, r1
    2954:	0d c0       	rjmp	.+26     	; 0x2970 <__vector_9+0x3e>
    2956:	8a e0       	ldi	r24, 0x0A	; 10
    2958:	80 93 00 01 	sts	0x0100, r24
    295c:	9f 91       	pop	r25
    295e:	8f 91       	pop	r24
    2960:	4f 91       	pop	r20
    2962:	3f 91       	pop	r19
    2964:	2f 91       	pop	r18
    2966:	0f 90       	pop	r0
    2968:	0f be       	out	0x3f, r0	; 63
    296a:	0f 90       	pop	r0
    296c:	1f 90       	pop	r1
    296e:	18 95       	reti
    2970:	84 30       	cpi	r24, 0x04	; 4
    2972:	d9 f1       	breq	.+118    	; 0x29ea <__vector_9+0xb8>
    2974:	08 f4       	brcc	.+2      	; 0x2978 <__vector_9+0x46>
    2976:	44 c0       	rjmp	.+136    	; 0x2a00 <__vector_9+0xce>
    2978:	88 30       	cpi	r24, 0x08	; 8
    297a:	69 f0       	breq	.+26     	; 0x2996 <__vector_9+0x64>
    297c:	89 30       	cpi	r24, 0x09	; 9
    297e:	71 f7       	brne	.-36     	; 0x295c <__vector_9+0x2a>
    2980:	80 91 47 02 	lds	r24, 0x0247
    2984:	90 91 63 02 	lds	r25, 0x0263
    2988:	28 2f       	mov	r18, r24
    298a:	29 1b       	sub	r18, r25
    298c:	20 93 45 02 	sts	0x0245, r18
    2990:	80 93 63 02 	sts	0x0263, r24
    2994:	e3 cf       	rjmp	.-58     	; 0x295c <__vector_9+0x2a>
    2996:	23 fe       	sbrs	r2, 3
    2998:	e1 cf       	rjmp	.-62     	; 0x295c <__vector_9+0x2a>
    299a:	80 91 43 02 	lds	r24, 0x0243
    299e:	18 16       	cp	r1, r24
    29a0:	0c f0       	brlt	.+2      	; 0x29a4 <__vector_9+0x72>
    29a2:	62 c0       	rjmp	.+196    	; 0x2a68 <__vector_9+0x136>
    29a4:	90 91 45 02 	lds	r25, 0x0245
    29a8:	38 2f       	mov	r19, r24
    29aa:	39 1b       	sub	r19, r25
    29ac:	48 e0       	ldi	r20, 0x08	; 8
    29ae:	34 02       	muls	r19, r20
    29b0:	c0 01       	movw	r24, r0
    29b2:	11 24       	eor	r1, r1
    29b4:	20 91 6c 02 	lds	r18, 0x026C
    29b8:	23 0f       	add	r18, r19
    29ba:	29 32       	cpi	r18, 0x29	; 41
    29bc:	0c f4       	brge	.+2      	; 0x29c0 <__vector_9+0x8e>
    29be:	62 c0       	rjmp	.+196    	; 0x2a84 <__vector_9+0x152>
    29c0:	28 e2       	ldi	r18, 0x28	; 40
    29c2:	20 93 6c 02 	sts	0x026C, r18
    29c6:	20 e9       	ldi	r18, 0x90	; 144
    29c8:	31 e0       	ldi	r19, 0x01	; 1
    29ca:	82 0f       	add	r24, r18
    29cc:	93 1f       	adc	r25, r19
    29ce:	81 39       	cpi	r24, 0x91	; 145
    29d0:	21 e0       	ldi	r18, 0x01	; 1
    29d2:	92 07       	cpc	r25, r18
    29d4:	0c f0       	brlt	.+2      	; 0x29d8 <__vector_9+0xa6>
    29d6:	66 c0       	rjmp	.+204    	; 0x2aa4 <__vector_9+0x172>
    29d8:	18 16       	cp	r1, r24
    29da:	19 06       	cpc	r1, r25
    29dc:	0c f0       	brlt	.+2      	; 0x29e0 <__vector_9+0xae>
    29de:	7a c0       	rjmp	.+244    	; 0x2ad4 <__vector_9+0x1a2>
    29e0:	90 93 85 00 	sts	0x0085, r25
    29e4:	80 93 84 00 	sts	0x0084, r24
    29e8:	b9 cf       	rjmp	.-142    	; 0x295c <__vector_9+0x2a>
    29ea:	80 91 48 02 	lds	r24, 0x0248
    29ee:	90 91 62 02 	lds	r25, 0x0262
    29f2:	48 2f       	mov	r20, r24
    29f4:	49 1b       	sub	r20, r25
    29f6:	40 93 46 02 	sts	0x0246, r20
    29fa:	80 93 62 02 	sts	0x0262, r24
    29fe:	ae cf       	rjmp	.-164    	; 0x295c <__vector_9+0x2a>
    2a00:	83 30       	cpi	r24, 0x03	; 3
    2a02:	09 f0       	breq	.+2      	; 0x2a06 <__vector_9+0xd4>
    2a04:	ab cf       	rjmp	.-170    	; 0x295c <__vector_9+0x2a>
    2a06:	23 fe       	sbrs	r2, 3
    2a08:	a9 cf       	rjmp	.-174    	; 0x295c <__vector_9+0x2a>
    2a0a:	80 91 44 02 	lds	r24, 0x0244
    2a0e:	18 16       	cp	r1, r24
    2a10:	0c f0       	brlt	.+2      	; 0x2a14 <__vector_9+0xe2>
    2a12:	41 c0       	rjmp	.+130    	; 0x2a96 <__vector_9+0x164>
    2a14:	90 91 46 02 	lds	r25, 0x0246
    2a18:	89 1b       	sub	r24, r25
    2a1a:	98 2f       	mov	r25, r24
    2a1c:	88 e0       	ldi	r24, 0x08	; 8
    2a1e:	98 02       	muls	r25, r24
    2a20:	90 01       	movw	r18, r0
    2a22:	11 24       	eor	r1, r1
    2a24:	80 91 6d 02 	lds	r24, 0x026D
    2a28:	89 0f       	add	r24, r25
    2a2a:	89 32       	cpi	r24, 0x29	; 41
    2a2c:	bc f4       	brge	.+46     	; 0x2a5c <__vector_9+0x12a>
    2a2e:	88 3d       	cpi	r24, 0xD8	; 216
    2a30:	0c f4       	brge	.+2      	; 0x2a34 <__vector_9+0x102>
    2a32:	3f c0       	rjmp	.+126    	; 0x2ab2 <__vector_9+0x180>
    2a34:	80 93 6d 02 	sts	0x026D, r24
    2a38:	4a e0       	ldi	r20, 0x0A	; 10
    2a3a:	84 02       	muls	r24, r20
    2a3c:	c0 01       	movw	r24, r0
    2a3e:	11 24       	eor	r1, r1
    2a40:	82 0f       	add	r24, r18
    2a42:	93 1f       	adc	r25, r19
    2a44:	81 39       	cpi	r24, 0x91	; 145
    2a46:	21 e0       	ldi	r18, 0x01	; 1
    2a48:	92 07       	cpc	r25, r18
    2a4a:	ac f4       	brge	.+42     	; 0x2a76 <__vector_9+0x144>
    2a4c:	18 16       	cp	r1, r24
    2a4e:	19 06       	cpc	r1, r25
    2a50:	e4 f5       	brge	.+120    	; 0x2aca <__vector_9+0x198>
    2a52:	90 93 87 00 	sts	0x0087, r25
    2a56:	80 93 86 00 	sts	0x0086, r24
    2a5a:	80 cf       	rjmp	.-256    	; 0x295c <__vector_9+0x2a>
    2a5c:	88 e2       	ldi	r24, 0x28	; 40
    2a5e:	80 93 6d 02 	sts	0x026D, r24
    2a62:	80 e9       	ldi	r24, 0x90	; 144
    2a64:	91 e0       	ldi	r25, 0x01	; 1
    2a66:	ec cf       	rjmp	.-40     	; 0x2a40 <__vector_9+0x10e>
    2a68:	10 92 85 00 	sts	0x0085, r1
    2a6c:	10 92 84 00 	sts	0x0084, r1
    2a70:	10 92 6c 02 	sts	0x026C, r1
    2a74:	73 cf       	rjmp	.-282    	; 0x295c <__vector_9+0x2a>
    2a76:	80 e9       	ldi	r24, 0x90	; 144
    2a78:	91 e0       	ldi	r25, 0x01	; 1
    2a7a:	90 93 87 00 	sts	0x0087, r25
    2a7e:	80 93 86 00 	sts	0x0086, r24
    2a82:	6c cf       	rjmp	.-296    	; 0x295c <__vector_9+0x2a>
    2a84:	28 3d       	cpi	r18, 0xD8	; 216
    2a86:	dc f0       	brlt	.+54     	; 0x2abe <__vector_9+0x18c>
    2a88:	20 93 6c 02 	sts	0x026C, r18
    2a8c:	4a e0       	ldi	r20, 0x0A	; 10
    2a8e:	24 02       	muls	r18, r20
    2a90:	90 01       	movw	r18, r0
    2a92:	11 24       	eor	r1, r1
    2a94:	9a cf       	rjmp	.-204    	; 0x29ca <__vector_9+0x98>
    2a96:	10 92 87 00 	sts	0x0087, r1
    2a9a:	10 92 86 00 	sts	0x0086, r1
    2a9e:	10 92 6d 02 	sts	0x026D, r1
    2aa2:	5c cf       	rjmp	.-328    	; 0x295c <__vector_9+0x2a>
    2aa4:	80 e9       	ldi	r24, 0x90	; 144
    2aa6:	91 e0       	ldi	r25, 0x01	; 1
    2aa8:	90 93 85 00 	sts	0x0085, r25
    2aac:	80 93 84 00 	sts	0x0084, r24
    2ab0:	55 cf       	rjmp	.-342    	; 0x295c <__vector_9+0x2a>
    2ab2:	88 ed       	ldi	r24, 0xD8	; 216
    2ab4:	80 93 6d 02 	sts	0x026D, r24
    2ab8:	80 e7       	ldi	r24, 0x70	; 112
    2aba:	9e ef       	ldi	r25, 0xFE	; 254
    2abc:	c1 cf       	rjmp	.-126    	; 0x2a40 <__vector_9+0x10e>
    2abe:	28 ed       	ldi	r18, 0xD8	; 216
    2ac0:	20 93 6c 02 	sts	0x026C, r18
    2ac4:	20 e7       	ldi	r18, 0x70	; 112
    2ac6:	3e ef       	ldi	r19, 0xFE	; 254
    2ac8:	80 cf       	rjmp	.-256    	; 0x29ca <__vector_9+0x98>
    2aca:	10 92 87 00 	sts	0x0087, r1
    2ace:	10 92 86 00 	sts	0x0086, r1
    2ad2:	44 cf       	rjmp	.-376    	; 0x295c <__vector_9+0x2a>
    2ad4:	10 92 85 00 	sts	0x0085, r1
    2ad8:	10 92 84 00 	sts	0x0084, r1
    2adc:	3f cf       	rjmp	.-386    	; 0x295c <__vector_9+0x2a>

00002ade <_Z10SystemInitv>:
    2ade:	e8 94       	clt
    2ae0:	20 f8       	bld	r2, 0
    2ae2:	e8 94       	clt
    2ae4:	21 f8       	bld	r2, 1
    2ae6:	e8 94       	clt
    2ae8:	22 f8       	bld	r2, 2
    2aea:	e8 94       	clt
    2aec:	23 f8       	bld	r2, 3
    2aee:	1b ba       	out	0x1b, r1	; 27
    2af0:	8f ef       	ldi	r24, 0xFF	; 255
    2af2:	8a bb       	out	0x1a, r24	; 26
    2af4:	95 e0       	ldi	r25, 0x05	; 5
    2af6:	98 bb       	out	0x18, r25	; 24
    2af8:	98 ef       	ldi	r25, 0xF8	; 248
    2afa:	97 bb       	out	0x17, r25	; 23
    2afc:	85 bb       	out	0x15, r24	; 21
    2afe:	90 ef       	ldi	r25, 0xF0	; 240
    2b00:	94 bb       	out	0x14, r25	; 20
    2b02:	12 ba       	out	0x12, r1	; 18
    2b04:	91 bb       	out	0x11, r25	; 17
    2b06:	20 ec       	ldi	r18, 0xC0	; 192
    2b08:	23 b9       	out	0x03, r18	; 3
    2b0a:	9c e3       	ldi	r25, 0x3C	; 60
    2b0c:	92 b9       	out	0x02, r25	; 2
    2b0e:	10 92 62 00 	sts	0x0062, r1
    2b12:	10 92 61 00 	sts	0x0061, r1
    2b16:	80 93 65 00 	sts	0x0065, r24
    2b1a:	10 92 64 00 	sts	0x0064, r1
    2b1e:	10 be       	out	0x30, r1	; 48
    2b20:	13 be       	out	0x33, r1	; 51
    2b22:	12 be       	out	0x32, r1	; 50
    2b24:	11 be       	out	0x31, r1	; 49
    2b26:	8a ea       	ldi	r24, 0xAA	; 170
    2b28:	8f bd       	out	0x2f, r24	; 47
    2b2a:	82 e1       	ldi	r24, 0x12	; 18
    2b2c:	8e bd       	out	0x2e, r24	; 46
    2b2e:	1d bc       	out	0x2d, r1	; 45
    2b30:	1c bc       	out	0x2c, r1	; 44
    2b32:	87 e8       	ldi	r24, 0x87	; 135
    2b34:	93 e1       	ldi	r25, 0x13	; 19
    2b36:	97 bd       	out	0x27, r25	; 39
    2b38:	86 bd       	out	0x26, r24	; 38
    2b3a:	8b e0       	ldi	r24, 0x0B	; 11
    2b3c:	85 bd       	out	0x25, r24	; 37
    2b3e:	14 bc       	out	0x24, r1	; 36
    2b40:	89 ef       	ldi	r24, 0xF9	; 249
    2b42:	83 bd       	out	0x23, r24	; 35
    2b44:	82 ef       	ldi	r24, 0xF2	; 242
    2b46:	80 93 8b 00 	sts	0x008B, r24
    2b4a:	81 e1       	ldi	r24, 0x11	; 17
    2b4c:	80 93 8a 00 	sts	0x008A, r24
    2b50:	10 92 89 00 	sts	0x0089, r1
    2b54:	10 92 88 00 	sts	0x0088, r1
    2b58:	81 e0       	ldi	r24, 0x01	; 1
    2b5a:	80 93 81 00 	sts	0x0081, r24
    2b5e:	80 e9       	ldi	r24, 0x90	; 144
    2b60:	80 93 80 00 	sts	0x0080, r24
    2b64:	10 92 87 00 	sts	0x0087, r1
    2b68:	10 92 86 00 	sts	0x0086, r1
    2b6c:	10 92 85 00 	sts	0x0085, r1
    2b70:	10 92 84 00 	sts	0x0084, r1
    2b74:	10 92 83 00 	sts	0x0083, r1
    2b78:	88 ec       	ldi	r24, 0xC8	; 200
    2b7a:	80 93 82 00 	sts	0x0082, r24
    2b7e:	10 92 6a 00 	sts	0x006A, r1
    2b82:	80 e5       	ldi	r24, 0x50	; 80
    2b84:	8a bf       	out	0x3a, r24	; 58
    2b86:	29 bf       	out	0x39, r18	; 57
    2b88:	28 bf       	out	0x38, r18	; 56
    2b8a:	84 ea       	ldi	r24, 0xA4	; 164
    2b8c:	87 bf       	out	0x37, r24	; 55
    2b8e:	82 e0       	ldi	r24, 0x02	; 2
    2b90:	80 93 7d 00 	sts	0x007D, r24
    2b94:	10 92 9b 00 	sts	0x009B, r1
    2b98:	88 e9       	ldi	r24, 0x98	; 152
    2b9a:	80 93 9a 00 	sts	0x009A, r24
    2b9e:	86 e0       	ldi	r24, 0x06	; 6
    2ba0:	80 93 9d 00 	sts	0x009D, r24
    2ba4:	10 92 98 00 	sts	0x0098, r1
    2ba8:	87 e6       	ldi	r24, 0x67	; 103
    2baa:	80 93 99 00 	sts	0x0099, r24
    2bae:	80 e8       	ldi	r24, 0x80	; 128
    2bb0:	88 b9       	out	0x08, r24	; 8
    2bb2:	10 bc       	out	0x20, r1	; 32
    2bb4:	f8 94       	cli
    2bb6:	2f ef       	ldi	r18, 0xFF	; 255
    2bb8:	80 e7       	ldi	r24, 0x70	; 112
    2bba:	92 e0       	ldi	r25, 0x02	; 2
    2bbc:	21 50       	subi	r18, 0x01	; 1
    2bbe:	80 40       	sbci	r24, 0x00	; 0
    2bc0:	90 40       	sbci	r25, 0x00	; 0
    2bc2:	e1 f7       	brne	.-8      	; 0x2bbc <_Z10SystemInitv+0xde>
    2bc4:	00 c0       	rjmp	.+0      	; 0x2bc6 <_Z10SystemInitv+0xe8>
    2bc6:	00 00       	nop
    2bc8:	84 e3       	ldi	r24, 0x34	; 52
    2bca:	8b bb       	out	0x1b, r24	; 27
    2bcc:	25 e0       	ldi	r18, 0x05	; 5
    2bce:	2a 95       	dec	r18
    2bd0:	f1 f7       	brne	.-4      	; 0x2bce <_Z10SystemInitv+0xf0>
    2bd2:	00 00       	nop
    2bd4:	da 98       	cbi	0x1b, 2	; 27
    2bd6:	8f e1       	ldi	r24, 0x1F	; 31
    2bd8:	9e e4       	ldi	r25, 0x4E	; 78
    2bda:	01 97       	sbiw	r24, 0x01	; 1
    2bdc:	f1 f7       	brne	.-4      	; 0x2bda <_Z10SystemInitv+0xfc>
    2bde:	00 c0       	rjmp	.+0      	; 0x2be0 <_Z10SystemInitv+0x102>
    2be0:	00 00       	nop
    2be2:	84 e3       	ldi	r24, 0x34	; 52
    2be4:	8b bb       	out	0x1b, r24	; 27
    2be6:	95 e0       	ldi	r25, 0x05	; 5
    2be8:	9a 95       	dec	r25
    2bea:	f1 f7       	brne	.-4      	; 0x2be8 <_Z10SystemInitv+0x10a>
    2bec:	00 00       	nop
    2bee:	da 98       	cbi	0x1b, 2	; 27
    2bf0:	8f e9       	ldi	r24, 0x9F	; 159
    2bf2:	9f e0       	ldi	r25, 0x0F	; 15
    2bf4:	01 97       	sbiw	r24, 0x01	; 1
    2bf6:	f1 f7       	brne	.-4      	; 0x2bf4 <_Z10SystemInitv+0x116>
    2bf8:	00 c0       	rjmp	.+0      	; 0x2bfa <_Z10SystemInitv+0x11c>
    2bfa:	00 00       	nop
    2bfc:	84 e3       	ldi	r24, 0x34	; 52
    2bfe:	8b bb       	out	0x1b, r24	; 27
    2c00:	95 e0       	ldi	r25, 0x05	; 5
    2c02:	9a 95       	dec	r25
    2c04:	f1 f7       	brne	.-4      	; 0x2c02 <_Z10SystemInitv+0x124>
    2c06:	00 00       	nop
    2c08:	da 98       	cbi	0x1b, 2	; 27
    2c0a:	8f e9       	ldi	r24, 0x9F	; 159
    2c0c:	9f e0       	ldi	r25, 0x0F	; 15
    2c0e:	01 97       	sbiw	r24, 0x01	; 1
    2c10:	f1 f7       	brne	.-4      	; 0x2c0e <_Z10SystemInitv+0x130>
    2c12:	00 c0       	rjmp	.+0      	; 0x2c14 <_Z10SystemInitv+0x136>
    2c14:	00 00       	nop
    2c16:	84 e2       	ldi	r24, 0x24	; 36
    2c18:	8b bb       	out	0x1b, r24	; 27
    2c1a:	95 e0       	ldi	r25, 0x05	; 5
    2c1c:	9a 95       	dec	r25
    2c1e:	f1 f7       	brne	.-4      	; 0x2c1c <_Z10SystemInitv+0x13e>
    2c20:	00 00       	nop
    2c22:	da 98       	cbi	0x1b, 2	; 27
    2c24:	d8 98       	cbi	0x1b, 0	; 27
    2c26:	20 fe       	sbrs	r2, 0
    2c28:	3e c2       	rjmp	.+1148   	; 0x30a6 <_Z10SystemInitv+0x5c8>
    2c2a:	8c e2       	ldi	r24, 0x2C	; 44
    2c2c:	8b bb       	out	0x1b, r24	; 27
    2c2e:	25 e0       	ldi	r18, 0x05	; 5
    2c30:	2a 95       	dec	r18
    2c32:	f1 f7       	brne	.-4      	; 0x2c30 <_Z10SystemInitv+0x152>
    2c34:	00 00       	nop
    2c36:	da 98       	cbi	0x1b, 2	; 27
    2c38:	8a e1       	ldi	r24, 0x1A	; 26
    2c3a:	8a 95       	dec	r24
    2c3c:	f1 f7       	brne	.-4      	; 0x2c3a <_Z10SystemInitv+0x15c>
    2c3e:	00 c0       	rjmp	.+0      	; 0x2c40 <_Z10SystemInitv+0x162>
    2c40:	20 fc       	sbrc	r2, 0
    2c42:	3a c2       	rjmp	.+1140   	; 0x30b8 <_Z10SystemInitv+0x5da>
    2c44:	84 e8       	ldi	r24, 0x84	; 132
    2c46:	8b bb       	out	0x1b, r24	; 27
    2c48:	95 e0       	ldi	r25, 0x05	; 5
    2c4a:	9a 95       	dec	r25
    2c4c:	f1 f7       	brne	.-4      	; 0x2c4a <_Z10SystemInitv+0x16c>
    2c4e:	00 00       	nop
    2c50:	da 98       	cbi	0x1b, 2	; 27
    2c52:	8f ee       	ldi	r24, 0xEF	; 239
    2c54:	9a e0       	ldi	r25, 0x0A	; 10
    2c56:	01 97       	sbiw	r24, 0x01	; 1
    2c58:	f1 f7       	brne	.-4      	; 0x2c56 <_Z10SystemInitv+0x178>
    2c5a:	00 c0       	rjmp	.+0      	; 0x2c5c <_Z10SystemInitv+0x17e>
    2c5c:	00 00       	nop
    2c5e:	da 9a       	sbi	0x1b, 2	; 27
    2c60:	d8 98       	cbi	0x1b, 0	; 27
    2c62:	20 fe       	sbrs	r2, 0
    2c64:	26 c2       	rjmp	.+1100   	; 0x30b2 <_Z10SystemInitv+0x5d4>
    2c66:	8c e1       	ldi	r24, 0x1C	; 28
    2c68:	8b bb       	out	0x1b, r24	; 27
    2c6a:	95 e0       	ldi	r25, 0x05	; 5
    2c6c:	9a 95       	dec	r25
    2c6e:	f1 f7       	brne	.-4      	; 0x2c6c <_Z10SystemInitv+0x18e>
    2c70:	00 00       	nop
    2c72:	da 98       	cbi	0x1b, 2	; 27
    2c74:	2a e1       	ldi	r18, 0x1A	; 26
    2c76:	2a 95       	dec	r18
    2c78:	f1 f7       	brne	.-4      	; 0x2c76 <_Z10SystemInitv+0x198>
    2c7a:	00 c0       	rjmp	.+0      	; 0x2c7c <_Z10SystemInitv+0x19e>
    2c7c:	20 fc       	sbrc	r2, 0
    2c7e:	56 c2       	rjmp	.+1196   	; 0x312c <_Z10SystemInitv+0x64e>
    2c80:	84 e0       	ldi	r24, 0x04	; 4
    2c82:	8b bb       	out	0x1b, r24	; 27
    2c84:	85 e0       	ldi	r24, 0x05	; 5
    2c86:	8a 95       	dec	r24
    2c88:	f1 f7       	brne	.-4      	; 0x2c86 <_Z10SystemInitv+0x1a8>
    2c8a:	00 00       	nop
    2c8c:	da 98       	cbi	0x1b, 2	; 27
    2c8e:	8f ee       	ldi	r24, 0xEF	; 239
    2c90:	9a e0       	ldi	r25, 0x0A	; 10
    2c92:	01 97       	sbiw	r24, 0x01	; 1
    2c94:	f1 f7       	brne	.-4      	; 0x2c92 <_Z10SystemInitv+0x1b4>
    2c96:	00 c0       	rjmp	.+0      	; 0x2c98 <_Z10SystemInitv+0x1ba>
    2c98:	00 00       	nop
    2c9a:	da 9a       	sbi	0x1b, 2	; 27
    2c9c:	d8 98       	cbi	0x1b, 0	; 27
    2c9e:	20 fe       	sbrs	r2, 0
    2ca0:	05 c2       	rjmp	.+1034   	; 0x30ac <_Z10SystemInitv+0x5ce>
    2ca2:	8c e0       	ldi	r24, 0x0C	; 12
    2ca4:	8b bb       	out	0x1b, r24	; 27
    2ca6:	95 e0       	ldi	r25, 0x05	; 5
    2ca8:	9a 95       	dec	r25
    2caa:	f1 f7       	brne	.-4      	; 0x2ca8 <_Z10SystemInitv+0x1ca>
    2cac:	00 00       	nop
    2cae:	da 98       	cbi	0x1b, 2	; 27
    2cb0:	2a e1       	ldi	r18, 0x1A	; 26
    2cb2:	2a 95       	dec	r18
    2cb4:	f1 f7       	brne	.-4      	; 0x2cb2 <_Z10SystemInitv+0x1d4>
    2cb6:	00 c0       	rjmp	.+0      	; 0x2cb8 <_Z10SystemInitv+0x1da>
    2cb8:	20 fc       	sbrc	r2, 0
    2cba:	35 c2       	rjmp	.+1130   	; 0x3126 <_Z10SystemInitv+0x648>
    2cbc:	84 e6       	ldi	r24, 0x64	; 100
    2cbe:	8b bb       	out	0x1b, r24	; 27
    2cc0:	85 e0       	ldi	r24, 0x05	; 5
    2cc2:	8a 95       	dec	r24
    2cc4:	f1 f7       	brne	.-4      	; 0x2cc2 <_Z10SystemInitv+0x1e4>
    2cc6:	00 00       	nop
    2cc8:	da 98       	cbi	0x1b, 2	; 27
    2cca:	8f ee       	ldi	r24, 0xEF	; 239
    2ccc:	9a e0       	ldi	r25, 0x0A	; 10
    2cce:	01 97       	sbiw	r24, 0x01	; 1
    2cd0:	f1 f7       	brne	.-4      	; 0x2cce <_Z10SystemInitv+0x1f0>
    2cd2:	00 c0       	rjmp	.+0      	; 0x2cd4 <_Z10SystemInitv+0x1f6>
    2cd4:	00 00       	nop
    2cd6:	da 9a       	sbi	0x1b, 2	; 27
    2cd8:	d8 98       	cbi	0x1b, 0	; 27
    2cda:	20 fe       	sbrs	r2, 0
    2cdc:	d2 c1       	rjmp	.+932    	; 0x3082 <_Z10SystemInitv+0x5a4>
    2cde:	8c e0       	ldi	r24, 0x0C	; 12
    2ce0:	8b bb       	out	0x1b, r24	; 27
    2ce2:	95 e0       	ldi	r25, 0x05	; 5
    2ce4:	9a 95       	dec	r25
    2ce6:	f1 f7       	brne	.-4      	; 0x2ce4 <_Z10SystemInitv+0x206>
    2ce8:	00 00       	nop
    2cea:	da 98       	cbi	0x1b, 2	; 27
    2cec:	2a e1       	ldi	r18, 0x1A	; 26
    2cee:	2a 95       	dec	r18
    2cf0:	f1 f7       	brne	.-4      	; 0x2cee <_Z10SystemInitv+0x210>
    2cf2:	00 c0       	rjmp	.+0      	; 0x2cf4 <_Z10SystemInitv+0x216>
    2cf4:	20 fc       	sbrc	r2, 0
    2cf6:	14 c2       	rjmp	.+1064   	; 0x3120 <_Z10SystemInitv+0x642>
    2cf8:	84 ec       	ldi	r24, 0xC4	; 196
    2cfa:	8b bb       	out	0x1b, r24	; 27
    2cfc:	85 e0       	ldi	r24, 0x05	; 5
    2cfe:	8a 95       	dec	r24
    2d00:	f1 f7       	brne	.-4      	; 0x2cfe <_Z10SystemInitv+0x220>
    2d02:	00 00       	nop
    2d04:	da 98       	cbi	0x1b, 2	; 27
    2d06:	8f ee       	ldi	r24, 0xEF	; 239
    2d08:	9a e0       	ldi	r25, 0x0A	; 10
    2d0a:	01 97       	sbiw	r24, 0x01	; 1
    2d0c:	f1 f7       	brne	.-4      	; 0x2d0a <_Z10SystemInitv+0x22c>
    2d0e:	00 c0       	rjmp	.+0      	; 0x2d10 <_Z10SystemInitv+0x232>
    2d10:	00 00       	nop
    2d12:	da 9a       	sbi	0x1b, 2	; 27
    2d14:	d8 98       	cbi	0x1b, 0	; 27
    2d16:	20 fe       	sbrs	r2, 0
    2d18:	b1 c1       	rjmp	.+866    	; 0x307c <_Z10SystemInitv+0x59e>
    2d1a:	8c e0       	ldi	r24, 0x0C	; 12
    2d1c:	8b bb       	out	0x1b, r24	; 27
    2d1e:	95 e0       	ldi	r25, 0x05	; 5
    2d20:	9a 95       	dec	r25
    2d22:	f1 f7       	brne	.-4      	; 0x2d20 <_Z10SystemInitv+0x242>
    2d24:	00 00       	nop
    2d26:	da 98       	cbi	0x1b, 2	; 27
    2d28:	2a e1       	ldi	r18, 0x1A	; 26
    2d2a:	2a 95       	dec	r18
    2d2c:	f1 f7       	brne	.-4      	; 0x2d2a <_Z10SystemInitv+0x24c>
    2d2e:	00 c0       	rjmp	.+0      	; 0x2d30 <_Z10SystemInitv+0x252>
    2d30:	20 fc       	sbrc	r2, 0
    2d32:	f3 c1       	rjmp	.+998    	; 0x311a <_Z10SystemInitv+0x63c>
    2d34:	84 e1       	ldi	r24, 0x14	; 20
    2d36:	8b bb       	out	0x1b, r24	; 27
    2d38:	85 e0       	ldi	r24, 0x05	; 5
    2d3a:	8a 95       	dec	r24
    2d3c:	f1 f7       	brne	.-4      	; 0x2d3a <_Z10SystemInitv+0x25c>
    2d3e:	00 00       	nop
    2d40:	da 98       	cbi	0x1b, 2	; 27
    2d42:	8f ee       	ldi	r24, 0xEF	; 239
    2d44:	9a e0       	ldi	r25, 0x0A	; 10
    2d46:	01 97       	sbiw	r24, 0x01	; 1
    2d48:	f1 f7       	brne	.-4      	; 0x2d46 <_Z10SystemInitv+0x268>
    2d4a:	00 c0       	rjmp	.+0      	; 0x2d4c <_Z10SystemInitv+0x26e>
    2d4c:	00 00       	nop
    2d4e:	da 9a       	sbi	0x1b, 2	; 27
    2d50:	8f e3       	ldi	r24, 0x3F	; 63
    2d52:	9f e1       	ldi	r25, 0x1F	; 31
    2d54:	01 97       	sbiw	r24, 0x01	; 1
    2d56:	f1 f7       	brne	.-4      	; 0x2d54 <_Z10SystemInitv+0x276>
    2d58:	00 c0       	rjmp	.+0      	; 0x2d5a <_Z10SystemInitv+0x27c>
    2d5a:	00 00       	nop
    2d5c:	68 94       	set
    2d5e:	20 f8       	bld	r2, 0
    2d60:	db 9a       	sbi	0x1b, 3	; 27
    2d62:	d8 98       	cbi	0x1b, 0	; 27
    2d64:	20 fe       	sbrs	r2, 0
    2d66:	9c c1       	rjmp	.+824    	; 0x30a0 <_Z10SystemInitv+0x5c2>
    2d68:	8c e8       	ldi	r24, 0x8C	; 140
    2d6a:	8b bb       	out	0x1b, r24	; 27
    2d6c:	95 e0       	ldi	r25, 0x05	; 5
    2d6e:	9a 95       	dec	r25
    2d70:	f1 f7       	brne	.-4      	; 0x2d6e <_Z10SystemInitv+0x290>
    2d72:	00 00       	nop
    2d74:	da 98       	cbi	0x1b, 2	; 27
    2d76:	2a e1       	ldi	r18, 0x1A	; 26
    2d78:	2a 95       	dec	r18
    2d7a:	f1 f7       	brne	.-4      	; 0x2d78 <_Z10SystemInitv+0x29a>
    2d7c:	00 c0       	rjmp	.+0      	; 0x2d7e <_Z10SystemInitv+0x2a0>
    2d7e:	20 fc       	sbrc	r2, 0
    2d80:	c9 c1       	rjmp	.+914    	; 0x3114 <_Z10SystemInitv+0x636>
    2d82:	84 e0       	ldi	r24, 0x04	; 4
    2d84:	8b bb       	out	0x1b, r24	; 27
    2d86:	85 e0       	ldi	r24, 0x05	; 5
    2d88:	8a 95       	dec	r24
    2d8a:	f1 f7       	brne	.-4      	; 0x2d88 <_Z10SystemInitv+0x2aa>
    2d8c:	00 00       	nop
    2d8e:	da 98       	cbi	0x1b, 2	; 27
    2d90:	8f ee       	ldi	r24, 0xEF	; 239
    2d92:	9a e0       	ldi	r25, 0x0A	; 10
    2d94:	01 97       	sbiw	r24, 0x01	; 1
    2d96:	f1 f7       	brne	.-4      	; 0x2d94 <_Z10SystemInitv+0x2b6>
    2d98:	00 c0       	rjmp	.+0      	; 0x2d9a <_Z10SystemInitv+0x2bc>
    2d9a:	00 00       	nop
    2d9c:	da 9a       	sbi	0x1b, 2	; 27
    2d9e:	e2 ef       	ldi	r30, 0xF2	; 242
    2da0:	f1 e0       	ldi	r31, 0x01	; 1
    2da2:	84 e5       	ldi	r24, 0x54	; 84
    2da4:	20 fc       	sbrc	r2, 0
    2da6:	42 c0       	rjmp	.+132    	; 0x2e2c <_Z10SystemInitv+0x34e>
    2da8:	d8 9a       	sbi	0x1b, 0	; 27
    2daa:	98 2f       	mov	r25, r24
    2dac:	90 7f       	andi	r25, 0xF0	; 240
    2dae:	95 60       	ori	r25, 0x05	; 5
    2db0:	9b bb       	out	0x1b, r25	; 27
    2db2:	95 e0       	ldi	r25, 0x05	; 5
    2db4:	9a 95       	dec	r25
    2db6:	f1 f7       	brne	.-4      	; 0x2db4 <_Z10SystemInitv+0x2d6>
    2db8:	00 00       	nop
    2dba:	da 98       	cbi	0x1b, 2	; 27
    2dbc:	2a e1       	ldi	r18, 0x1A	; 26
    2dbe:	2a 95       	dec	r18
    2dc0:	f1 f7       	brne	.-4      	; 0x2dbe <_Z10SystemInitv+0x2e0>
    2dc2:	00 c0       	rjmp	.+0      	; 0x2dc4 <_Z10SystemInitv+0x2e6>
    2dc4:	20 e1       	ldi	r18, 0x10	; 16
    2dc6:	82 9f       	mul	r24, r18
    2dc8:	c0 01       	movw	r24, r0
    2dca:	11 24       	eor	r1, r1
    2dcc:	85 60       	ori	r24, 0x05	; 5
    2dce:	8b bb       	out	0x1b, r24	; 27
    2dd0:	85 e0       	ldi	r24, 0x05	; 5
    2dd2:	8a 95       	dec	r24
    2dd4:	f1 f7       	brne	.-4      	; 0x2dd2 <_Z10SystemInitv+0x2f4>
    2dd6:	00 00       	nop
    2dd8:	da 98       	cbi	0x1b, 2	; 27
    2dda:	95 ed       	ldi	r25, 0xD5	; 213
    2ddc:	9a 95       	dec	r25
    2dde:	f1 f7       	brne	.-4      	; 0x2ddc <_Z10SystemInitv+0x2fe>
    2de0:	00 00       	nop
    2de2:	da 9a       	sbi	0x1b, 2	; 27
    2de4:	81 91       	ld	r24, Z+
    2de6:	81 11       	cpse	r24, r1
    2de8:	df cf       	rjmp	.-66     	; 0x2da8 <_Z10SystemInitv+0x2ca>
    2dea:	d8 98       	cbi	0x1b, 0	; 27
    2dec:	20 fe       	sbrs	r2, 0
    2dee:	43 c1       	rjmp	.+646    	; 0x3076 <_Z10SystemInitv+0x598>
    2df0:	8c ec       	ldi	r24, 0xCC	; 204
    2df2:	8b bb       	out	0x1b, r24	; 27
    2df4:	25 e0       	ldi	r18, 0x05	; 5
    2df6:	2a 95       	dec	r18
    2df8:	f1 f7       	brne	.-4      	; 0x2df6 <_Z10SystemInitv+0x318>
    2dfa:	00 00       	nop
    2dfc:	da 98       	cbi	0x1b, 2	; 27
    2dfe:	8a e1       	ldi	r24, 0x1A	; 26
    2e00:	8a 95       	dec	r24
    2e02:	f1 f7       	brne	.-4      	; 0x2e00 <_Z10SystemInitv+0x322>
    2e04:	00 c0       	rjmp	.+0      	; 0x2e06 <_Z10SystemInitv+0x328>
    2e06:	20 fc       	sbrc	r2, 0
    2e08:	82 c1       	rjmp	.+772    	; 0x310e <_Z10SystemInitv+0x630>
    2e0a:	84 e0       	ldi	r24, 0x04	; 4
    2e0c:	8b bb       	out	0x1b, r24	; 27
    2e0e:	95 e0       	ldi	r25, 0x05	; 5
    2e10:	9a 95       	dec	r25
    2e12:	f1 f7       	brne	.-4      	; 0x2e10 <_Z10SystemInitv+0x332>
    2e14:	00 00       	nop
    2e16:	da 98       	cbi	0x1b, 2	; 27
    2e18:	8f ee       	ldi	r24, 0xEF	; 239
    2e1a:	9a e0       	ldi	r25, 0x0A	; 10
    2e1c:	01 97       	sbiw	r24, 0x01	; 1
    2e1e:	f1 f7       	brne	.-4      	; 0x2e1c <_Z10SystemInitv+0x33e>
    2e20:	00 c0       	rjmp	.+0      	; 0x2e22 <_Z10SystemInitv+0x344>
    2e22:	00 00       	nop
    2e24:	da 9a       	sbi	0x1b, 2	; 27
    2e26:	22 fe       	sbrs	r2, 2
    2e28:	23 c0       	rjmp	.+70     	; 0x2e70 <_Z10SystemInitv+0x392>
    2e2a:	ff cf       	rjmp	.-2      	; 0x2e2a <_Z10SystemInitv+0x34c>
    2e2c:	d8 9a       	sbi	0x1b, 0	; 27
    2e2e:	98 2f       	mov	r25, r24
    2e30:	90 7f       	andi	r25, 0xF0	; 240
    2e32:	9d 60       	ori	r25, 0x0D	; 13
    2e34:	9b bb       	out	0x1b, r25	; 27
    2e36:	95 e0       	ldi	r25, 0x05	; 5
    2e38:	9a 95       	dec	r25
    2e3a:	f1 f7       	brne	.-4      	; 0x2e38 <_Z10SystemInitv+0x35a>
    2e3c:	00 00       	nop
    2e3e:	da 98       	cbi	0x1b, 2	; 27
    2e40:	2a e1       	ldi	r18, 0x1A	; 26
    2e42:	2a 95       	dec	r18
    2e44:	f1 f7       	brne	.-4      	; 0x2e42 <_Z10SystemInitv+0x364>
    2e46:	00 c0       	rjmp	.+0      	; 0x2e48 <_Z10SystemInitv+0x36a>
    2e48:	20 e1       	ldi	r18, 0x10	; 16
    2e4a:	82 9f       	mul	r24, r18
    2e4c:	c0 01       	movw	r24, r0
    2e4e:	11 24       	eor	r1, r1
    2e50:	8d 60       	ori	r24, 0x0D	; 13
    2e52:	8b bb       	out	0x1b, r24	; 27
    2e54:	85 e0       	ldi	r24, 0x05	; 5
    2e56:	8a 95       	dec	r24
    2e58:	f1 f7       	brne	.-4      	; 0x2e56 <_Z10SystemInitv+0x378>
    2e5a:	00 00       	nop
    2e5c:	da 98       	cbi	0x1b, 2	; 27
    2e5e:	95 ed       	ldi	r25, 0xD5	; 213
    2e60:	9a 95       	dec	r25
    2e62:	f1 f7       	brne	.-4      	; 0x2e60 <_Z10SystemInitv+0x382>
    2e64:	00 00       	nop
    2e66:	da 9a       	sbi	0x1b, 2	; 27
    2e68:	81 91       	ld	r24, Z+
    2e6a:	81 11       	cpse	r24, r1
    2e6c:	df cf       	rjmp	.-66     	; 0x2e2c <_Z10SystemInitv+0x34e>
    2e6e:	bd cf       	rjmp	.-134    	; 0x2dea <_Z10SystemInitv+0x30c>
    2e70:	68 94       	set
    2e72:	22 f8       	bld	r2, 2
    2e74:	80 e2       	ldi	r24, 0x20	; 32
    2e76:	87 b9       	out	0x07, r24	; 7
    2e78:	95 e3       	ldi	r25, 0x35	; 53
    2e7a:	9a 95       	dec	r25
    2e7c:	f1 f7       	brne	.-4      	; 0x2e7a <_Z10SystemInitv+0x39c>
    2e7e:	00 00       	nop
    2e80:	36 9a       	sbi	0x06, 6	; 6
    2e82:	34 9b       	sbis	0x06, 4	; 6
    2e84:	fe cf       	rjmp	.-4      	; 0x2e82 <_Z10SystemInitv+0x3a4>
    2e86:	34 9a       	sbi	0x06, 4	; 6
    2e88:	e8 94       	clt
    2e8a:	22 f8       	bld	r2, 2
    2e8c:	85 b1       	in	r24, 0x05	; 5
    2e8e:	2e e5       	ldi	r18, 0x5E	; 94
    2e90:	82 9f       	mul	r24, r18
    2e92:	c0 01       	movw	r24, r0
    2e94:	11 24       	eor	r1, r1
    2e96:	63 e1       	ldi	r22, 0x13	; 19
    2e98:	70 e0       	ldi	r23, 0x00	; 0
    2e9a:	0e 94 31 1a 	call	0x3462	; 0x3462 <__divmodhi4>
    2e9e:	9b 01       	movw	r18, r22
    2ea0:	cb 01       	movw	r24, r22
    2ea2:	64 e6       	ldi	r22, 0x64	; 100
    2ea4:	70 e0       	ldi	r23, 0x00	; 0
    2ea6:	0e 94 31 1a 	call	0x3462	; 0x3462 <__divmodhi4>
    2eaa:	60 5d       	subi	r22, 0xD0	; 208
    2eac:	d8 9a       	sbi	0x1b, 0	; 27
    2eae:	20 fe       	sbrs	r2, 0
    2eb0:	f4 c0       	rjmp	.+488    	; 0x309a <_Z10SystemInitv+0x5bc>
    2eb2:	8d e3       	ldi	r24, 0x3D	; 61
    2eb4:	8b bb       	out	0x1b, r24	; 27
    2eb6:	85 e0       	ldi	r24, 0x05	; 5
    2eb8:	8a 95       	dec	r24
    2eba:	f1 f7       	brne	.-4      	; 0x2eb8 <_Z10SystemInitv+0x3da>
    2ebc:	00 00       	nop
    2ebe:	da 98       	cbi	0x1b, 2	; 27
    2ec0:	9a e1       	ldi	r25, 0x1A	; 26
    2ec2:	9a 95       	dec	r25
    2ec4:	f1 f7       	brne	.-4      	; 0x2ec2 <_Z10SystemInitv+0x3e4>
    2ec6:	00 c0       	rjmp	.+0      	; 0x2ec8 <_Z10SystemInitv+0x3ea>
    2ec8:	20 fc       	sbrc	r2, 0
    2eca:	1a c1       	rjmp	.+564    	; 0x3100 <_Z10SystemInitv+0x622>
    2ecc:	90 e1       	ldi	r25, 0x10	; 16
    2ece:	69 9f       	mul	r22, r25
    2ed0:	b0 01       	movw	r22, r0
    2ed2:	11 24       	eor	r1, r1
    2ed4:	65 60       	ori	r22, 0x05	; 5
    2ed6:	6b bb       	out	0x1b, r22	; 27
    2ed8:	85 e0       	ldi	r24, 0x05	; 5
    2eda:	8a 95       	dec	r24
    2edc:	f1 f7       	brne	.-4      	; 0x2eda <_Z10SystemInitv+0x3fc>
    2ede:	00 00       	nop
    2ee0:	da 98       	cbi	0x1b, 2	; 27
    2ee2:	95 ed       	ldi	r25, 0xD5	; 213
    2ee4:	9a 95       	dec	r25
    2ee6:	f1 f7       	brne	.-4      	; 0x2ee4 <_Z10SystemInitv+0x406>
    2ee8:	00 00       	nop
    2eea:	da 9a       	sbi	0x1b, 2	; 27
    2eec:	d8 9a       	sbi	0x1b, 0	; 27
    2eee:	20 fe       	sbrs	r2, 0
    2ef0:	d1 c0       	rjmp	.+418    	; 0x3094 <_Z10SystemInitv+0x5b6>
    2ef2:	8d e2       	ldi	r24, 0x2D	; 45
    2ef4:	8b bb       	out	0x1b, r24	; 27
    2ef6:	85 e0       	ldi	r24, 0x05	; 5
    2ef8:	8a 95       	dec	r24
    2efa:	f1 f7       	brne	.-4      	; 0x2ef8 <_Z10SystemInitv+0x41a>
    2efc:	00 00       	nop
    2efe:	da 98       	cbi	0x1b, 2	; 27
    2f00:	9a e1       	ldi	r25, 0x1A	; 26
    2f02:	9a 95       	dec	r25
    2f04:	f1 f7       	brne	.-4      	; 0x2f02 <_Z10SystemInitv+0x424>
    2f06:	00 c0       	rjmp	.+0      	; 0x2f08 <_Z10SystemInitv+0x42a>
    2f08:	20 fc       	sbrc	r2, 0
    2f0a:	f7 c0       	rjmp	.+494    	; 0x30fa <_Z10SystemInitv+0x61c>
    2f0c:	85 ee       	ldi	r24, 0xE5	; 229
    2f0e:	8b bb       	out	0x1b, r24	; 27
    2f10:	85 e0       	ldi	r24, 0x05	; 5
    2f12:	8a 95       	dec	r24
    2f14:	f1 f7       	brne	.-4      	; 0x2f12 <_Z10SystemInitv+0x434>
    2f16:	00 00       	nop
    2f18:	da 98       	cbi	0x1b, 2	; 27
    2f1a:	95 ed       	ldi	r25, 0xD5	; 213
    2f1c:	9a 95       	dec	r25
    2f1e:	f1 f7       	brne	.-4      	; 0x2f1c <_Z10SystemInitv+0x43e>
    2f20:	00 00       	nop
    2f22:	da 9a       	sbi	0x1b, 2	; 27
    2f24:	c9 01       	movw	r24, r18
    2f26:	64 e6       	ldi	r22, 0x64	; 100
    2f28:	70 e0       	ldi	r23, 0x00	; 0
    2f2a:	0e 94 31 1a 	call	0x3462	; 0x3462 <__divmodhi4>
    2f2e:	6a e0       	ldi	r22, 0x0A	; 10
    2f30:	70 e0       	ldi	r23, 0x00	; 0
    2f32:	0e 94 31 1a 	call	0x3462	; 0x3462 <__divmodhi4>
    2f36:	60 5d       	subi	r22, 0xD0	; 208
    2f38:	d8 9a       	sbi	0x1b, 0	; 27
    2f3a:	20 fe       	sbrs	r2, 0
    2f3c:	a8 c0       	rjmp	.+336    	; 0x308e <_Z10SystemInitv+0x5b0>
    2f3e:	8d e3       	ldi	r24, 0x3D	; 61
    2f40:	8b bb       	out	0x1b, r24	; 27
    2f42:	85 e0       	ldi	r24, 0x05	; 5
    2f44:	8a 95       	dec	r24
    2f46:	f1 f7       	brne	.-4      	; 0x2f44 <_Z10SystemInitv+0x466>
    2f48:	00 00       	nop
    2f4a:	da 98       	cbi	0x1b, 2	; 27
    2f4c:	9a e1       	ldi	r25, 0x1A	; 26
    2f4e:	9a 95       	dec	r25
    2f50:	f1 f7       	brne	.-4      	; 0x2f4e <_Z10SystemInitv+0x470>
    2f52:	00 c0       	rjmp	.+0      	; 0x2f54 <_Z10SystemInitv+0x476>
    2f54:	20 fc       	sbrc	r2, 0
    2f56:	ca c0       	rjmp	.+404    	; 0x30ec <_Z10SystemInitv+0x60e>
    2f58:	90 e1       	ldi	r25, 0x10	; 16
    2f5a:	69 9f       	mul	r22, r25
    2f5c:	b0 01       	movw	r22, r0
    2f5e:	11 24       	eor	r1, r1
    2f60:	65 60       	ori	r22, 0x05	; 5
    2f62:	6b bb       	out	0x1b, r22	; 27
    2f64:	85 e0       	ldi	r24, 0x05	; 5
    2f66:	8a 95       	dec	r24
    2f68:	f1 f7       	brne	.-4      	; 0x2f66 <_Z10SystemInitv+0x488>
    2f6a:	00 00       	nop
    2f6c:	da 98       	cbi	0x1b, 2	; 27
    2f6e:	95 ed       	ldi	r25, 0xD5	; 213
    2f70:	9a 95       	dec	r25
    2f72:	f1 f7       	brne	.-4      	; 0x2f70 <_Z10SystemInitv+0x492>
    2f74:	00 00       	nop
    2f76:	da 9a       	sbi	0x1b, 2	; 27
    2f78:	c9 01       	movw	r24, r18
    2f7a:	6a e0       	ldi	r22, 0x0A	; 10
    2f7c:	70 e0       	ldi	r23, 0x00	; 0
    2f7e:	0e 94 31 1a 	call	0x3462	; 0x3462 <__divmodhi4>
    2f82:	80 5d       	subi	r24, 0xD0	; 208
    2f84:	d8 9a       	sbi	0x1b, 0	; 27
    2f86:	20 fe       	sbrs	r2, 0
    2f88:	7f c0       	rjmp	.+254    	; 0x3088 <_Z10SystemInitv+0x5aa>
    2f8a:	9d e3       	ldi	r25, 0x3D	; 61
    2f8c:	9b bb       	out	0x1b, r25	; 27
    2f8e:	25 e0       	ldi	r18, 0x05	; 5
    2f90:	2a 95       	dec	r18
    2f92:	f1 f7       	brne	.-4      	; 0x2f90 <_Z10SystemInitv+0x4b2>
    2f94:	00 00       	nop
    2f96:	da 98       	cbi	0x1b, 2	; 27
    2f98:	9a e1       	ldi	r25, 0x1A	; 26
    2f9a:	9a 95       	dec	r25
    2f9c:	f1 f7       	brne	.-4      	; 0x2f9a <_Z10SystemInitv+0x4bc>
    2f9e:	00 c0       	rjmp	.+0      	; 0x2fa0 <_Z10SystemInitv+0x4c2>
    2fa0:	20 e1       	ldi	r18, 0x10	; 16
    2fa2:	82 9f       	mul	r24, r18
    2fa4:	c0 01       	movw	r24, r0
    2fa6:	11 24       	eor	r1, r1
    2fa8:	20 fc       	sbrc	r2, 0
    2faa:	9d c0       	rjmp	.+314    	; 0x30e6 <_Z10SystemInitv+0x608>
    2fac:	85 60       	ori	r24, 0x05	; 5
    2fae:	8b bb       	out	0x1b, r24	; 27
    2fb0:	95 e0       	ldi	r25, 0x05	; 5
    2fb2:	9a 95       	dec	r25
    2fb4:	f1 f7       	brne	.-4      	; 0x2fb2 <_Z10SystemInitv+0x4d4>
    2fb6:	00 00       	nop
    2fb8:	da 98       	cbi	0x1b, 2	; 27
    2fba:	25 ed       	ldi	r18, 0xD5	; 213
    2fbc:	2a 95       	dec	r18
    2fbe:	f1 f7       	brne	.-4      	; 0x2fbc <_Z10SystemInitv+0x4de>
    2fc0:	00 00       	nop
    2fc2:	da 9a       	sbi	0x1b, 2	; 27
    2fc4:	e3 e0       	ldi	r30, 0x03	; 3
    2fc6:	f2 e0       	ldi	r31, 0x02	; 2
    2fc8:	80 e2       	ldi	r24, 0x20	; 32
    2fca:	20 fc       	sbrc	r2, 0
    2fcc:	32 c0       	rjmp	.+100    	; 0x3032 <_Z10SystemInitv+0x554>
    2fce:	d8 9a       	sbi	0x1b, 0	; 27
    2fd0:	98 2f       	mov	r25, r24
    2fd2:	90 7f       	andi	r25, 0xF0	; 240
    2fd4:	95 60       	ori	r25, 0x05	; 5
    2fd6:	9b bb       	out	0x1b, r25	; 27
    2fd8:	95 e0       	ldi	r25, 0x05	; 5
    2fda:	9a 95       	dec	r25
    2fdc:	f1 f7       	brne	.-4      	; 0x2fda <_Z10SystemInitv+0x4fc>
    2fde:	00 00       	nop
    2fe0:	da 98       	cbi	0x1b, 2	; 27
    2fe2:	2a e1       	ldi	r18, 0x1A	; 26
    2fe4:	2a 95       	dec	r18
    2fe6:	f1 f7       	brne	.-4      	; 0x2fe4 <_Z10SystemInitv+0x506>
    2fe8:	00 c0       	rjmp	.+0      	; 0x2fea <_Z10SystemInitv+0x50c>
    2fea:	20 e1       	ldi	r18, 0x10	; 16
    2fec:	82 9f       	mul	r24, r18
    2fee:	c0 01       	movw	r24, r0
    2ff0:	11 24       	eor	r1, r1
    2ff2:	85 60       	ori	r24, 0x05	; 5
    2ff4:	8b bb       	out	0x1b, r24	; 27
    2ff6:	85 e0       	ldi	r24, 0x05	; 5
    2ff8:	8a 95       	dec	r24
    2ffa:	f1 f7       	brne	.-4      	; 0x2ff8 <_Z10SystemInitv+0x51a>
    2ffc:	00 00       	nop
    2ffe:	da 98       	cbi	0x1b, 2	; 27
    3000:	95 ed       	ldi	r25, 0xD5	; 213
    3002:	9a 95       	dec	r25
    3004:	f1 f7       	brne	.-4      	; 0x3002 <_Z10SystemInitv+0x524>
    3006:	00 00       	nop
    3008:	da 9a       	sbi	0x1b, 2	; 27
    300a:	81 91       	ld	r24, Z+
    300c:	81 11       	cpse	r24, r1
    300e:	df cf       	rjmp	.-66     	; 0x2fce <_Z10SystemInitv+0x4f0>
    3010:	82 e4       	ldi	r24, 0x42	; 66
    3012:	92 e0       	ldi	r25, 0x02	; 2
    3014:	0e 94 88 02 	call	0x510	; 0x510 <_ZN8myBuzzer5Nada1Ev>
    3018:	2f ef       	ldi	r18, 0xFF	; 255
    301a:	83 ec       	ldi	r24, 0xC3	; 195
    301c:	99 e0       	ldi	r25, 0x09	; 9
    301e:	21 50       	subi	r18, 0x01	; 1
    3020:	80 40       	sbci	r24, 0x00	; 0
    3022:	90 40       	sbci	r25, 0x00	; 0
    3024:	e1 f7       	brne	.-8      	; 0x301e <_Z10SystemInitv+0x540>
    3026:	00 c0       	rjmp	.+0      	; 0x3028 <_Z10SystemInitv+0x54a>
    3028:	00 00       	nop
    302a:	22 fe       	sbrs	r2, 2
    302c:	48 c0       	rjmp	.+144    	; 0x30be <_Z10SystemInitv+0x5e0>
    302e:	78 94       	sei
    3030:	08 95       	ret
    3032:	d8 9a       	sbi	0x1b, 0	; 27
    3034:	98 2f       	mov	r25, r24
    3036:	90 7f       	andi	r25, 0xF0	; 240
    3038:	9d 60       	ori	r25, 0x0D	; 13
    303a:	9b bb       	out	0x1b, r25	; 27
    303c:	25 e0       	ldi	r18, 0x05	; 5
    303e:	2a 95       	dec	r18
    3040:	f1 f7       	brne	.-4      	; 0x303e <_Z10SystemInitv+0x560>
    3042:	00 00       	nop
    3044:	da 98       	cbi	0x1b, 2	; 27
    3046:	9a e1       	ldi	r25, 0x1A	; 26
    3048:	9a 95       	dec	r25
    304a:	f1 f7       	brne	.-4      	; 0x3048 <_Z10SystemInitv+0x56a>
    304c:	00 c0       	rjmp	.+0      	; 0x304e <_Z10SystemInitv+0x570>
    304e:	20 e1       	ldi	r18, 0x10	; 16
    3050:	82 9f       	mul	r24, r18
    3052:	c0 01       	movw	r24, r0
    3054:	11 24       	eor	r1, r1
    3056:	8d 60       	ori	r24, 0x0D	; 13
    3058:	8b bb       	out	0x1b, r24	; 27
    305a:	85 e0       	ldi	r24, 0x05	; 5
    305c:	8a 95       	dec	r24
    305e:	f1 f7       	brne	.-4      	; 0x305c <_Z10SystemInitv+0x57e>
    3060:	00 00       	nop
    3062:	da 98       	cbi	0x1b, 2	; 27
    3064:	95 ed       	ldi	r25, 0xD5	; 213
    3066:	9a 95       	dec	r25
    3068:	f1 f7       	brne	.-4      	; 0x3066 <_Z10SystemInitv+0x588>
    306a:	00 00       	nop
    306c:	da 9a       	sbi	0x1b, 2	; 27
    306e:	81 91       	ld	r24, Z+
    3070:	81 11       	cpse	r24, r1
    3072:	df cf       	rjmp	.-66     	; 0x3032 <_Z10SystemInitv+0x554>
    3074:	cd cf       	rjmp	.-102    	; 0x3010 <_Z10SystemInitv+0x532>
    3076:	84 ec       	ldi	r24, 0xC4	; 196
    3078:	8b bb       	out	0x1b, r24	; 27
    307a:	bc ce       	rjmp	.-648    	; 0x2df4 <_Z10SystemInitv+0x316>
    307c:	84 e0       	ldi	r24, 0x04	; 4
    307e:	8b bb       	out	0x1b, r24	; 27
    3080:	4e ce       	rjmp	.-868    	; 0x2d1e <_Z10SystemInitv+0x240>
    3082:	84 e0       	ldi	r24, 0x04	; 4
    3084:	8b bb       	out	0x1b, r24	; 27
    3086:	2d ce       	rjmp	.-934    	; 0x2ce2 <_Z10SystemInitv+0x204>
    3088:	95 e3       	ldi	r25, 0x35	; 53
    308a:	9b bb       	out	0x1b, r25	; 27
    308c:	80 cf       	rjmp	.-256    	; 0x2f8e <_Z10SystemInitv+0x4b0>
    308e:	85 e3       	ldi	r24, 0x35	; 53
    3090:	8b bb       	out	0x1b, r24	; 27
    3092:	57 cf       	rjmp	.-338    	; 0x2f42 <_Z10SystemInitv+0x464>
    3094:	85 e2       	ldi	r24, 0x25	; 37
    3096:	8b bb       	out	0x1b, r24	; 27
    3098:	2e cf       	rjmp	.-420    	; 0x2ef6 <_Z10SystemInitv+0x418>
    309a:	85 e3       	ldi	r24, 0x35	; 53
    309c:	8b bb       	out	0x1b, r24	; 27
    309e:	0b cf       	rjmp	.-490    	; 0x2eb6 <_Z10SystemInitv+0x3d8>
    30a0:	84 e8       	ldi	r24, 0x84	; 132
    30a2:	8b bb       	out	0x1b, r24	; 27
    30a4:	63 ce       	rjmp	.-826    	; 0x2d6c <_Z10SystemInitv+0x28e>
    30a6:	84 e2       	ldi	r24, 0x24	; 36
    30a8:	8b bb       	out	0x1b, r24	; 27
    30aa:	c1 cd       	rjmp	.-1150   	; 0x2c2e <_Z10SystemInitv+0x150>
    30ac:	84 e0       	ldi	r24, 0x04	; 4
    30ae:	8b bb       	out	0x1b, r24	; 27
    30b0:	fa cd       	rjmp	.-1036   	; 0x2ca6 <_Z10SystemInitv+0x1c8>
    30b2:	84 e1       	ldi	r24, 0x14	; 20
    30b4:	8b bb       	out	0x1b, r24	; 27
    30b6:	d9 cd       	rjmp	.-1102   	; 0x2c6a <_Z10SystemInitv+0x18c>
    30b8:	8c e8       	ldi	r24, 0x8C	; 140
    30ba:	8b bb       	out	0x1b, r24	; 27
    30bc:	c5 cd       	rjmp	.-1142   	; 0x2c48 <_Z10SystemInitv+0x16a>
    30be:	68 94       	set
    30c0:	22 f8       	bld	r2, 2
    30c2:	80 e2       	ldi	r24, 0x20	; 32
    30c4:	87 b9       	out	0x07, r24	; 7
    30c6:	25 e3       	ldi	r18, 0x35	; 53
    30c8:	2a 95       	dec	r18
    30ca:	f1 f7       	brne	.-4      	; 0x30c8 <_Z10SystemInitv+0x5ea>
    30cc:	00 00       	nop
    30ce:	36 9a       	sbi	0x06, 6	; 6
    30d0:	34 9b       	sbis	0x06, 4	; 6
    30d2:	fe cf       	rjmp	.-4      	; 0x30d0 <_Z10SystemInitv+0x5f2>
    30d4:	34 9a       	sbi	0x06, 4	; 6
    30d6:	e8 94       	clt
    30d8:	22 f8       	bld	r2, 2
    30da:	85 b1       	in	r24, 0x05	; 5
    30dc:	84 36       	cpi	r24, 0x64	; 100
    30de:	08 f0       	brcs	.+2      	; 0x30e2 <_Z10SystemInitv+0x604>
    30e0:	a6 cf       	rjmp	.-180    	; 0x302e <_Z10SystemInitv+0x550>
    30e2:	0e 94 bd 03 	call	0x77a	; 0x77a <_ZN5myADC9CekBatereEv.part.7>
    30e6:	8d 60       	ori	r24, 0x0D	; 13
    30e8:	8b bb       	out	0x1b, r24	; 27
    30ea:	62 cf       	rjmp	.-316    	; 0x2fb0 <_Z10SystemInitv+0x4d2>
    30ec:	80 e1       	ldi	r24, 0x10	; 16
    30ee:	68 9f       	mul	r22, r24
    30f0:	b0 01       	movw	r22, r0
    30f2:	11 24       	eor	r1, r1
    30f4:	6d 60       	ori	r22, 0x0D	; 13
    30f6:	6b bb       	out	0x1b, r22	; 27
    30f8:	35 cf       	rjmp	.-406    	; 0x2f64 <_Z10SystemInitv+0x486>
    30fa:	8d ee       	ldi	r24, 0xED	; 237
    30fc:	8b bb       	out	0x1b, r24	; 27
    30fe:	08 cf       	rjmp	.-496    	; 0x2f10 <_Z10SystemInitv+0x432>
    3100:	80 e1       	ldi	r24, 0x10	; 16
    3102:	68 9f       	mul	r22, r24
    3104:	b0 01       	movw	r22, r0
    3106:	11 24       	eor	r1, r1
    3108:	6d 60       	ori	r22, 0x0D	; 13
    310a:	6b bb       	out	0x1b, r22	; 27
    310c:	e5 ce       	rjmp	.-566    	; 0x2ed8 <_Z10SystemInitv+0x3fa>
    310e:	8c e0       	ldi	r24, 0x0C	; 12
    3110:	8b bb       	out	0x1b, r24	; 27
    3112:	7d ce       	rjmp	.-774    	; 0x2e0e <_Z10SystemInitv+0x330>
    3114:	8c e0       	ldi	r24, 0x0C	; 12
    3116:	8b bb       	out	0x1b, r24	; 27
    3118:	36 ce       	rjmp	.-916    	; 0x2d86 <_Z10SystemInitv+0x2a8>
    311a:	8c e1       	ldi	r24, 0x1C	; 28
    311c:	8b bb       	out	0x1b, r24	; 27
    311e:	0c ce       	rjmp	.-1000   	; 0x2d38 <_Z10SystemInitv+0x25a>
    3120:	8c ec       	ldi	r24, 0xCC	; 204
    3122:	8b bb       	out	0x1b, r24	; 27
    3124:	eb cd       	rjmp	.-1066   	; 0x2cfc <_Z10SystemInitv+0x21e>
    3126:	8c e6       	ldi	r24, 0x6C	; 108
    3128:	8b bb       	out	0x1b, r24	; 27
    312a:	ca cd       	rjmp	.-1132   	; 0x2cc0 <_Z10SystemInitv+0x1e2>
    312c:	8c e0       	ldi	r24, 0x0C	; 12
    312e:	8b bb       	out	0x1b, r24	; 27
    3130:	a9 cd       	rjmp	.-1198   	; 0x2c84 <_Z10SystemInitv+0x1a6>

00003132 <main>:
    3132:	cf 93       	push	r28
    3134:	df 93       	push	r29
    3136:	00 d0       	rcall	.+0      	; 0x3138 <main+0x6>
    3138:	00 d0       	rcall	.+0      	; 0x313a <main+0x8>
    313a:	00 d0       	rcall	.+0      	; 0x313c <main+0xa>
    313c:	cd b7       	in	r28, 0x3d	; 61
    313e:	de b7       	in	r29, 0x3e	; 62
    3140:	0e 94 6f 15 	call	0x2ade	; 0x2ade <_Z10SystemInitv>
    3144:	61 e0       	ldi	r22, 0x01	; 1
    3146:	81 e4       	ldi	r24, 0x41	; 65
    3148:	92 e0       	ldi	r25, 0x02	; 2
    314a:	0e 94 0e 03 	call	0x61c	; 0x61c <_ZN5myLCD8PerintahEh>
    314e:	8f e3       	ldi	r24, 0x3F	; 63
    3150:	9f e1       	ldi	r25, 0x1F	; 31
    3152:	01 97       	sbiw	r24, 0x01	; 1
    3154:	f1 f7       	brne	.-4      	; 0x3152 <main+0x20>
    3156:	00 c0       	rjmp	.+0      	; 0x3158 <main+0x26>
    3158:	00 00       	nop
    315a:	19 82       	std	Y+1, r1	; 0x01
    315c:	81 e0       	ldi	r24, 0x01	; 1
    315e:	8a 83       	std	Y+2, r24	; 0x02
    3160:	8b 83       	std	Y+3, r24	; 0x03
    3162:	68 94       	set
    3164:	31 f8       	bld	r3, 1
    3166:	68 94       	set
    3168:	32 f8       	bld	r3, 2
    316a:	68 94       	set
    316c:	30 f8       	bld	r3, 0
    316e:	80 e5       	ldi	r24, 0x50	; 80
    3170:	90 e0       	ldi	r25, 0x00	; 0
    3172:	9d 83       	std	Y+5, r25	; 0x05
    3174:	8c 83       	std	Y+4, r24	; 0x04
    3176:	1e 82       	std	Y+6, r1	; 0x06
    3178:	98 99       	sbic	0x13, 0	; 19
    317a:	05 c0       	rjmp	.+10     	; 0x3186 <main+0x54>
    317c:	60 e0       	ldi	r22, 0x00	; 0
    317e:	8e e3       	ldi	r24, 0x3E	; 62
    3180:	92 e0       	ldi	r25, 0x02	; 2
    3182:	0e 94 17 0d 	call	0x1a2e	; 0x1a2e <_ZN13mySensorGaris12KalibrasiRGBEh>
    3186:	99 99       	sbic	0x13, 1	; 19
    3188:	05 c0       	rjmp	.+10     	; 0x3194 <main+0x62>
    318a:	61 e0       	ldi	r22, 0x01	; 1
    318c:	8e e3       	ldi	r24, 0x3E	; 62
    318e:	92 e0       	ldi	r25, 0x02	; 2
    3190:	0e 94 50 10 	call	0x20a0	; 0x20a0 <_ZN13mySensorGaris11KalibrasiRBEh>
    3194:	44 e0       	ldi	r20, 0x04	; 4
    3196:	60 e0       	ldi	r22, 0x00	; 0
    3198:	ce 01       	movw	r24, r28
    319a:	01 96       	adiw	r24, 0x01	; 1
    319c:	0e 94 65 13 	call	0x26ca	; 0x26ca <_ZN11myScanGaris17UpdateSensorGarisEhh>
    31a0:	44 e0       	ldi	r20, 0x04	; 4
    31a2:	60 e0       	ldi	r22, 0x00	; 0
    31a4:	ce 01       	movw	r24, r28
    31a6:	01 96       	adiw	r24, 0x01	; 1
    31a8:	0e 94 a6 13 	call	0x274c	; 0x274c <_ZN11myScanGaris21UpdateSensorPertigaanEhh>
    31ac:	19 82       	std	Y+1, r1	; 0x01
    31ae:	48 e0       	ldi	r20, 0x08	; 8
    31b0:	52 e0       	ldi	r21, 0x02	; 2
    31b2:	60 e0       	ldi	r22, 0x00	; 0
    31b4:	81 e4       	ldi	r24, 0x41	; 65
    31b6:	92 e0       	ldi	r25, 0x02	; 2
    31b8:	0e 94 1a 0b 	call	0x1634	; 0x1634 <_ZN5myLCD12TulisPinggirEhPKc>
    31bc:	49 e1       	ldi	r20, 0x19	; 25
    31be:	52 e0       	ldi	r21, 0x02	; 2
    31c0:	61 e0       	ldi	r22, 0x01	; 1
    31c2:	81 e4       	ldi	r24, 0x41	; 65
    31c4:	92 e0       	ldi	r25, 0x02	; 2
    31c6:	0e 94 4b 0a 	call	0x1496	; 0x1496 <_ZN5myLCD11TulisTengahEhPKc>
    31ca:	84 ef       	ldi	r24, 0xF4	; 244
    31cc:	91 e0       	ldi	r25, 0x01	; 1
    31ce:	ef e9       	ldi	r30, 0x9F	; 159
    31d0:	ff e0       	ldi	r31, 0x0F	; 15
    31d2:	31 97       	sbiw	r30, 0x01	; 1
    31d4:	f1 f7       	brne	.-4      	; 0x31d2 <main+0xa0>
    31d6:	00 c0       	rjmp	.+0      	; 0x31d8 <main+0xa6>
    31d8:	00 00       	nop
    31da:	01 97       	sbiw	r24, 0x01	; 1
    31dc:	00 97       	sbiw	r24, 0x00	; 0
    31de:	b9 f7       	brne	.-18     	; 0x31ce <main+0x9c>
    31e0:	60 e0       	ldi	r22, 0x00	; 0
    31e2:	81 e4       	ldi	r24, 0x41	; 65
    31e4:	92 e0       	ldi	r25, 0x02	; 2
    31e6:	0e 94 92 09 	call	0x1324	; 0x1324 <_ZN5myLCD12HapusPinggirEh>
    31ea:	61 e0       	ldi	r22, 0x01	; 1
    31ec:	81 e4       	ldi	r24, 0x41	; 65
    31ee:	92 e0       	ldi	r25, 0x02	; 2
    31f0:	0e 94 d8 08 	call	0x11b0	; 0x11b0 <_ZN5myLCD11HapusTengahEh>
    31f4:	6a e2       	ldi	r22, 0x2A	; 42
    31f6:	72 e0       	ldi	r23, 0x02	; 2
    31f8:	80 e0       	ldi	r24, 0x00	; 0
    31fa:	0e 94 b0 01 	call	0x360	; 0x360 <_ZN5myLCD5TulisEhPKc.constprop.19>
    31fe:	63 e3       	ldi	r22, 0x33	; 51
    3200:	72 e0       	ldi	r23, 0x02	; 2
    3202:	81 e0       	ldi	r24, 0x01	; 1
    3204:	0e 94 b0 01 	call	0x360	; 0x360 <_ZN5myLCD5TulisEhPKc.constprop.19>
    3208:	9b 9b       	sbis	0x13, 3	; 19
    320a:	1f c0       	rjmp	.+62     	; 0x324a <main+0x118>
    320c:	9a 99       	sbic	0x13, 2	; 19
    320e:	03 c0       	rjmp	.+6      	; 0x3216 <main+0xe4>
    3210:	1c c0       	rjmp	.+56     	; 0x324a <main+0x118>
    3212:	9a 9b       	sbis	0x13, 2	; 19
    3214:	1a c0       	rjmp	.+52     	; 0x324a <main+0x118>
    3216:	68 e8       	ldi	r22, 0x88	; 136
    3218:	81 e4       	ldi	r24, 0x41	; 65
    321a:	92 e0       	ldi	r25, 0x02	; 2
    321c:	0e 94 0e 03 	call	0x61c	; 0x61c <_ZN5myLCD8PerintahEh>
    3220:	60 e2       	ldi	r22, 0x20	; 32
    3222:	80 e0       	ldi	r24, 0x00	; 0
    3224:	0e 94 fe 00 	call	0x1fc	; 0x1fc <_ZN13mySensorGaris9BacaGarisEhh.constprop.14>
    3228:	80 95       	com	r24
    322a:	0e 94 63 01 	call	0x2c6	; 0x2c6 <_ZN5myLCD5BinerEh.constprop.16>
    322e:	68 ec       	ldi	r22, 0xC8	; 200
    3230:	81 e4       	ldi	r24, 0x41	; 65
    3232:	92 e0       	ldi	r25, 0x02	; 2
    3234:	0e 94 0e 03 	call	0x61c	; 0x61c <_ZN5myLCD8PerintahEh>
    3238:	60 e4       	ldi	r22, 0x40	; 64
    323a:	80 e0       	ldi	r24, 0x00	; 0
    323c:	0e 94 fe 00 	call	0x1fc	; 0x1fc <_ZN13mySensorGaris9BacaGarisEhh.constprop.14>
    3240:	80 95       	com	r24
    3242:	0e 94 63 01 	call	0x2c6	; 0x2c6 <_ZN5myLCD5BinerEh.constprop.16>
    3246:	9b 99       	sbic	0x13, 3	; 19
    3248:	e4 cf       	rjmp	.-56     	; 0x3212 <main+0xe0>
    324a:	44 e0       	ldi	r20, 0x04	; 4
    324c:	60 e0       	ldi	r22, 0x00	; 0
    324e:	ce 01       	movw	r24, r28
    3250:	01 96       	adiw	r24, 0x01	; 1
    3252:	0e 94 65 13 	call	0x26ca	; 0x26ca <_ZN11myScanGaris17UpdateSensorGarisEhh>
    3256:	44 e0       	ldi	r20, 0x04	; 4
    3258:	60 e0       	ldi	r22, 0x00	; 0
    325a:	ce 01       	movw	r24, r28
    325c:	01 96       	adiw	r24, 0x01	; 1
    325e:	0e 94 a6 13 	call	0x274c	; 0x274c <_ZN11myScanGaris21UpdateSensorPertigaanEhh>
    3262:	61 e0       	ldi	r22, 0x01	; 1
    3264:	81 e4       	ldi	r24, 0x41	; 65
    3266:	92 e0       	ldi	r25, 0x02	; 2
    3268:	0e 94 0e 03 	call	0x61c	; 0x61c <_ZN5myLCD8PerintahEh>
    326c:	8f e3       	ldi	r24, 0x3F	; 63
    326e:	9f e1       	ldi	r25, 0x1F	; 31
    3270:	01 97       	sbiw	r24, 0x01	; 1
    3272:	f1 f7       	brne	.-4      	; 0x3270 <main+0x13e>
    3274:	00 c0       	rjmp	.+0      	; 0x3276 <main+0x144>
    3276:	00 00       	nop
    3278:	9b 9b       	sbis	0x13, 3	; 19
    327a:	b9 c0       	rjmp	.+370    	; 0x33ee <main+0x2bc>
    327c:	0b e1       	ldi	r16, 0x1B	; 27
    327e:	a3 e5       	ldi	r26, 0x53	; 83
    3280:	ea 2e       	mov	r14, r26
    3282:	bc e1       	ldi	r27, 0x1C	; 28
    3284:	fb 2e       	mov	r15, r27
    3286:	1a ef       	ldi	r17, 0xFA	; 250
    3288:	8d e7       	ldi	r24, 0x7D	; 125
    328a:	d8 2e       	mov	r13, r24
    328c:	60 e2       	ldi	r22, 0x20	; 32
    328e:	80 e0       	ldi	r24, 0x00	; 0
    3290:	0e 94 fe 00 	call	0x1fc	; 0x1fc <_ZN13mySensorGaris9BacaGarisEhh.constprop.14>
    3294:	85 fd       	sbrc	r24, 5
    3296:	a6 c0       	rjmp	.+332    	; 0x33e4 <main+0x2b2>
    3298:	68 94       	set
    329a:	23 f8       	bld	r2, 3
    329c:	10 92 43 02 	sts	0x0243, r1
    32a0:	10 92 44 02 	sts	0x0244, r1
    32a4:	10 92 85 00 	sts	0x0085, r1
    32a8:	10 92 84 00 	sts	0x0084, r1
    32ac:	10 92 87 00 	sts	0x0087, r1
    32b0:	10 92 86 00 	sts	0x0086, r1
    32b4:	0e 94 78 00 	call	0xf0	; 0xf0 <_ZN8myBuzzer5Nada4Ev.constprop.22>
    32b8:	04 c0       	rjmp	.+8      	; 0x32c2 <main+0x190>
    32ba:	ce 01       	movw	r24, r28
    32bc:	01 96       	adiw	r24, 0x01	; 1
    32be:	0e 94 96 04 	call	0x92c	; 0x92c <_ZN11myScanGaris15TraceUjungKananEj.constprop.12>
    32c2:	60 e2       	ldi	r22, 0x20	; 32
    32c4:	80 e0       	ldi	r24, 0x00	; 0
    32c6:	0e 94 fe 00 	call	0x1fc	; 0x1fc <_ZN13mySensorGaris9BacaGarisEhh.constprop.14>
    32ca:	85 ff       	sbrs	r24, 5
    32cc:	f6 cf       	rjmp	.-20     	; 0x32ba <main+0x188>
    32ce:	68 94       	set
    32d0:	23 f8       	bld	r2, 3
    32d2:	10 92 43 02 	sts	0x0243, r1
    32d6:	10 92 44 02 	sts	0x0244, r1
    32da:	10 92 85 00 	sts	0x0085, r1
    32de:	10 92 84 00 	sts	0x0084, r1
    32e2:	10 92 87 00 	sts	0x0087, r1
    32e6:	10 92 86 00 	sts	0x0086, r1
    32ea:	03 bf       	out	0x33, r16	; 51
    32ec:	12 be       	out	0x32, r1	; 50
    32ee:	e1 be       	out	0x31, r14	; 49
    32f0:	82 e3       	ldi	r24, 0x32	; 50
    32f2:	90 e0       	ldi	r25, 0x00	; 0
    32f4:	ef e9       	ldi	r30, 0x9F	; 159
    32f6:	ff e0       	ldi	r31, 0x0F	; 15
    32f8:	31 97       	sbiw	r30, 0x01	; 1
    32fa:	f1 f7       	brne	.-4      	; 0x32f8 <main+0x1c6>
    32fc:	00 c0       	rjmp	.+0      	; 0x32fe <main+0x1cc>
    32fe:	00 00       	nop
    3300:	01 97       	sbiw	r24, 0x01	; 1
    3302:	00 97       	sbiw	r24, 0x00	; 0
    3304:	b9 f7       	brne	.-18     	; 0x32f4 <main+0x1c2>
    3306:	13 be       	out	0x33, r1	; 51
    3308:	10 be       	out	0x30, r1	; 48
    330a:	c4 98       	cbi	0x18, 4	; 24
    330c:	f3 be       	out	0x33, r15	; 51
    330e:	12 be       	out	0x32, r1	; 50
    3310:	11 bf       	out	0x31, r17	; 49
    3312:	84 e1       	ldi	r24, 0x14	; 20
    3314:	90 e0       	ldi	r25, 0x00	; 0
    3316:	ef e9       	ldi	r30, 0x9F	; 159
    3318:	ff e0       	ldi	r31, 0x0F	; 15
    331a:	31 97       	sbiw	r30, 0x01	; 1
    331c:	f1 f7       	brne	.-4      	; 0x331a <main+0x1e8>
    331e:	00 c0       	rjmp	.+0      	; 0x3320 <main+0x1ee>
    3320:	00 00       	nop
    3322:	01 97       	sbiw	r24, 0x01	; 1
    3324:	00 97       	sbiw	r24, 0x00	; 0
    3326:	b9 f7       	brne	.-18     	; 0x3316 <main+0x1e4>
    3328:	13 be       	out	0x33, r1	; 51
    332a:	10 be       	out	0x30, r1	; 48
    332c:	c4 98       	cbi	0x18, 4	; 24
    332e:	03 bf       	out	0x33, r16	; 51
    3330:	12 be       	out	0x32, r1	; 50
    3332:	11 bf       	out	0x31, r17	; 49
    3334:	86 e9       	ldi	r24, 0x96	; 150
    3336:	90 e0       	ldi	r25, 0x00	; 0
    3338:	ef e9       	ldi	r30, 0x9F	; 159
    333a:	ff e0       	ldi	r31, 0x0F	; 15
    333c:	31 97       	sbiw	r30, 0x01	; 1
    333e:	f1 f7       	brne	.-4      	; 0x333c <main+0x20a>
    3340:	00 c0       	rjmp	.+0      	; 0x3342 <main+0x210>
    3342:	00 00       	nop
    3344:	01 97       	sbiw	r24, 0x01	; 1
    3346:	00 97       	sbiw	r24, 0x00	; 0
    3348:	b9 f7       	brne	.-18     	; 0x3338 <main+0x206>
    334a:	13 be       	out	0x33, r1	; 51
    334c:	10 be       	out	0x30, r1	; 48
    334e:	c4 98       	cbi	0x18, 4	; 24
    3350:	f3 be       	out	0x33, r15	; 51
    3352:	12 be       	out	0x32, r1	; 50
    3354:	11 bf       	out	0x31, r17	; 49
    3356:	84 e1       	ldi	r24, 0x14	; 20
    3358:	90 e0       	ldi	r25, 0x00	; 0
    335a:	ef e9       	ldi	r30, 0x9F	; 159
    335c:	ff e0       	ldi	r31, 0x0F	; 15
    335e:	31 97       	sbiw	r30, 0x01	; 1
    3360:	f1 f7       	brne	.-4      	; 0x335e <main+0x22c>
    3362:	00 c0       	rjmp	.+0      	; 0x3364 <main+0x232>
    3364:	00 00       	nop
    3366:	01 97       	sbiw	r24, 0x01	; 1
    3368:	00 97       	sbiw	r24, 0x00	; 0
    336a:	b9 f7       	brne	.-18     	; 0x335a <main+0x228>
    336c:	13 be       	out	0x33, r1	; 51
    336e:	10 be       	out	0x30, r1	; 48
    3370:	c4 98       	cbi	0x18, 4	; 24
    3372:	03 bf       	out	0x33, r16	; 51
    3374:	12 be       	out	0x32, r1	; 50
    3376:	e1 be       	out	0x31, r14	; 49
    3378:	84 e6       	ldi	r24, 0x64	; 100
    337a:	90 e0       	ldi	r25, 0x00	; 0
    337c:	ef e9       	ldi	r30, 0x9F	; 159
    337e:	ff e0       	ldi	r31, 0x0F	; 15
    3380:	31 97       	sbiw	r30, 0x01	; 1
    3382:	f1 f7       	brne	.-4      	; 0x3380 <main+0x24e>
    3384:	00 c0       	rjmp	.+0      	; 0x3386 <main+0x254>
    3386:	00 00       	nop
    3388:	01 97       	sbiw	r24, 0x01	; 1
    338a:	00 97       	sbiw	r24, 0x00	; 0
    338c:	b9 f7       	brne	.-18     	; 0x337c <main+0x24a>
    338e:	13 be       	out	0x33, r1	; 51
    3390:	10 be       	out	0x30, r1	; 48
    3392:	c4 98       	cbi	0x18, 4	; 24
    3394:	f3 be       	out	0x33, r15	; 51
    3396:	12 be       	out	0x32, r1	; 50
    3398:	11 bf       	out	0x31, r17	; 49
    339a:	84 e1       	ldi	r24, 0x14	; 20
    339c:	90 e0       	ldi	r25, 0x00	; 0
    339e:	ef e9       	ldi	r30, 0x9F	; 159
    33a0:	ff e0       	ldi	r31, 0x0F	; 15
    33a2:	31 97       	sbiw	r30, 0x01	; 1
    33a4:	f1 f7       	brne	.-4      	; 0x33a2 <main+0x270>
    33a6:	00 c0       	rjmp	.+0      	; 0x33a8 <main+0x276>
    33a8:	00 00       	nop
    33aa:	01 97       	sbiw	r24, 0x01	; 1
    33ac:	00 97       	sbiw	r24, 0x00	; 0
    33ae:	b9 f7       	brne	.-18     	; 0x339e <main+0x26c>
    33b0:	13 be       	out	0x33, r1	; 51
    33b2:	10 be       	out	0x30, r1	; 48
    33b4:	c4 98       	cbi	0x18, 4	; 24
    33b6:	03 bf       	out	0x33, r16	; 51
    33b8:	12 be       	out	0x32, r1	; 50
    33ba:	d1 be       	out	0x31, r13	; 49
    33bc:	82 e3       	ldi	r24, 0x32	; 50
    33be:	90 e0       	ldi	r25, 0x00	; 0
    33c0:	ef e9       	ldi	r30, 0x9F	; 159
    33c2:	ff e0       	ldi	r31, 0x0F	; 15
    33c4:	31 97       	sbiw	r30, 0x01	; 1
    33c6:	f1 f7       	brne	.-4      	; 0x33c4 <main+0x292>
    33c8:	00 c0       	rjmp	.+0      	; 0x33ca <main+0x298>
    33ca:	00 00       	nop
    33cc:	01 97       	sbiw	r24, 0x01	; 1
    33ce:	00 97       	sbiw	r24, 0x00	; 0
    33d0:	b9 f7       	brne	.-18     	; 0x33c0 <main+0x28e>
    33d2:	13 be       	out	0x33, r1	; 51
    33d4:	10 be       	out	0x30, r1	; 48
    33d6:	c4 98       	cbi	0x18, 4	; 24
    33d8:	60 e2       	ldi	r22, 0x20	; 32
    33da:	80 e0       	ldi	r24, 0x00	; 0
    33dc:	0e 94 fe 00 	call	0x1fc	; 0x1fc <_ZN13mySensorGaris9BacaGarisEhh.constprop.14>
    33e0:	85 ff       	sbrs	r24, 5
    33e2:	5a cf       	rjmp	.-332    	; 0x3298 <main+0x166>
    33e4:	ce 01       	movw	r24, r28
    33e6:	01 96       	adiw	r24, 0x01	; 1
    33e8:	0e 94 96 04 	call	0x92c	; 0x92c <_ZN11myScanGaris15TraceUjungKananEj.constprop.12>
    33ec:	4f cf       	rjmp	.-354    	; 0x328c <main+0x15a>
    33ee:	0e 94 78 00 	call	0xf0	; 0xf0 <_ZN8myBuzzer5Nada4Ev.constprop.22>
    33f2:	44 cf       	rjmp	.-376    	; 0x327c <main+0x14a>

000033f4 <_GLOBAL__sub_I__Z8delay_msj>:
    33f4:	8c ed       	ldi	r24, 0xDC	; 220
    33f6:	95 e0       	ldi	r25, 0x05	; 5
    33f8:	9b bd       	out	0x2b, r25	; 43
    33fa:	8a bd       	out	0x2a, r24	; 42
    33fc:	99 bd       	out	0x29, r25	; 41
    33fe:	88 bd       	out	0x28, r24	; 40
    3400:	90 93 79 00 	sts	0x0079, r25
    3404:	80 93 78 00 	sts	0x0078, r24
    3408:	10 92 43 02 	sts	0x0243, r1
    340c:	10 92 44 02 	sts	0x0244, r1
    3410:	10 92 85 00 	sts	0x0085, r1
    3414:	10 92 84 00 	sts	0x0084, r1
    3418:	10 92 87 00 	sts	0x0087, r1
    341c:	10 92 86 00 	sts	0x0086, r1
    3420:	10 92 45 02 	sts	0x0245, r1
    3424:	10 92 46 02 	sts	0x0246, r1
    3428:	10 92 47 02 	sts	0x0247, r1
    342c:	10 92 48 02 	sts	0x0248, r1
    3430:	80 e2       	ldi	r24, 0x20	; 32
    3432:	87 b9       	out	0x07, r24	; 7
    3434:	84 e8       	ldi	r24, 0x84	; 132
    3436:	86 b9       	out	0x06, r24	; 6
    3438:	08 95       	ret

0000343a <__udivmodhi4>:
    343a:	aa 1b       	sub	r26, r26
    343c:	bb 1b       	sub	r27, r27
    343e:	51 e1       	ldi	r21, 0x11	; 17
    3440:	07 c0       	rjmp	.+14     	; 0x3450 <__udivmodhi4_ep>

00003442 <__udivmodhi4_loop>:
    3442:	aa 1f       	adc	r26, r26
    3444:	bb 1f       	adc	r27, r27
    3446:	a6 17       	cp	r26, r22
    3448:	b7 07       	cpc	r27, r23
    344a:	10 f0       	brcs	.+4      	; 0x3450 <__udivmodhi4_ep>
    344c:	a6 1b       	sub	r26, r22
    344e:	b7 0b       	sbc	r27, r23

00003450 <__udivmodhi4_ep>:
    3450:	88 1f       	adc	r24, r24
    3452:	99 1f       	adc	r25, r25
    3454:	5a 95       	dec	r21
    3456:	a9 f7       	brne	.-22     	; 0x3442 <__udivmodhi4_loop>
    3458:	80 95       	com	r24
    345a:	90 95       	com	r25
    345c:	bc 01       	movw	r22, r24
    345e:	cd 01       	movw	r24, r26
    3460:	08 95       	ret

00003462 <__divmodhi4>:
    3462:	97 fb       	bst	r25, 7
    3464:	07 2e       	mov	r0, r23
    3466:	16 f4       	brtc	.+4      	; 0x346c <__divmodhi4+0xa>
    3468:	00 94       	com	r0
    346a:	07 d0       	rcall	.+14     	; 0x347a <__divmodhi4_neg1>
    346c:	77 fd       	sbrc	r23, 7
    346e:	09 d0       	rcall	.+18     	; 0x3482 <__divmodhi4_neg2>
    3470:	0e 94 1d 1a 	call	0x343a	; 0x343a <__udivmodhi4>
    3474:	07 fc       	sbrc	r0, 7
    3476:	05 d0       	rcall	.+10     	; 0x3482 <__divmodhi4_neg2>
    3478:	3e f4       	brtc	.+14     	; 0x3488 <__divmodhi4_exit>

0000347a <__divmodhi4_neg1>:
    347a:	90 95       	com	r25
    347c:	81 95       	neg	r24
    347e:	9f 4f       	sbci	r25, 0xFF	; 255
    3480:	08 95       	ret

00003482 <__divmodhi4_neg2>:
    3482:	70 95       	com	r23
    3484:	61 95       	neg	r22
    3486:	7f 4f       	sbci	r23, 0xFF	; 255

00003488 <__divmodhi4_exit>:
    3488:	08 95       	ret

0000348a <__umulhisi3>:
    348a:	a2 9f       	mul	r26, r18
    348c:	b0 01       	movw	r22, r0
    348e:	b3 9f       	mul	r27, r19
    3490:	c0 01       	movw	r24, r0
    3492:	a3 9f       	mul	r26, r19
    3494:	70 0d       	add	r23, r0
    3496:	81 1d       	adc	r24, r1
    3498:	11 24       	eor	r1, r1
    349a:	91 1d       	adc	r25, r1
    349c:	b2 9f       	mul	r27, r18
    349e:	70 0d       	add	r23, r0
    34a0:	81 1d       	adc	r24, r1
    34a2:	11 24       	eor	r1, r1
    34a4:	91 1d       	adc	r25, r1
    34a6:	08 95       	ret

000034a8 <__tablejump_elpm__>:
    34a8:	07 90       	elpm	r0, Z+
    34aa:	f6 91       	elpm	r31, Z
    34ac:	e0 2d       	mov	r30, r0
    34ae:	09 94       	ijmp

000034b0 <__subsf3>:
    34b0:	50 58       	subi	r21, 0x80	; 128

000034b2 <__addsf3>:
    34b2:	bb 27       	eor	r27, r27
    34b4:	aa 27       	eor	r26, r26
    34b6:	0e d0       	rcall	.+28     	; 0x34d4 <__addsf3x>
    34b8:	4d c1       	rjmp	.+666    	; 0x3754 <__fp_round>
    34ba:	3e d1       	rcall	.+636    	; 0x3738 <__fp_pscA>
    34bc:	30 f0       	brcs	.+12     	; 0x34ca <__addsf3+0x18>
    34be:	43 d1       	rcall	.+646    	; 0x3746 <__fp_pscB>
    34c0:	20 f0       	brcs	.+8      	; 0x34ca <__addsf3+0x18>
    34c2:	31 f4       	brne	.+12     	; 0x34d0 <__addsf3+0x1e>
    34c4:	9f 3f       	cpi	r25, 0xFF	; 255
    34c6:	11 f4       	brne	.+4      	; 0x34cc <__addsf3+0x1a>
    34c8:	1e f4       	brtc	.+6      	; 0x34d0 <__addsf3+0x1e>
    34ca:	33 c1       	rjmp	.+614    	; 0x3732 <__fp_nan>
    34cc:	0e f4       	brtc	.+2      	; 0x34d0 <__addsf3+0x1e>
    34ce:	e0 95       	com	r30
    34d0:	e7 fb       	bst	r30, 7
    34d2:	29 c1       	rjmp	.+594    	; 0x3726 <__fp_inf>

000034d4 <__addsf3x>:
    34d4:	e9 2f       	mov	r30, r25
    34d6:	4f d1       	rcall	.+670    	; 0x3776 <__fp_split3>
    34d8:	80 f3       	brcs	.-32     	; 0x34ba <__addsf3+0x8>
    34da:	ba 17       	cp	r27, r26
    34dc:	62 07       	cpc	r22, r18
    34de:	73 07       	cpc	r23, r19
    34e0:	84 07       	cpc	r24, r20
    34e2:	95 07       	cpc	r25, r21
    34e4:	18 f0       	brcs	.+6      	; 0x34ec <__addsf3x+0x18>
    34e6:	71 f4       	brne	.+28     	; 0x3504 <__addsf3x+0x30>
    34e8:	9e f5       	brtc	.+102    	; 0x3550 <__addsf3x+0x7c>
    34ea:	67 c1       	rjmp	.+718    	; 0x37ba <__fp_zero>
    34ec:	0e f4       	brtc	.+2      	; 0x34f0 <__addsf3x+0x1c>
    34ee:	e0 95       	com	r30
    34f0:	0b 2e       	mov	r0, r27
    34f2:	ba 2f       	mov	r27, r26
    34f4:	a0 2d       	mov	r26, r0
    34f6:	0b 01       	movw	r0, r22
    34f8:	b9 01       	movw	r22, r18
    34fa:	90 01       	movw	r18, r0
    34fc:	0c 01       	movw	r0, r24
    34fe:	ca 01       	movw	r24, r20
    3500:	a0 01       	movw	r20, r0
    3502:	11 24       	eor	r1, r1
    3504:	ff 27       	eor	r31, r31
    3506:	59 1b       	sub	r21, r25
    3508:	99 f0       	breq	.+38     	; 0x3530 <__addsf3x+0x5c>
    350a:	59 3f       	cpi	r21, 0xF9	; 249
    350c:	50 f4       	brcc	.+20     	; 0x3522 <__addsf3x+0x4e>
    350e:	50 3e       	cpi	r21, 0xE0	; 224
    3510:	68 f1       	brcs	.+90     	; 0x356c <__addsf3x+0x98>
    3512:	1a 16       	cp	r1, r26
    3514:	f0 40       	sbci	r31, 0x00	; 0
    3516:	a2 2f       	mov	r26, r18
    3518:	23 2f       	mov	r18, r19
    351a:	34 2f       	mov	r19, r20
    351c:	44 27       	eor	r20, r20
    351e:	58 5f       	subi	r21, 0xF8	; 248
    3520:	f3 cf       	rjmp	.-26     	; 0x3508 <__addsf3x+0x34>
    3522:	46 95       	lsr	r20
    3524:	37 95       	ror	r19
    3526:	27 95       	ror	r18
    3528:	a7 95       	ror	r26
    352a:	f0 40       	sbci	r31, 0x00	; 0
    352c:	53 95       	inc	r21
    352e:	c9 f7       	brne	.-14     	; 0x3522 <__addsf3x+0x4e>
    3530:	7e f4       	brtc	.+30     	; 0x3550 <__addsf3x+0x7c>
    3532:	1f 16       	cp	r1, r31
    3534:	ba 0b       	sbc	r27, r26
    3536:	62 0b       	sbc	r22, r18
    3538:	73 0b       	sbc	r23, r19
    353a:	84 0b       	sbc	r24, r20
    353c:	ba f0       	brmi	.+46     	; 0x356c <__addsf3x+0x98>
    353e:	91 50       	subi	r25, 0x01	; 1
    3540:	a1 f0       	breq	.+40     	; 0x356a <__addsf3x+0x96>
    3542:	ff 0f       	add	r31, r31
    3544:	bb 1f       	adc	r27, r27
    3546:	66 1f       	adc	r22, r22
    3548:	77 1f       	adc	r23, r23
    354a:	88 1f       	adc	r24, r24
    354c:	c2 f7       	brpl	.-16     	; 0x353e <__addsf3x+0x6a>
    354e:	0e c0       	rjmp	.+28     	; 0x356c <__addsf3x+0x98>
    3550:	ba 0f       	add	r27, r26
    3552:	62 1f       	adc	r22, r18
    3554:	73 1f       	adc	r23, r19
    3556:	84 1f       	adc	r24, r20
    3558:	48 f4       	brcc	.+18     	; 0x356c <__addsf3x+0x98>
    355a:	87 95       	ror	r24
    355c:	77 95       	ror	r23
    355e:	67 95       	ror	r22
    3560:	b7 95       	ror	r27
    3562:	f7 95       	ror	r31
    3564:	9e 3f       	cpi	r25, 0xFE	; 254
    3566:	08 f0       	brcs	.+2      	; 0x356a <__addsf3x+0x96>
    3568:	b3 cf       	rjmp	.-154    	; 0x34d0 <__addsf3+0x1e>
    356a:	93 95       	inc	r25
    356c:	88 0f       	add	r24, r24
    356e:	08 f0       	brcs	.+2      	; 0x3572 <__addsf3x+0x9e>
    3570:	99 27       	eor	r25, r25
    3572:	ee 0f       	add	r30, r30
    3574:	97 95       	ror	r25
    3576:	87 95       	ror	r24
    3578:	08 95       	ret

0000357a <__divsf3>:
    357a:	0c d0       	rcall	.+24     	; 0x3594 <__divsf3x>
    357c:	eb c0       	rjmp	.+470    	; 0x3754 <__fp_round>
    357e:	e3 d0       	rcall	.+454    	; 0x3746 <__fp_pscB>
    3580:	40 f0       	brcs	.+16     	; 0x3592 <__divsf3+0x18>
    3582:	da d0       	rcall	.+436    	; 0x3738 <__fp_pscA>
    3584:	30 f0       	brcs	.+12     	; 0x3592 <__divsf3+0x18>
    3586:	21 f4       	brne	.+8      	; 0x3590 <__divsf3+0x16>
    3588:	5f 3f       	cpi	r21, 0xFF	; 255
    358a:	19 f0       	breq	.+6      	; 0x3592 <__divsf3+0x18>
    358c:	cc c0       	rjmp	.+408    	; 0x3726 <__fp_inf>
    358e:	51 11       	cpse	r21, r1
    3590:	15 c1       	rjmp	.+554    	; 0x37bc <__fp_szero>
    3592:	cf c0       	rjmp	.+414    	; 0x3732 <__fp_nan>

00003594 <__divsf3x>:
    3594:	f0 d0       	rcall	.+480    	; 0x3776 <__fp_split3>
    3596:	98 f3       	brcs	.-26     	; 0x357e <__divsf3+0x4>

00003598 <__divsf3_pse>:
    3598:	99 23       	and	r25, r25
    359a:	c9 f3       	breq	.-14     	; 0x358e <__divsf3+0x14>
    359c:	55 23       	and	r21, r21
    359e:	b1 f3       	breq	.-20     	; 0x358c <__divsf3+0x12>
    35a0:	95 1b       	sub	r25, r21
    35a2:	55 0b       	sbc	r21, r21
    35a4:	bb 27       	eor	r27, r27
    35a6:	aa 27       	eor	r26, r26
    35a8:	62 17       	cp	r22, r18
    35aa:	73 07       	cpc	r23, r19
    35ac:	84 07       	cpc	r24, r20
    35ae:	38 f0       	brcs	.+14     	; 0x35be <__divsf3_pse+0x26>
    35b0:	9f 5f       	subi	r25, 0xFF	; 255
    35b2:	5f 4f       	sbci	r21, 0xFF	; 255
    35b4:	22 0f       	add	r18, r18
    35b6:	33 1f       	adc	r19, r19
    35b8:	44 1f       	adc	r20, r20
    35ba:	aa 1f       	adc	r26, r26
    35bc:	a9 f3       	breq	.-22     	; 0x35a8 <__divsf3_pse+0x10>
    35be:	33 d0       	rcall	.+102    	; 0x3626 <__divsf3_pse+0x8e>
    35c0:	0e 2e       	mov	r0, r30
    35c2:	3a f0       	brmi	.+14     	; 0x35d2 <__divsf3_pse+0x3a>
    35c4:	e0 e8       	ldi	r30, 0x80	; 128
    35c6:	30 d0       	rcall	.+96     	; 0x3628 <__divsf3_pse+0x90>
    35c8:	91 50       	subi	r25, 0x01	; 1
    35ca:	50 40       	sbci	r21, 0x00	; 0
    35cc:	e6 95       	lsr	r30
    35ce:	00 1c       	adc	r0, r0
    35d0:	ca f7       	brpl	.-14     	; 0x35c4 <__divsf3_pse+0x2c>
    35d2:	29 d0       	rcall	.+82     	; 0x3626 <__divsf3_pse+0x8e>
    35d4:	fe 2f       	mov	r31, r30
    35d6:	27 d0       	rcall	.+78     	; 0x3626 <__divsf3_pse+0x8e>
    35d8:	66 0f       	add	r22, r22
    35da:	77 1f       	adc	r23, r23
    35dc:	88 1f       	adc	r24, r24
    35de:	bb 1f       	adc	r27, r27
    35e0:	26 17       	cp	r18, r22
    35e2:	37 07       	cpc	r19, r23
    35e4:	48 07       	cpc	r20, r24
    35e6:	ab 07       	cpc	r26, r27
    35e8:	b0 e8       	ldi	r27, 0x80	; 128
    35ea:	09 f0       	breq	.+2      	; 0x35ee <__divsf3_pse+0x56>
    35ec:	bb 0b       	sbc	r27, r27
    35ee:	80 2d       	mov	r24, r0
    35f0:	bf 01       	movw	r22, r30
    35f2:	ff 27       	eor	r31, r31
    35f4:	93 58       	subi	r25, 0x83	; 131
    35f6:	5f 4f       	sbci	r21, 0xFF	; 255
    35f8:	2a f0       	brmi	.+10     	; 0x3604 <__divsf3_pse+0x6c>
    35fa:	9e 3f       	cpi	r25, 0xFE	; 254
    35fc:	51 05       	cpc	r21, r1
    35fe:	68 f0       	brcs	.+26     	; 0x361a <__divsf3_pse+0x82>
    3600:	92 c0       	rjmp	.+292    	; 0x3726 <__fp_inf>
    3602:	dc c0       	rjmp	.+440    	; 0x37bc <__fp_szero>
    3604:	5f 3f       	cpi	r21, 0xFF	; 255
    3606:	ec f3       	brlt	.-6      	; 0x3602 <__divsf3_pse+0x6a>
    3608:	98 3e       	cpi	r25, 0xE8	; 232
    360a:	dc f3       	brlt	.-10     	; 0x3602 <__divsf3_pse+0x6a>
    360c:	86 95       	lsr	r24
    360e:	77 95       	ror	r23
    3610:	67 95       	ror	r22
    3612:	b7 95       	ror	r27
    3614:	f7 95       	ror	r31
    3616:	9f 5f       	subi	r25, 0xFF	; 255
    3618:	c9 f7       	brne	.-14     	; 0x360c <__divsf3_pse+0x74>
    361a:	88 0f       	add	r24, r24
    361c:	91 1d       	adc	r25, r1
    361e:	96 95       	lsr	r25
    3620:	87 95       	ror	r24
    3622:	97 f9       	bld	r25, 7
    3624:	08 95       	ret
    3626:	e1 e0       	ldi	r30, 0x01	; 1
    3628:	66 0f       	add	r22, r22
    362a:	77 1f       	adc	r23, r23
    362c:	88 1f       	adc	r24, r24
    362e:	bb 1f       	adc	r27, r27
    3630:	62 17       	cp	r22, r18
    3632:	73 07       	cpc	r23, r19
    3634:	84 07       	cpc	r24, r20
    3636:	ba 07       	cpc	r27, r26
    3638:	20 f0       	brcs	.+8      	; 0x3642 <__divsf3_pse+0xaa>
    363a:	62 1b       	sub	r22, r18
    363c:	73 0b       	sbc	r23, r19
    363e:	84 0b       	sbc	r24, r20
    3640:	ba 0b       	sbc	r27, r26
    3642:	ee 1f       	adc	r30, r30
    3644:	88 f7       	brcc	.-30     	; 0x3628 <__divsf3_pse+0x90>
    3646:	e0 95       	com	r30
    3648:	08 95       	ret

0000364a <__fixsfsi>:
    364a:	04 d0       	rcall	.+8      	; 0x3654 <__fixunssfsi>
    364c:	68 94       	set
    364e:	b1 11       	cpse	r27, r1
    3650:	b5 c0       	rjmp	.+362    	; 0x37bc <__fp_szero>
    3652:	08 95       	ret

00003654 <__fixunssfsi>:
    3654:	98 d0       	rcall	.+304    	; 0x3786 <__fp_splitA>
    3656:	88 f0       	brcs	.+34     	; 0x367a <__fixunssfsi+0x26>
    3658:	9f 57       	subi	r25, 0x7F	; 127
    365a:	90 f0       	brcs	.+36     	; 0x3680 <__fixunssfsi+0x2c>
    365c:	b9 2f       	mov	r27, r25
    365e:	99 27       	eor	r25, r25
    3660:	b7 51       	subi	r27, 0x17	; 23
    3662:	a0 f0       	brcs	.+40     	; 0x368c <__fixunssfsi+0x38>
    3664:	d1 f0       	breq	.+52     	; 0x369a <__fixunssfsi+0x46>
    3666:	66 0f       	add	r22, r22
    3668:	77 1f       	adc	r23, r23
    366a:	88 1f       	adc	r24, r24
    366c:	99 1f       	adc	r25, r25
    366e:	1a f0       	brmi	.+6      	; 0x3676 <__fixunssfsi+0x22>
    3670:	ba 95       	dec	r27
    3672:	c9 f7       	brne	.-14     	; 0x3666 <__fixunssfsi+0x12>
    3674:	12 c0       	rjmp	.+36     	; 0x369a <__fixunssfsi+0x46>
    3676:	b1 30       	cpi	r27, 0x01	; 1
    3678:	81 f0       	breq	.+32     	; 0x369a <__fixunssfsi+0x46>
    367a:	9f d0       	rcall	.+318    	; 0x37ba <__fp_zero>
    367c:	b1 e0       	ldi	r27, 0x01	; 1
    367e:	08 95       	ret
    3680:	9c c0       	rjmp	.+312    	; 0x37ba <__fp_zero>
    3682:	67 2f       	mov	r22, r23
    3684:	78 2f       	mov	r23, r24
    3686:	88 27       	eor	r24, r24
    3688:	b8 5f       	subi	r27, 0xF8	; 248
    368a:	39 f0       	breq	.+14     	; 0x369a <__fixunssfsi+0x46>
    368c:	b9 3f       	cpi	r27, 0xF9	; 249
    368e:	cc f3       	brlt	.-14     	; 0x3682 <__fixunssfsi+0x2e>
    3690:	86 95       	lsr	r24
    3692:	77 95       	ror	r23
    3694:	67 95       	ror	r22
    3696:	b3 95       	inc	r27
    3698:	d9 f7       	brne	.-10     	; 0x3690 <__fixunssfsi+0x3c>
    369a:	3e f4       	brtc	.+14     	; 0x36aa <__fixunssfsi+0x56>
    369c:	90 95       	com	r25
    369e:	80 95       	com	r24
    36a0:	70 95       	com	r23
    36a2:	61 95       	neg	r22
    36a4:	7f 4f       	sbci	r23, 0xFF	; 255
    36a6:	8f 4f       	sbci	r24, 0xFF	; 255
    36a8:	9f 4f       	sbci	r25, 0xFF	; 255
    36aa:	08 95       	ret

000036ac <__floatunsisf>:
    36ac:	e8 94       	clt
    36ae:	09 c0       	rjmp	.+18     	; 0x36c2 <__floatsisf+0x12>

000036b0 <__floatsisf>:
    36b0:	97 fb       	bst	r25, 7
    36b2:	3e f4       	brtc	.+14     	; 0x36c2 <__floatsisf+0x12>
    36b4:	90 95       	com	r25
    36b6:	80 95       	com	r24
    36b8:	70 95       	com	r23
    36ba:	61 95       	neg	r22
    36bc:	7f 4f       	sbci	r23, 0xFF	; 255
    36be:	8f 4f       	sbci	r24, 0xFF	; 255
    36c0:	9f 4f       	sbci	r25, 0xFF	; 255
    36c2:	99 23       	and	r25, r25
    36c4:	a9 f0       	breq	.+42     	; 0x36f0 <__floatsisf+0x40>
    36c6:	f9 2f       	mov	r31, r25
    36c8:	96 e9       	ldi	r25, 0x96	; 150
    36ca:	bb 27       	eor	r27, r27
    36cc:	93 95       	inc	r25
    36ce:	f6 95       	lsr	r31
    36d0:	87 95       	ror	r24
    36d2:	77 95       	ror	r23
    36d4:	67 95       	ror	r22
    36d6:	b7 95       	ror	r27
    36d8:	f1 11       	cpse	r31, r1
    36da:	f8 cf       	rjmp	.-16     	; 0x36cc <__floatsisf+0x1c>
    36dc:	fa f4       	brpl	.+62     	; 0x371c <__floatsisf+0x6c>
    36de:	bb 0f       	add	r27, r27
    36e0:	11 f4       	brne	.+4      	; 0x36e6 <__floatsisf+0x36>
    36e2:	60 ff       	sbrs	r22, 0
    36e4:	1b c0       	rjmp	.+54     	; 0x371c <__floatsisf+0x6c>
    36e6:	6f 5f       	subi	r22, 0xFF	; 255
    36e8:	7f 4f       	sbci	r23, 0xFF	; 255
    36ea:	8f 4f       	sbci	r24, 0xFF	; 255
    36ec:	9f 4f       	sbci	r25, 0xFF	; 255
    36ee:	16 c0       	rjmp	.+44     	; 0x371c <__floatsisf+0x6c>
    36f0:	88 23       	and	r24, r24
    36f2:	11 f0       	breq	.+4      	; 0x36f8 <__floatsisf+0x48>
    36f4:	96 e9       	ldi	r25, 0x96	; 150
    36f6:	11 c0       	rjmp	.+34     	; 0x371a <__floatsisf+0x6a>
    36f8:	77 23       	and	r23, r23
    36fa:	21 f0       	breq	.+8      	; 0x3704 <__floatsisf+0x54>
    36fc:	9e e8       	ldi	r25, 0x8E	; 142
    36fe:	87 2f       	mov	r24, r23
    3700:	76 2f       	mov	r23, r22
    3702:	05 c0       	rjmp	.+10     	; 0x370e <__floatsisf+0x5e>
    3704:	66 23       	and	r22, r22
    3706:	71 f0       	breq	.+28     	; 0x3724 <__floatsisf+0x74>
    3708:	96 e8       	ldi	r25, 0x86	; 134
    370a:	86 2f       	mov	r24, r22
    370c:	70 e0       	ldi	r23, 0x00	; 0
    370e:	60 e0       	ldi	r22, 0x00	; 0
    3710:	2a f0       	brmi	.+10     	; 0x371c <__floatsisf+0x6c>
    3712:	9a 95       	dec	r25
    3714:	66 0f       	add	r22, r22
    3716:	77 1f       	adc	r23, r23
    3718:	88 1f       	adc	r24, r24
    371a:	da f7       	brpl	.-10     	; 0x3712 <__floatsisf+0x62>
    371c:	88 0f       	add	r24, r24
    371e:	96 95       	lsr	r25
    3720:	87 95       	ror	r24
    3722:	97 f9       	bld	r25, 7
    3724:	08 95       	ret

00003726 <__fp_inf>:
    3726:	97 f9       	bld	r25, 7
    3728:	9f 67       	ori	r25, 0x7F	; 127
    372a:	80 e8       	ldi	r24, 0x80	; 128
    372c:	70 e0       	ldi	r23, 0x00	; 0
    372e:	60 e0       	ldi	r22, 0x00	; 0
    3730:	08 95       	ret

00003732 <__fp_nan>:
    3732:	9f ef       	ldi	r25, 0xFF	; 255
    3734:	80 ec       	ldi	r24, 0xC0	; 192
    3736:	08 95       	ret

00003738 <__fp_pscA>:
    3738:	00 24       	eor	r0, r0
    373a:	0a 94       	dec	r0
    373c:	16 16       	cp	r1, r22
    373e:	17 06       	cpc	r1, r23
    3740:	18 06       	cpc	r1, r24
    3742:	09 06       	cpc	r0, r25
    3744:	08 95       	ret

00003746 <__fp_pscB>:
    3746:	00 24       	eor	r0, r0
    3748:	0a 94       	dec	r0
    374a:	12 16       	cp	r1, r18
    374c:	13 06       	cpc	r1, r19
    374e:	14 06       	cpc	r1, r20
    3750:	05 06       	cpc	r0, r21
    3752:	08 95       	ret

00003754 <__fp_round>:
    3754:	09 2e       	mov	r0, r25
    3756:	03 94       	inc	r0
    3758:	00 0c       	add	r0, r0
    375a:	11 f4       	brne	.+4      	; 0x3760 <__fp_round+0xc>
    375c:	88 23       	and	r24, r24
    375e:	52 f0       	brmi	.+20     	; 0x3774 <__fp_round+0x20>
    3760:	bb 0f       	add	r27, r27
    3762:	40 f4       	brcc	.+16     	; 0x3774 <__fp_round+0x20>
    3764:	bf 2b       	or	r27, r31
    3766:	11 f4       	brne	.+4      	; 0x376c <__fp_round+0x18>
    3768:	60 ff       	sbrs	r22, 0
    376a:	04 c0       	rjmp	.+8      	; 0x3774 <__fp_round+0x20>
    376c:	6f 5f       	subi	r22, 0xFF	; 255
    376e:	7f 4f       	sbci	r23, 0xFF	; 255
    3770:	8f 4f       	sbci	r24, 0xFF	; 255
    3772:	9f 4f       	sbci	r25, 0xFF	; 255
    3774:	08 95       	ret

00003776 <__fp_split3>:
    3776:	57 fd       	sbrc	r21, 7
    3778:	90 58       	subi	r25, 0x80	; 128
    377a:	44 0f       	add	r20, r20
    377c:	55 1f       	adc	r21, r21
    377e:	59 f0       	breq	.+22     	; 0x3796 <__fp_splitA+0x10>
    3780:	5f 3f       	cpi	r21, 0xFF	; 255
    3782:	71 f0       	breq	.+28     	; 0x37a0 <__fp_splitA+0x1a>
    3784:	47 95       	ror	r20

00003786 <__fp_splitA>:
    3786:	88 0f       	add	r24, r24
    3788:	97 fb       	bst	r25, 7
    378a:	99 1f       	adc	r25, r25
    378c:	61 f0       	breq	.+24     	; 0x37a6 <__fp_splitA+0x20>
    378e:	9f 3f       	cpi	r25, 0xFF	; 255
    3790:	79 f0       	breq	.+30     	; 0x37b0 <__fp_splitA+0x2a>
    3792:	87 95       	ror	r24
    3794:	08 95       	ret
    3796:	12 16       	cp	r1, r18
    3798:	13 06       	cpc	r1, r19
    379a:	14 06       	cpc	r1, r20
    379c:	55 1f       	adc	r21, r21
    379e:	f2 cf       	rjmp	.-28     	; 0x3784 <__fp_split3+0xe>
    37a0:	46 95       	lsr	r20
    37a2:	f1 df       	rcall	.-30     	; 0x3786 <__fp_splitA>
    37a4:	08 c0       	rjmp	.+16     	; 0x37b6 <__fp_splitA+0x30>
    37a6:	16 16       	cp	r1, r22
    37a8:	17 06       	cpc	r1, r23
    37aa:	18 06       	cpc	r1, r24
    37ac:	99 1f       	adc	r25, r25
    37ae:	f1 cf       	rjmp	.-30     	; 0x3792 <__fp_splitA+0xc>
    37b0:	86 95       	lsr	r24
    37b2:	71 05       	cpc	r23, r1
    37b4:	61 05       	cpc	r22, r1
    37b6:	08 94       	sec
    37b8:	08 95       	ret

000037ba <__fp_zero>:
    37ba:	e8 94       	clt

000037bc <__fp_szero>:
    37bc:	bb 27       	eor	r27, r27
    37be:	66 27       	eor	r22, r22
    37c0:	77 27       	eor	r23, r23
    37c2:	cb 01       	movw	r24, r22
    37c4:	97 f9       	bld	r25, 7
    37c6:	08 95       	ret

000037c8 <_exit>:
    37c8:	f8 94       	cli

000037ca <__stop_program>:
    37ca:	ff cf       	rjmp	.-2      	; 0x37ca <__stop_program>
